
bin_tests/test_all_acc.elf:     file format elf32-littlearm


Disassembly of section .text:

00000000 <_Reset>:
       0:	ea000006 	b	20 <Reset_Handler>
       4:	eafffffe 	b	4 <GIC_CPU_mask_reg_offset>
       8:	eafffffe 	b	8 <GIC_CPU_mask_reg_offset+0x4>
       c:	eafffffe 	b	c <GIC_CPU_Int_Ack_reg_offset>
      10:	eafffffe 	b	10 <GIC_CPU_End_of_int_offset>
      14:	eafffffe 	b	14 <GIC_CPU_End_of_int_offset+0x4>
      18:	ea00001c 	b	90 <irq_handler>
      1c:	eafffffe 	b	1c <GIC_CPU_End_of_int_offset+0xc>

00000020 <Reset_Handler>:
      20:	e3a010d2 	mov	r1, #210	; 0xd2
      24:	e129f001 	msr	CPSR_fc, r1
      28:	e59fd180 	ldr	sp, [pc, #384]	; 1b0 <irq_end+0x10>
      2c:	e3a010d3 	mov	r1, #211	; 0xd3
      30:	e129f001 	msr	CPSR_fc, r1
      34:	e59fd178 	ldr	sp, [pc, #376]	; 1b4 <irq_end+0x14>
      38:	eb000007 	bl	5c <config_gic_dist>
      3c:	eb00000b 	bl	70 <config_gic_cpu_interface>
      40:	e59f0170 	ldr	r0, [pc, #368]	; 1b8 <irq_end+0x18>
      44:	e3a01001 	mov	r1, #1
      48:	e5801000 	str	r1, [r0]
      4c:	e3a01053 	mov	r1, #83	; 0x53
      50:	e129f001 	msr	CPSR_fc, r1
      54:	eb001c9d 	bl	72d0 <main>
      58:	eafffffe 	b	58 <isp0_irq_id+0xe>

0000005c <config_gic_dist>:
      5c:	e52de004 	push	{lr}		; (str lr, [sp, #-4]!)
      60:	e59f1154 	ldr	r1, [pc, #340]	; 1bc <irq_end+0x1c>
      64:	e3e02000 	mvn	r2, #0
      68:	e5812000 	str	r2, [r1]
      6c:	e49df004 	pop	{pc}		; (ldr pc, [sp], #4)

00000070 <config_gic_cpu_interface>:
      70:	e52de004 	push	{lr}		; (str lr, [sp, #-4]!)
      74:	e59f1144 	ldr	r1, [pc, #324]	; 1c0 <irq_end+0x20>
      78:	e59f2144 	ldr	r2, [pc, #324]	; 1c4 <irq_end+0x24>
      7c:	e5812000 	str	r2, [r1]
      80:	e3a02001 	mov	r2, #1
      84:	e59f113c 	ldr	r1, [pc, #316]	; 1c8 <irq_end+0x28>
      88:	e5812000 	str	r2, [r1]
      8c:	e49df004 	pop	{pc}		; (ldr pc, [sp], #4)

00000090 <irq_handler>:
      90:	e92d40ff 	push	{r0, r1, r2, r3, r4, r5, r6, r7, lr}
      94:	e59f1130 	ldr	r1, [pc, #304]	; 1cc <irq_end+0x2c>
      98:	e5914000 	ldr	r4, [r1]

0000009c <cnm0_irq>:
      9c:	e3540040 	cmp	r4, #64	; 0x40
      a0:	1a000003 	bne	b4 <convolution0_irq>
      a4:	e3a00000 	mov	r0, #0
      a8:	e3a01000 	mov	r1, #0
      ac:	eb00079d 	bl	1f28 <isr>
      b0:	ea00003a 	b	1a0 <irq_end>

000000b4 <convolution0_irq>:
      b4:	e3540041 	cmp	r4, #65	; 0x41
      b8:	1a000003 	bne	cc <convolution1_irq>
      bc:	e3a00001 	mov	r0, #1
      c0:	e3a01000 	mov	r1, #0
      c4:	eb000797 	bl	1f28 <isr>
      c8:	ea000034 	b	1a0 <irq_end>

000000cc <convolution1_irq>:
      cc:	e3540042 	cmp	r4, #66	; 0x42
      d0:	1a000003 	bne	e4 <edge_tracking0_irq>
      d4:	e3a00001 	mov	r0, #1
      d8:	e3a01001 	mov	r1, #1
      dc:	eb000791 	bl	1f28 <isr>
      e0:	ea00002e 	b	1a0 <irq_end>

000000e4 <edge_tracking0_irq>:
      e4:	e3540043 	cmp	r4, #67	; 0x43
      e8:	1a000003 	bne	fc <elem_matrix0_irq>
      ec:	e3a00002 	mov	r0, #2
      f0:	e3a01000 	mov	r1, #0
      f4:	eb00078b 	bl	1f28 <isr>
      f8:	ea000028 	b	1a0 <irq_end>

000000fc <elem_matrix0_irq>:
      fc:	e3540044 	cmp	r4, #68	; 0x44
     100:	1a000003 	bne	114 <elem_matrix1_irq>
     104:	e3a00003 	mov	r0, #3
     108:	e3a01000 	mov	r1, #0
     10c:	eb000785 	bl	1f28 <isr>
     110:	ea000022 	b	1a0 <irq_end>

00000114 <elem_matrix1_irq>:
     114:	e3540045 	cmp	r4, #69	; 0x45
     118:	1a000003 	bne	12c <elem_matrix2_irq>
     11c:	e3a00003 	mov	r0, #3
     120:	e3a01001 	mov	r1, #1
     124:	eb00077f 	bl	1f28 <isr>
     128:	ea00001c 	b	1a0 <irq_end>

0000012c <elem_matrix2_irq>:
     12c:	e3540046 	cmp	r4, #70	; 0x46
     130:	1a000003 	bne	144 <elem_matrix3_irq>
     134:	e3a00003 	mov	r0, #3
     138:	e3a01002 	mov	r1, #2
     13c:	eb000779 	bl	1f28 <isr>
     140:	ea000016 	b	1a0 <irq_end>

00000144 <elem_matrix3_irq>:
     144:	e3540047 	cmp	r4, #71	; 0x47
     148:	1a000003 	bne	15c <grayscale0_irq>
     14c:	e3a00003 	mov	r0, #3
     150:	e3a01003 	mov	r1, #3
     154:	eb000773 	bl	1f28 <isr>
     158:	ea000010 	b	1a0 <irq_end>

0000015c <grayscale0_irq>:
     15c:	e3540048 	cmp	r4, #72	; 0x48
     160:	1a000003 	bne	174 <hnm0_irq>
     164:	e3a00004 	mov	r0, #4
     168:	e3a01000 	mov	r1, #0
     16c:	eb00076d 	bl	1f28 <isr>
     170:	ea00000a 	b	1a0 <irq_end>

00000174 <hnm0_irq>:
     174:	e3540049 	cmp	r4, #73	; 0x49
     178:	1a000003 	bne	18c <isp0_irq>
     17c:	e3a00005 	mov	r0, #5
     180:	e3a01000 	mov	r1, #0
     184:	eb000767 	bl	1f28 <isr>
     188:	ea000004 	b	1a0 <irq_end>

0000018c <isp0_irq>:
     18c:	e354004a 	cmp	r4, #74	; 0x4a
     190:	1a000002 	bne	1a0 <irq_end>
     194:	e3a00006 	mov	r0, #6
     198:	e3a01000 	mov	r1, #0
     19c:	eb000761 	bl	1f28 <isr>

000001a0 <irq_end>:
     1a0:	e59f1028 	ldr	r1, [pc, #40]	; 1d0 <irq_end+0x30>
     1a4:	e5814000 	str	r4, [r1]
     1a8:	e8bd40ff 	pop	{r0, r1, r2, r3, r4, r5, r6, r7, lr}
     1ac:	e25ef004 	subs	pc, lr, #4
     1b0:	800036d0 	ldrdhi	r3, [r0], -r0
     1b4:	800026d0 	ldrdhi	r2, [r0], -r0
     1b8:	2c001000 	stccs	0, cr1, [r0], {-0}
     1bc:	2c001108 	stfcss	f1, [r0], {8}
     1c0:	2c002004 	stccs	0, cr2, [r0], {4}
     1c4:	0000ffff 	strdeq	pc, [r0], -pc	; <UNPREDICTABLE>
     1c8:	2c002000 	stccs	0, cr2, [r0], {-0}
     1cc:	2c00200c 	stccs	0, cr2, [r0], {12}
     1d0:	2c002010 	stccs	0, cr2, [r0], {16}

000001d4 <_read_r>:
     1d4:	e92d4800 	push	{fp, lr}
     1d8:	e28db004 	add	fp, sp, #4
     1dc:	e24dd010 	sub	sp, sp, #16
     1e0:	e50b0008 	str	r0, [fp, #-8]
     1e4:	e50b100c 	str	r1, [fp, #-12]
     1e8:	e50b2010 	str	r2, [fp, #-16]
     1ec:	e50b3014 	str	r3, [fp, #-20]	; 0xffffffec
     1f0:	eb001cde 	bl	7570 <__errno>
     1f4:	e1a02000 	mov	r2, r0
     1f8:	e3a03016 	mov	r3, #22
     1fc:	e5823000 	str	r3, [r2]
     200:	e3e03000 	mvn	r3, #0
     204:	e1a00003 	mov	r0, r3
     208:	e24bd004 	sub	sp, fp, #4
     20c:	e8bd4800 	pop	{fp, lr}
     210:	e12fff1e 	bx	lr

00000214 <_lseek_r>:
     214:	e52db004 	push	{fp}		; (str fp, [sp, #-4]!)
     218:	e28db000 	add	fp, sp, #0
     21c:	e24dd014 	sub	sp, sp, #20
     220:	e50b0008 	str	r0, [fp, #-8]
     224:	e50b100c 	str	r1, [fp, #-12]
     228:	e50b2010 	str	r2, [fp, #-16]
     22c:	e50b3014 	str	r3, [fp, #-20]	; 0xffffffec
     230:	e3a03000 	mov	r3, #0
     234:	e1a00003 	mov	r0, r3
     238:	e28bd000 	add	sp, fp, #0
     23c:	e49db004 	pop	{fp}		; (ldr fp, [sp], #4)
     240:	e12fff1e 	bx	lr

00000244 <gem5_print>:
     244:	e52db004 	push	{fp}		; (str fp, [sp, #-4]!)
     248:	e28db000 	add	fp, sp, #0
     24c:	e24dd00c 	sub	sp, sp, #12
     250:	e50b0008 	str	r0, [fp, #-8]
     254:	ea000006 	b	274 <gem5_print+0x30>
     258:	e51b3008 	ldr	r3, [fp, #-8]
     25c:	e5d32000 	ldrb	r2, [r3]
     260:	e59f302c 	ldr	r3, [pc, #44]	; 294 <gem5_print+0x50>
     264:	e5832000 	str	r2, [r3]
     268:	e51b3008 	ldr	r3, [fp, #-8]
     26c:	e2833001 	add	r3, r3, #1
     270:	e50b3008 	str	r3, [fp, #-8]
     274:	e51b3008 	ldr	r3, [fp, #-8]
     278:	e5d33000 	ldrb	r3, [r3]
     27c:	e3530000 	cmp	r3, #0
     280:	1afffff4 	bne	258 <gem5_print+0x14>
     284:	e1a00000 	nop			; (mov r0, r0)
     288:	e28bd000 	add	sp, fp, #0
     28c:	e49db004 	pop	{fp}		; (ldr fp, [sp], #4)
     290:	e12fff1e 	bx	lr
     294:	1c090000 	stcne	0, cr0, [r9], {-0}

00000298 <_write_r>:
     298:	e92d4800 	push	{fp, lr}
     29c:	e28db004 	add	fp, sp, #4
     2a0:	e24dd010 	sub	sp, sp, #16
     2a4:	e50b0008 	str	r0, [fp, #-8]
     2a8:	e50b100c 	str	r1, [fp, #-12]
     2ac:	e50b2010 	str	r2, [fp, #-16]
     2b0:	e50b3014 	str	r3, [fp, #-20]	; 0xffffffec
     2b4:	e51b0010 	ldr	r0, [fp, #-16]
     2b8:	ebffffe1 	bl	244 <gem5_print>
     2bc:	e51b3014 	ldr	r3, [fp, #-20]	; 0xffffffec
     2c0:	e1a00003 	mov	r0, r3
     2c4:	e24bd004 	sub	sp, fp, #4
     2c8:	e8bd4800 	pop	{fp, lr}
     2cc:	e12fff1e 	bx	lr

000002d0 <_close_r>:
     2d0:	e52db004 	push	{fp}		; (str fp, [sp, #-4]!)
     2d4:	e28db000 	add	fp, sp, #0
     2d8:	e24dd00c 	sub	sp, sp, #12
     2dc:	e50b0008 	str	r0, [fp, #-8]
     2e0:	e50b100c 	str	r1, [fp, #-12]
     2e4:	e3a03000 	mov	r3, #0
     2e8:	e1a00003 	mov	r0, r3
     2ec:	e28bd000 	add	sp, fp, #0
     2f0:	e49db004 	pop	{fp}		; (ldr fp, [sp], #4)
     2f4:	e12fff1e 	bx	lr

000002f8 <_sbrk_r>:
     2f8:	e92d4800 	push	{fp, lr}
     2fc:	e28db004 	add	fp, sp, #4
     300:	e24dd010 	sub	sp, sp, #16
     304:	e50b0010 	str	r0, [fp, #-16]
     308:	e50b1014 	str	r1, [fp, #-20]	; 0xffffffec
     30c:	e59f3080 	ldr	r3, [pc, #128]	; 394 <_sbrk_r+0x9c>
     310:	e5933000 	ldr	r3, [r3]
     314:	e3530000 	cmp	r3, #0
     318:	1a000002 	bne	328 <_sbrk_r+0x30>
     31c:	e59f3070 	ldr	r3, [pc, #112]	; 394 <_sbrk_r+0x9c>
     320:	e59f2070 	ldr	r2, [pc, #112]	; 398 <_sbrk_r+0xa0>
     324:	e5832000 	str	r2, [r3]
     328:	e59f3064 	ldr	r3, [pc, #100]	; 394 <_sbrk_r+0x9c>
     32c:	e5933000 	ldr	r3, [r3]
     330:	e50b3008 	str	r3, [fp, #-8]
     334:	e59f3058 	ldr	r3, [pc, #88]	; 394 <_sbrk_r+0x9c>
     338:	e5932000 	ldr	r2, [r3]
     33c:	e51b3014 	ldr	r3, [fp, #-20]	; 0xffffffec
     340:	e0823003 	add	r3, r2, r3
     344:	e1a0200d 	mov	r2, sp
     348:	e1530002 	cmp	r3, r2
     34c:	9a000005 	bls	368 <_sbrk_r+0x70>
     350:	eb001c86 	bl	7570 <__errno>
     354:	e1a02000 	mov	r2, r0
     358:	e3a0300c 	mov	r3, #12
     35c:	e5823000 	str	r3, [r2]
     360:	e3e03000 	mvn	r3, #0
     364:	ea000006 	b	384 <_sbrk_r+0x8c>
     368:	e59f3024 	ldr	r3, [pc, #36]	; 394 <_sbrk_r+0x9c>
     36c:	e5932000 	ldr	r2, [r3]
     370:	e51b3014 	ldr	r3, [fp, #-20]	; 0xffffffec
     374:	e0823003 	add	r3, r2, r3
     378:	e59f2014 	ldr	r2, [pc, #20]	; 394 <_sbrk_r+0x9c>
     37c:	e5823000 	str	r3, [r2]
     380:	e51b3008 	ldr	r3, [fp, #-8]
     384:	e1a00003 	mov	r0, r3
     388:	e24bd004 	sub	sp, fp, #4
     38c:	e8bd4800 	pop	{fp, lr}
     390:	e12fff1e 	bx	lr
     394:	80000a8c 	andhi	r0, r0, ip, lsl #21
     398:	800036d0 	ldrdhi	r3, [r0], -r0

0000039c <_fstat_r>:
     39c:	e92d4800 	push	{fp, lr}
     3a0:	e28db004 	add	fp, sp, #4
     3a4:	e24dd010 	sub	sp, sp, #16
     3a8:	e50b0008 	str	r0, [fp, #-8]
     3ac:	e50b100c 	str	r1, [fp, #-12]
     3b0:	e50b2010 	str	r2, [fp, #-16]
     3b4:	e3a02058 	mov	r2, #88	; 0x58
     3b8:	e3a01000 	mov	r1, #0
     3bc:	e51b0010 	ldr	r0, [fp, #-16]
     3c0:	eb001c6e 	bl	7580 <memset>
     3c4:	e51b3010 	ldr	r3, [fp, #-16]
     3c8:	e3a02a02 	mov	r2, #8192	; 0x2000
     3cc:	e5832004 	str	r2, [r3, #4]
     3d0:	e3a03000 	mov	r3, #0
     3d4:	e1a00003 	mov	r0, r3
     3d8:	e24bd004 	sub	sp, fp, #4
     3dc:	e8bd4800 	pop	{fp, lr}
     3e0:	e12fff1e 	bx	lr

000003e4 <_isatty_r>:
     3e4:	e52db004 	push	{fp}		; (str fp, [sp, #-4]!)
     3e8:	e28db000 	add	fp, sp, #0
     3ec:	e24dd00c 	sub	sp, sp, #12
     3f0:	e50b0008 	str	r0, [fp, #-8]
     3f4:	e50b100c 	str	r1, [fp, #-12]
     3f8:	e3a03001 	mov	r3, #1
     3fc:	e1a00003 	mov	r0, r3
     400:	e28bd000 	add	sp, fp, #0
     404:	e49db004 	pop	{fp}		; (ldr fp, [sp], #4)
     408:	e12fff1e 	bx	lr

0000040c <get_memory>:
     40c:	e1a03000 	mov	r3, r0
     410:	e59f2018 	ldr	r2, [pc, #24]	; 430 <get_memory+0x24>
     414:	e2101007 	ands	r1, r0, #7
     418:	e5920000 	ldr	r0, [r2]
     41c:	12611008 	rsbne	r1, r1, #8
     420:	e0803003 	add	r3, r0, r3
     424:	e0833001 	add	r3, r3, r1
     428:	e5823000 	str	r3, [r2]
     42c:	e12fff1e 	bx	lr
     430:	80000000 	andhi	r0, r0, r0

00000434 <run_convolution.part.1>:
     434:	e5d03110 	ldrb	r3, [r0, #272]	; 0x110
     438:	e5902118 	ldr	r2, [r0, #280]	; 0x118
     43c:	e0822003 	add	r2, r2, r3
     440:	e5d23025 	ldrb	r3, [r2, #37]	; 0x25
     444:	e2433001 	sub	r3, r3, #1
     448:	e20330ff 	and	r3, r3, #255	; 0xff
     44c:	e5c23025 	strb	r3, [r2, #37]	; 0x25
     450:	e12fff1e 	bx	lr

00000454 <runtime>:
     454:	e92d4ff0 	push	{r4, r5, r6, r7, r8, r9, sl, fp, lr}
     458:	e3a0e000 	mov	lr, #0
     45c:	e3a09421 	mov	r9, #553648128	; 0x21000000
     460:	e1a0200e 	mov	r2, lr
     464:	e59f3f14 	ldr	r3, [pc, #3860]	; 1380 <Len_IRQ_Stack+0x380>
     468:	e24ddf6b 	sub	sp, sp, #428	; 0x1ac
     46c:	e58d1030 	str	r1, [sp, #48]	; 0x30
     470:	e58d3014 	str	r3, [sp, #20]
     474:	e283101c 	add	r1, r3, #28
     478:	e28dc090 	add	ip, sp, #144	; 0x90
     47c:	e28330c4 	add	r3, r3, #196	; 0xc4
     480:	e58d002c 	str	r0, [sp, #44]	; 0x2c
     484:	e58d1010 	str	r1, [sp, #16]
     488:	e58d3028 	str	r3, [sp, #40]	; 0x28
     48c:	e58de004 	str	lr, [sp, #4]
     490:	e58dc00c 	str	ip, [sp, #12]
     494:	e59d3014 	ldr	r3, [sp, #20]
     498:	e4930004 	ldr	r0, [r3], #4
     49c:	e3500000 	cmp	r0, #0
     4a0:	e58d3014 	str	r3, [sp, #20]
     4a4:	da0000f5 	ble	880 <runtime+0x42c>
     4a8:	e59d3004 	ldr	r3, [sp, #4]
     4ac:	e59d1004 	ldr	r1, [sp, #4]
     4b0:	e1a03183 	lsl	r3, r3, #3
     4b4:	e0431001 	sub	r1, r3, r1
     4b8:	e59fcec4 	ldr	ip, [pc, #3780]	; 1384 <Len_IRQ_Stack+0x384>
     4bc:	e58d3020 	str	r3, [sp, #32]
     4c0:	e59d3004 	ldr	r3, [sp, #4]
     4c4:	e79c8103 	ldr	r8, [ip, r3, lsl #2]
     4c8:	e59dc028 	ldr	ip, [sp, #40]	; 0x28
     4cc:	e79c7103 	ldr	r7, [ip, r3, lsl #2]
     4d0:	e59d3010 	ldr	r3, [sp, #16]
     4d4:	e5935004 	ldr	r5, [r3, #4]
     4d8:	e5936000 	ldr	r6, [r3]
     4dc:	e2834008 	add	r4, r3, #8
     4e0:	e5933010 	ldr	r3, [r3, #16]
     4e4:	e58d3018 	str	r3, [sp, #24]
     4e8:	e59d3004 	ldr	r3, [sp, #4]
     4ec:	e59fce94 	ldr	ip, [pc, #3732]	; 1388 <Len_IRQ_Stack+0x388>
     4f0:	e8940810 	ldm	r4, {r4, fp}
     4f4:	e0631181 	rsb	r1, r3, r1, lsl #3
     4f8:	e088a009 	add	sl, r8, r9
     4fc:	e78ca181 	str	sl, [ip, r1, lsl #3]
     500:	e08c3181 	add	r3, ip, r1, lsl #3
     504:	e087a009 	add	sl, r7, r9
     508:	e0861009 	add	r1, r6, r9
     50c:	e59dc018 	ldr	ip, [sp, #24]
     510:	e583a004 	str	sl, [r3, #4]
     514:	e59de00c 	ldr	lr, [sp, #12]
     518:	e5831008 	str	r1, [r3, #8]
     51c:	e085a009 	add	sl, r5, r9
     520:	e0841009 	add	r1, r4, r9
     524:	e583a00c 	str	sl, [r3, #12]
     528:	e3500001 	cmp	r0, #1
     52c:	e5831010 	str	r1, [r3, #16]
     530:	e08ba009 	add	sl, fp, r9
     534:	e08c1009 	add	r1, ip, r9
     538:	e583a014 	str	sl, [r3, #20]
     53c:	e58e2000 	str	r2, [lr]
     540:	e5831018 	str	r1, [r3, #24]
     544:	e58db008 	str	fp, [sp, #8]
     548:	e5c3201c 	strb	r2, [r3, #28]
     54c:	e5832020 	str	r2, [r3, #32]
     550:	e5c32024 	strb	r2, [r3, #36]	; 0x24
     554:	0a0000c9 	beq	880 <runtime+0x42c>
     558:	e2891601 	add	r1, r9, #1048576	; 0x100000
     55c:	e088b001 	add	fp, r8, r1
     560:	e087a001 	add	sl, r7, r1
     564:	e583b02c 	str	fp, [r3, #44]	; 0x2c
     568:	e583a030 	str	sl, [r3, #48]	; 0x30
     56c:	e086b001 	add	fp, r6, r1
     570:	e085a001 	add	sl, r5, r1
     574:	e583b034 	str	fp, [r3, #52]	; 0x34
     578:	e583a038 	str	sl, [r3, #56]	; 0x38
     57c:	e59da008 	ldr	sl, [sp, #8]
     580:	e084b001 	add	fp, r4, r1
     584:	e08aa001 	add	sl, sl, r1
     588:	e3500002 	cmp	r0, #2
     58c:	e08c1001 	add	r1, ip, r1
     590:	e583b03c 	str	fp, [r3, #60]	; 0x3c
     594:	e58e2004 	str	r2, [lr, #4]
     598:	e583a040 	str	sl, [r3, #64]	; 0x40
     59c:	e5831044 	str	r1, [r3, #68]	; 0x44
     5a0:	e5c32048 	strb	r2, [r3, #72]	; 0x48
     5a4:	e583204c 	str	r2, [r3, #76]	; 0x4c
     5a8:	e5c32050 	strb	r2, [r3, #80]	; 0x50
     5ac:	0a0000b3 	beq	880 <runtime+0x42c>
     5b0:	e2891602 	add	r1, r9, #2097152	; 0x200000
     5b4:	e088b001 	add	fp, r8, r1
     5b8:	e087a001 	add	sl, r7, r1
     5bc:	e583b058 	str	fp, [r3, #88]	; 0x58
     5c0:	e583a05c 	str	sl, [r3, #92]	; 0x5c
     5c4:	e086b001 	add	fp, r6, r1
     5c8:	e085a001 	add	sl, r5, r1
     5cc:	e583b060 	str	fp, [r3, #96]	; 0x60
     5d0:	e583a064 	str	sl, [r3, #100]	; 0x64
     5d4:	e59da008 	ldr	sl, [sp, #8]
     5d8:	e084b001 	add	fp, r4, r1
     5dc:	e08aa001 	add	sl, sl, r1
     5e0:	e3500003 	cmp	r0, #3
     5e4:	e08c1001 	add	r1, ip, r1
     5e8:	e583b068 	str	fp, [r3, #104]	; 0x68
     5ec:	e58e2008 	str	r2, [lr, #8]
     5f0:	e583a06c 	str	sl, [r3, #108]	; 0x6c
     5f4:	e5831070 	str	r1, [r3, #112]	; 0x70
     5f8:	e5c32074 	strb	r2, [r3, #116]	; 0x74
     5fc:	e5832078 	str	r2, [r3, #120]	; 0x78
     600:	e5c3207c 	strb	r2, [r3, #124]	; 0x7c
     604:	0a00009d 	beq	880 <runtime+0x42c>
     608:	e2891603 	add	r1, r9, #3145728	; 0x300000
     60c:	e088b001 	add	fp, r8, r1
     610:	e087a001 	add	sl, r7, r1
     614:	e583b084 	str	fp, [r3, #132]	; 0x84
     618:	e583a088 	str	sl, [r3, #136]	; 0x88
     61c:	e086b001 	add	fp, r6, r1
     620:	e085a001 	add	sl, r5, r1
     624:	e583b08c 	str	fp, [r3, #140]	; 0x8c
     628:	e583a090 	str	sl, [r3, #144]	; 0x90
     62c:	e59da008 	ldr	sl, [sp, #8]
     630:	e084b001 	add	fp, r4, r1
     634:	e08aa001 	add	sl, sl, r1
     638:	e3500004 	cmp	r0, #4
     63c:	e08c1001 	add	r1, ip, r1
     640:	e583b094 	str	fp, [r3, #148]	; 0x94
     644:	e58e200c 	str	r2, [lr, #12]
     648:	e583a098 	str	sl, [r3, #152]	; 0x98
     64c:	e583109c 	str	r1, [r3, #156]	; 0x9c
     650:	e5c320a0 	strb	r2, [r3, #160]	; 0xa0
     654:	e58320a4 	str	r2, [r3, #164]	; 0xa4
     658:	e5c320a8 	strb	r2, [r3, #168]	; 0xa8
     65c:	0a000087 	beq	880 <runtime+0x42c>
     660:	e2891501 	add	r1, r9, #4194304	; 0x400000
     664:	e088b001 	add	fp, r8, r1
     668:	e087a001 	add	sl, r7, r1
     66c:	e583b0b0 	str	fp, [r3, #176]	; 0xb0
     670:	e583a0b4 	str	sl, [r3, #180]	; 0xb4
     674:	e086b001 	add	fp, r6, r1
     678:	e085a001 	add	sl, r5, r1
     67c:	e583b0b8 	str	fp, [r3, #184]	; 0xb8
     680:	e583a0bc 	str	sl, [r3, #188]	; 0xbc
     684:	e59da008 	ldr	sl, [sp, #8]
     688:	e084b001 	add	fp, r4, r1
     68c:	e08aa001 	add	sl, sl, r1
     690:	e3500005 	cmp	r0, #5
     694:	e08c1001 	add	r1, ip, r1
     698:	e583b0c0 	str	fp, [r3, #192]	; 0xc0
     69c:	e58e2010 	str	r2, [lr, #16]
     6a0:	e583a0c4 	str	sl, [r3, #196]	; 0xc4
     6a4:	e58310c8 	str	r1, [r3, #200]	; 0xc8
     6a8:	e5c320cc 	strb	r2, [r3, #204]	; 0xcc
     6ac:	e58320d0 	str	r2, [r3, #208]	; 0xd0
     6b0:	e5c320d4 	strb	r2, [r3, #212]	; 0xd4
     6b4:	0a000071 	beq	880 <runtime+0x42c>
     6b8:	e2891605 	add	r1, r9, #5242880	; 0x500000
     6bc:	e088b001 	add	fp, r8, r1
     6c0:	e087a001 	add	sl, r7, r1
     6c4:	e583b0dc 	str	fp, [r3, #220]	; 0xdc
     6c8:	e583a0e0 	str	sl, [r3, #224]	; 0xe0
     6cc:	e086b001 	add	fp, r6, r1
     6d0:	e085a001 	add	sl, r5, r1
     6d4:	e583b0e4 	str	fp, [r3, #228]	; 0xe4
     6d8:	e583a0e8 	str	sl, [r3, #232]	; 0xe8
     6dc:	e59da008 	ldr	sl, [sp, #8]
     6e0:	e084b001 	add	fp, r4, r1
     6e4:	e08aa001 	add	sl, sl, r1
     6e8:	e3500006 	cmp	r0, #6
     6ec:	e08c1001 	add	r1, ip, r1
     6f0:	e583b0ec 	str	fp, [r3, #236]	; 0xec
     6f4:	e58e2014 	str	r2, [lr, #20]
     6f8:	e583a0f0 	str	sl, [r3, #240]	; 0xf0
     6fc:	e58310f4 	str	r1, [r3, #244]	; 0xf4
     700:	e5c320f8 	strb	r2, [r3, #248]	; 0xf8
     704:	e58320fc 	str	r2, [r3, #252]	; 0xfc
     708:	e5c32100 	strb	r2, [r3, #256]	; 0x100
     70c:	0a00005b 	beq	880 <runtime+0x42c>
     710:	e2891606 	add	r1, r9, #6291456	; 0x600000
     714:	e088b001 	add	fp, r8, r1
     718:	e087a001 	add	sl, r7, r1
     71c:	e583b108 	str	fp, [r3, #264]	; 0x108
     720:	e583a10c 	str	sl, [r3, #268]	; 0x10c
     724:	e086b001 	add	fp, r6, r1
     728:	e085a001 	add	sl, r5, r1
     72c:	e583b110 	str	fp, [r3, #272]	; 0x110
     730:	e583a114 	str	sl, [r3, #276]	; 0x114
     734:	e59da008 	ldr	sl, [sp, #8]
     738:	e084b001 	add	fp, r4, r1
     73c:	e08aa001 	add	sl, sl, r1
     740:	e3500007 	cmp	r0, #7
     744:	e08c1001 	add	r1, ip, r1
     748:	e583b118 	str	fp, [r3, #280]	; 0x118
     74c:	e58e2018 	str	r2, [lr, #24]
     750:	e583a11c 	str	sl, [r3, #284]	; 0x11c
     754:	e5831120 	str	r1, [r3, #288]	; 0x120
     758:	e5c32124 	strb	r2, [r3, #292]	; 0x124
     75c:	e5832128 	str	r2, [r3, #296]	; 0x128
     760:	e5c3212c 	strb	r2, [r3, #300]	; 0x12c
     764:	0a000045 	beq	880 <runtime+0x42c>
     768:	e2891607 	add	r1, r9, #7340032	; 0x700000
     76c:	e088b001 	add	fp, r8, r1
     770:	e087a001 	add	sl, r7, r1
     774:	e58e201c 	str	r2, [lr, #28]
     778:	e59de008 	ldr	lr, [sp, #8]
     77c:	e583b134 	str	fp, [r3, #308]	; 0x134
     780:	e583a138 	str	sl, [r3, #312]	; 0x138
     784:	e086b001 	add	fp, r6, r1
     788:	e085a001 	add	sl, r5, r1
     78c:	e583b13c 	str	fp, [r3, #316]	; 0x13c
     790:	e3500008 	cmp	r0, #8
     794:	e583a140 	str	sl, [r3, #320]	; 0x140
     798:	e084b001 	add	fp, r4, r1
     79c:	e08ea001 	add	sl, lr, r1
     7a0:	e08c1001 	add	r1, ip, r1
     7a4:	e583b144 	str	fp, [r3, #324]	; 0x144
     7a8:	e583a148 	str	sl, [r3, #328]	; 0x148
     7ac:	e583114c 	str	r1, [r3, #332]	; 0x14c
     7b0:	e5c32150 	strb	r2, [r3, #336]	; 0x150
     7b4:	e5832154 	str	r2, [r3, #340]	; 0x154
     7b8:	e5c32158 	strb	r2, [r3, #344]	; 0x158
     7bc:	0a00002f 	beq	880 <runtime+0x42c>
     7c0:	e2891502 	add	r1, r9, #8388608	; 0x800000
     7c4:	e088a001 	add	sl, r8, r1
     7c8:	e3500009 	cmp	r0, #9
     7cc:	e0870001 	add	r0, r7, r1
     7d0:	e583a160 	str	sl, [r3, #352]	; 0x160
     7d4:	e59db00c 	ldr	fp, [sp, #12]
     7d8:	e5830164 	str	r0, [r3, #356]	; 0x164
     7dc:	e086a001 	add	sl, r6, r1
     7e0:	e0850001 	add	r0, r5, r1
     7e4:	e583a168 	str	sl, [r3, #360]	; 0x168
     7e8:	e583016c 	str	r0, [r3, #364]	; 0x16c
     7ec:	e084a001 	add	sl, r4, r1
     7f0:	e08e0001 	add	r0, lr, r1
     7f4:	e08c1001 	add	r1, ip, r1
     7f8:	e583a170 	str	sl, [r3, #368]	; 0x170
     7fc:	e58b2020 	str	r2, [fp, #32]
     800:	e5830174 	str	r0, [r3, #372]	; 0x174
     804:	e5831178 	str	r1, [r3, #376]	; 0x178
     808:	e5c3217c 	strb	r2, [r3, #380]	; 0x17c
     80c:	e5832180 	str	r2, [r3, #384]	; 0x180
     810:	e5c32184 	strb	r2, [r3, #388]	; 0x184
     814:	0a000019 	beq	880 <runtime+0x42c>
     818:	e59d1004 	ldr	r1, [sp, #4]
     81c:	e59d3020 	ldr	r3, [sp, #32]
     820:	e59f0b60 	ldr	r0, [pc, #2912]	; 1388 <Len_IRQ_Stack+0x388>
     824:	e0433001 	sub	r3, r3, r1
     828:	e0613183 	rsb	r3, r1, r3, lsl #3
     82c:	e2891609 	add	r1, r9, #9437184	; 0x900000
     830:	e0803183 	add	r3, r0, r3, lsl #3
     834:	e0888001 	add	r8, r8, r1
     838:	e0877001 	add	r7, r7, r1
     83c:	e0866001 	add	r6, r6, r1
     840:	e0855001 	add	r5, r5, r1
     844:	e0844001 	add	r4, r4, r1
     848:	e08e0001 	add	r0, lr, r1
     84c:	e08c1001 	add	r1, ip, r1
     850:	e59dc00c 	ldr	ip, [sp, #12]
     854:	e583818c 	str	r8, [r3, #396]	; 0x18c
     858:	e58c2024 	str	r2, [ip, #36]	; 0x24
     85c:	e5837190 	str	r7, [r3, #400]	; 0x190
     860:	e5836194 	str	r6, [r3, #404]	; 0x194
     864:	e5835198 	str	r5, [r3, #408]	; 0x198
     868:	e583419c 	str	r4, [r3, #412]	; 0x19c
     86c:	e58301a0 	str	r0, [r3, #416]	; 0x1a0
     870:	e58311a4 	str	r1, [r3, #420]	; 0x1a4
     874:	e5c321a8 	strb	r2, [r3, #424]	; 0x1a8
     878:	e58321ac 	str	r2, [r3, #428]	; 0x1ac
     87c:	e5c321b0 	strb	r2, [r3, #432]	; 0x1b0
     880:	e59d3004 	ldr	r3, [sp, #4]
     884:	e2833001 	add	r3, r3, #1
     888:	e58d3004 	str	r3, [sp, #4]
     88c:	e3530007 	cmp	r3, #7
     890:	e59d300c 	ldr	r3, [sp, #12]
     894:	e2833028 	add	r3, r3, #40	; 0x28
     898:	e58d300c 	str	r3, [sp, #12]
     89c:	e59d3010 	ldr	r3, [sp, #16]
     8a0:	e2833014 	add	r3, r3, #20
     8a4:	e58d3010 	str	r3, [sp, #16]
     8a8:	e2899401 	add	r9, r9, #16777216	; 0x1000000
     8ac:	1afffef8 	bne	494 <runtime+0x40>
     8b0:	e3a00000 	mov	r0, #0
     8b4:	e3a01000 	mov	r1, #0
     8b8:	e3a02000 	mov	r2, #0
     8bc:	e3a03000 	mov	r3, #0
     8c0:	ee400110 	wfc	r0
     8c4:	e59faabc 	ldr	sl, [pc, #2748]	; 1388 <Len_IRQ_Stack+0x388>
     8c8:	e3a03000 	mov	r3, #0
     8cc:	e59d9030 	ldr	r9, [sp, #48]	; 0x30
     8d0:	e59fbaa8 	ldr	fp, [pc, #2728]	; 1380 <Len_IRQ_Stack+0x380>
     8d4:	e1a07009 	mov	r7, r9
     8d8:	e3a08001 	mov	r8, #1
     8dc:	e1a0900b 	mov	r9, fp
     8e0:	e58d3014 	str	r3, [sp, #20]
     8e4:	e58d300c 	str	r3, [sp, #12]
     8e8:	e59d302c 	ldr	r3, [sp, #44]	; 0x2c
     8ec:	e58d3008 	str	r3, [sp, #8]
     8f0:	e28d3090 	add	r3, sp, #144	; 0x90
     8f4:	e58d3010 	str	r3, [sp, #16]
     8f8:	e4993004 	ldr	r3, [r9], #4
     8fc:	e3530000 	cmp	r3, #0
     900:	da00002b 	ble	9b4 <runtime+0x560>
     904:	e3a06000 	mov	r6, #0
     908:	e59d200c 	ldr	r2, [sp, #12]
     90c:	e0623182 	rsb	r3, r2, r2, lsl #3
     910:	e0623183 	rsb	r3, r2, r3, lsl #3
     914:	e1a0b183 	lsl	fp, r3, #3
     918:	e1a00007 	mov	r0, r7
     91c:	e1a0e006 	mov	lr, r6
     920:	e1a0700b 	mov	r7, fp
     924:	e59d5010 	ldr	r5, [sp, #16]
     928:	e58d6004 	str	r6, [sp, #4]
     92c:	e1a0310e 	lsl	r3, lr, #2
     930:	e083100e 	add	r1, r3, lr
     934:	e08e1081 	add	r1, lr, r1, lsl #1
     938:	e0871101 	add	r1, r7, r1, lsl #2
     93c:	e5902000 	ldr	r2, [r0]
     940:	e08a1001 	add	r1, sl, r1
     944:	e5d1401c 	ldrb	r4, [r1, #28]
     948:	e792c10e 	ldr	ip, [r2, lr, lsl #2]
     94c:	e5952000 	ldr	r2, [r5]
     950:	e3540000 	cmp	r4, #0
     954:	13a08000 	movne	r8, #0
     958:	e152000c 	cmp	r2, ip
     95c:	0a00000a 	beq	98c <runtime+0x538>
     960:	e5d1101c 	ldrb	r1, [r1, #28]
     964:	e3510000 	cmp	r1, #0
     968:	1a000006 	bne	988 <runtime+0x534>
     96c:	e59d1008 	ldr	r1, [sp, #8]
     970:	e5911000 	ldr	r1, [r1]
     974:	e7911003 	ldr	r1, [r1, r3]
     978:	e7911102 	ldr	r1, [r1, r2, lsl #2]
     97c:	e591c100 	ldr	ip, [r1, #256]	; 0x100
     980:	e35c0001 	cmp	ip, #1
     984:	0a000028 	beq	a2c <runtime+0x5d8>
     988:	e3a08000 	mov	r8, #0
     98c:	e59d2004 	ldr	r2, [sp, #4]
     990:	e5193004 	ldr	r3, [r9, #-4]
     994:	e2966601 	adds	r6, r6, #1048576	; 0x100000
     998:	e28ee001 	add	lr, lr, #1
     99c:	e2a22000 	adc	r2, r2, #0
     9a0:	e153000e 	cmp	r3, lr
     9a4:	e58d2004 	str	r2, [sp, #4]
     9a8:	e2855004 	add	r5, r5, #4
     9ac:	caffffde 	bgt	92c <runtime+0x4d8>
     9b0:	e1a07000 	mov	r7, r0
     9b4:	e59d2014 	ldr	r2, [sp, #20]
     9b8:	e59f39cc 	ldr	r3, [pc, #2508]	; 138c <Len_IRQ_Stack+0x38c>
     9bc:	e2822f6e 	add	r2, r2, #440	; 0x1b8
     9c0:	e1520003 	cmp	r2, r3
     9c4:	e59d300c 	ldr	r3, [sp, #12]
     9c8:	e2833001 	add	r3, r3, #1
     9cc:	e58d300c 	str	r3, [sp, #12]
     9d0:	e59d3010 	ldr	r3, [sp, #16]
     9d4:	e2833028 	add	r3, r3, #40	; 0x28
     9d8:	e58d3010 	str	r3, [sp, #16]
     9dc:	e59d3008 	ldr	r3, [sp, #8]
     9e0:	e2833004 	add	r3, r3, #4
     9e4:	e58d2014 	str	r2, [sp, #20]
     9e8:	e2877004 	add	r7, r7, #4
     9ec:	e58d3008 	str	r3, [sp, #8]
     9f0:	1affffc0 	bne	8f8 <runtime+0x4a4>
     9f4:	e3580000 	cmp	r8, #0
     9f8:	1a00030a 	bne	1628 <Len_IRQ_Stack+0x628>
     9fc:	e59f398c 	ldr	r3, [pc, #2444]	; 1390 <Len_IRQ_Stack+0x390>
     a00:	e5933000 	ldr	r3, [r3]
     a04:	e3530000 	cmp	r3, #0
     a08:	0a000373 	beq	17dc <Len_IRQ_Stack+0x7dc>
     a0c:	e59f397c 	ldr	r3, [pc, #2428]	; 1390 <Len_IRQ_Stack+0x390>
     a10:	e5d33004 	ldrb	r3, [r3, #4]
     a14:	e3530000 	cmp	r3, #0
     a18:	0afffffb 	beq	a0c <runtime+0x5b8>
     a1c:	e3a03000 	mov	r3, #0
     a20:	e59f2968 	ldr	r2, [pc, #2408]	; 1390 <Len_IRQ_Stack+0x390>
     a24:	e5c23004 	strb	r3, [r2, #4]
     a28:	eaffffa6 	b	8c8 <runtime+0x474>
     a2c:	e59dc00c 	ldr	ip, [sp, #12]
     a30:	e24cc001 	sub	ip, ip, #1
     a34:	e5918004 	ldr	r8, [r1, #4]
     a38:	e35c0005 	cmp	ip, #5
     a3c:	979ff10c 	ldrls	pc, [pc, ip, lsl #2]
     a40:	ea0004a3 	b	1cd4 <Len_IRQ_Stack+0xcd4>
     a44:	00000fb8 			; <UNDEFINED> instruction: 0x00000fb8
     a48:	00000d98 	muleq	r0, r8, sp
     a4c:	00000c18 	andeq	r0, r0, r8, lsl ip
     a50:	00000ae4 	andeq	r0, r0, r4, ror #21
     a54:	00000a5c 	andeq	r0, r0, ip, asr sl
     a58:	00000ea8 	andeq	r0, r0, r8, lsr #29
     a5c:	e083c00e 	add	ip, r3, lr
     a60:	e08ec08c 	add	ip, lr, ip, lsl #1
     a64:	e08ac10c 	add	ip, sl, ip, lsl #2
     a68:	e5dc48bd 	ldrb	r4, [ip, #2237]	; 0x8bd
     a6c:	e21440ff 	ands	r4, r4, #255	; 0xff
     a70:	0a0002b4 	beq	1548 <Len_IRQ_Stack+0x548>
     a74:	e5dcc8be 	ldrb	ip, [ip, #2238]	; 0x8be
     a78:	e35c0000 	cmp	ip, #0
     a7c:	0a0002b0 	beq	1544 <Len_IRQ_Stack+0x544>
     a80:	e083c00e 	add	ip, r3, lr
     a84:	e08ec08c 	add	ip, lr, ip, lsl #1
     a88:	e087410c 	add	r4, r7, ip, lsl #2
     a8c:	e08ac004 	add	ip, sl, r4
     a90:	e5dcc01c 	ldrb	ip, [ip, #28]
     a94:	e35c0003 	cmp	ip, #3
     a98:	0a000183 	beq	10ac <Len_IRQ_Stack+0xac>
     a9c:	e083300e 	add	r3, r3, lr
     aa0:	e08e3083 	add	r3, lr, r3, lsl #1
     aa4:	e0873103 	add	r3, r7, r3, lsl #2
     aa8:	e08a3003 	add	r3, sl, r3
     aac:	e5831020 	str	r1, [r3, #32]
     ab0:	e5d3301c 	ldrb	r3, [r3, #28]
     ab4:	e3530000 	cmp	r3, #0
     ab8:	0affffb2 	beq	988 <runtime+0x534>
     abc:	e3a0c002 	mov	ip, #2
     ac0:	e2822001 	add	r2, r2, #1
     ac4:	e5852000 	str	r2, [r5]
     ac8:	e59f28c0 	ldr	r2, [pc, #2240]	; 1390 <Len_IRQ_Stack+0x390>
     acc:	e5923000 	ldr	r3, [r2]
     ad0:	e2833001 	add	r3, r3, #1
     ad4:	e3a08000 	mov	r8, #0
     ad8:	e5823000 	str	r3, [r2]
     adc:	e581c100 	str	ip, [r1, #256]	; 0x100
     ae0:	eaffffa9 	b	98c <runtime+0x538>
     ae4:	e083c00e 	add	ip, r3, lr
     ae8:	e08ec08c 	add	ip, lr, ip, lsl #1
     aec:	e08ac10c 	add	ip, sl, ip, lsl #2
     af0:	e5dc4705 	ldrb	r4, [ip, #1797]	; 0x705
     af4:	e21440ff 	ands	r4, r4, #255	; 0xff
     af8:	0a000003 	beq	b0c <runtime+0x6b8>
     afc:	e5dcc706 	ldrb	ip, [ip, #1798]	; 0x706
     b00:	e35c0000 	cmp	ip, #0
     b04:	1affffdd 	bne	a80 <runtime+0x62c>
     b08:	e3a04001 	mov	r4, #1
     b0c:	e083c00e 	add	ip, r3, lr
     b10:	e08ec08c 	add	ip, lr, ip, lsl #1
     b14:	e08ac10c 	add	ip, sl, ip, lsl #2
     b18:	e591b0ec 	ldr	fp, [r1, #236]	; 0xec
     b1c:	e5cc4704 	strb	r4, [ip, #1796]	; 0x704
     b20:	e35b0000 	cmp	fp, #0
     b24:	15d1c110 	ldrbne	ip, [r1, #272]	; 0x110
     b28:	15914118 	ldrne	r4, [r1, #280]	; 0x118
     b2c:	128cc002 	addne	ip, ip, #2
     b30:	1794c10c 	ldrne	ip, [r4, ip, lsl #2]
     b34:	0598c000 	ldreq	ip, [r8]
     b38:	e58dc018 	str	ip, [sp, #24]
     b3c:	e083c00e 	add	ip, r3, lr
     b40:	e08ec08c 	add	ip, lr, ip, lsl #1
     b44:	e08a810c 	add	r8, sl, ip, lsl #2
     b48:	e5d84704 	ldrb	r4, [r8, #1796]	; 0x704
     b4c:	e08cc004 	add	ip, ip, r4
     b50:	e28ccf6e 	add	ip, ip, #440	; 0x1b8
     b54:	e28cc002 	add	ip, ip, #2
     b58:	e79ac10c 	ldr	ip, [sl, ip, lsl #2]
     b5c:	e58dc020 	str	ip, [sp, #32]
     b60:	e5d8c6fc 	ldrb	ip, [r8, #1788]	; 0x6fc
     b64:	e1a04a0e 	lsl	r4, lr, #20
     b68:	e35c0000 	cmp	ip, #0
     b6c:	e1a0b004 	mov	fp, r4
     b70:	e2844425 	add	r4, r4, #620756992	; 0x25000000
     b74:	1a0002ce 	bne	16b4 <Len_IRQ_Stack+0x6b4>
     b78:	e3a0c000 	mov	ip, #0
     b7c:	e59db018 	ldr	fp, [sp, #24]
     b80:	e58db018 	str	fp, [sp, #24]
     b84:	e58dc01c 	str	ip, [sp, #28]
     b88:	e59fc804 	ldr	ip, [pc, #2052]	; 1394 <Len_IRQ_Stack+0x394>
     b8c:	e096c00c 	adds	ip, r6, ip
     b90:	e58dc050 	str	ip, [sp, #80]	; 0x50
     b94:	e59dc004 	ldr	ip, [sp, #4]
     b98:	e2acc000 	adc	ip, ip, #0
     b9c:	e58dc054 	str	ip, [sp, #84]	; 0x54
     ba0:	e28dc018 	add	ip, sp, #24
     ba4:	e89c1800 	ldm	ip, {fp, ip}
     ba8:	e584b008 	str	fp, [r4, #8]
     bac:	e584c00c 	str	ip, [r4, #12]
     bb0:	e28dc050 	add	ip, sp, #80	; 0x50
     bb4:	e89c1800 	ldm	ip, {fp, ip}
     bb8:	e584b010 	str	fp, [r4, #16]
     bbc:	e584c014 	str	ip, [r4, #20]
     bc0:	e3a0c903 	mov	ip, #49152	; 0xc000
     bc4:	e584c018 	str	ip, [r4, #24]
     bc8:	e3a0c001 	mov	ip, #1
     bcc:	e5c4c007 	strb	ip, [r4, #7]
     bd0:	e5c8c6fc 	strb	ip, [r8, #1788]	; 0x6fc
     bd4:	e083c00e 	add	ip, r3, lr
     bd8:	e08ec08c 	add	ip, lr, ip, lsl #1
     bdc:	e08ac10c 	add	ip, sl, ip, lsl #2
     be0:	e5dcc6fc 	ldrb	ip, [ip, #1788]	; 0x6fc
     be4:	e35c0003 	cmp	ip, #3
     be8:	1affffa4 	bne	a80 <runtime+0x62c>
     bec:	e591c0ec 	ldr	ip, [r1, #236]	; 0xec
     bf0:	e35c0000 	cmp	ip, #0
     bf4:	0affffa1 	beq	a80 <runtime+0x62c>
     bf8:	e5914118 	ldr	r4, [r1, #280]	; 0x118
     bfc:	e5d1c110 	ldrb	ip, [r1, #272]	; 0x110
     c00:	e084400c 	add	r4, r4, ip
     c04:	e5d4c025 	ldrb	ip, [r4, #37]	; 0x25
     c08:	e24cc001 	sub	ip, ip, #1
     c0c:	e20cc0ff 	and	ip, ip, #255	; 0xff
     c10:	e5c4c025 	strb	ip, [r4, #37]	; 0x25
     c14:	eaffff99 	b	a80 <runtime+0x62c>
     c18:	e5d8c009 	ldrb	ip, [r8, #9]
     c1c:	e35c0003 	cmp	ip, #3
     c20:	e58dc038 	str	ip, [sp, #56]	; 0x38
     c24:	9a0001c7 	bls	1348 <Len_IRQ_Stack+0x348>
     c28:	e24c4006 	sub	r4, ip, #6
     c2c:	e274c000 	rsbs	ip, r4, #0
     c30:	e0acc004 	adc	ip, ip, r4
     c34:	e58dc018 	str	ip, [sp, #24]
     c38:	e591c0ec 	ldr	ip, [r1, #236]	; 0xec
     c3c:	e35c0000 	cmp	ip, #0
     c40:	0a0001ab 	beq	12f4 <Len_IRQ_Stack+0x2f4>
     c44:	e59dc014 	ldr	ip, [sp, #20]
     c48:	e083400e 	add	r4, r3, lr
     c4c:	e08eb084 	add	fp, lr, r4, lsl #1
     c50:	e08ac00c 	add	ip, sl, ip
     c54:	e5914118 	ldr	r4, [r1, #280]	; 0x118
     c58:	e08cc10b 	add	ip, ip, fp, lsl #2
     c5c:	e154000c 	cmp	r4, ip
     c60:	e5d1c110 	ldrb	ip, [r1, #272]	; 0x110
     c64:	0a0001be 	beq	1364 <Len_IRQ_Stack+0x364>
     c68:	e28cc002 	add	ip, ip, #2
     c6c:	e794c10c 	ldr	ip, [r4, ip, lsl #2]
     c70:	e58dc03c 	str	ip, [sp, #60]	; 0x3c
     c74:	e3a0c000 	mov	ip, #0
     c78:	e58dc020 	str	ip, [sp, #32]
     c7c:	e59dc018 	ldr	ip, [sp, #24]
     c80:	e35c0000 	cmp	ip, #0
     c84:	058dc028 	streq	ip, [sp, #40]	; 0x28
     c88:	058dc040 	streq	ip, [sp, #64]	; 0x40
     c8c:	0a000010 	beq	cd4 <runtime+0x880>
     c90:	e591c0f0 	ldr	ip, [r1, #240]	; 0xf0
     c94:	e35c0000 	cmp	ip, #0
     c98:	0a0001ad 	beq	1354 <Len_IRQ_Stack+0x354>
     c9c:	e59d4014 	ldr	r4, [sp, #20]
     ca0:	e083c00e 	add	ip, r3, lr
     ca4:	e08ec08c 	add	ip, lr, ip, lsl #1
     ca8:	e08a4004 	add	r4, sl, r4
     cac:	e591b11c 	ldr	fp, [r1, #284]	; 0x11c
     cb0:	e084410c 	add	r4, r4, ip, lsl #2
     cb4:	e15b0004 	cmp	fp, r4
     cb8:	e5d14111 	ldrb	r4, [r1, #273]	; 0x111
     cbc:	0a0002cb 	beq	17f0 <Len_IRQ_Stack+0x7f0>
     cc0:	e2844002 	add	r4, r4, #2
     cc4:	e79bc104 	ldr	ip, [fp, r4, lsl #2]
     cc8:	e58dc040 	str	ip, [sp, #64]	; 0x40
     ccc:	e3a0c000 	mov	ip, #0
     cd0:	e58dc028 	str	ip, [sp, #40]	; 0x28
     cd4:	e083c00e 	add	ip, r3, lr
     cd8:	e08ec08c 	add	ip, lr, ip, lsl #1
     cdc:	e08ac10c 	add	ip, sl, ip, lsl #2
     ce0:	e5dc454d 	ldrb	r4, [ip, #1357]	; 0x54d
     ce4:	e21440ff 	ands	r4, r4, #255	; 0xff
     ce8:	e58d4034 	str	r4, [sp, #52]	; 0x34
     cec:	1a000152 	bne	123c <Len_IRQ_Stack+0x23c>
     cf0:	e59db020 	ldr	fp, [sp, #32]
     cf4:	e35b0000 	cmp	fp, #0
     cf8:	0a00014d 	beq	1234 <Len_IRQ_Stack+0x234>
     cfc:	e59d4028 	ldr	r4, [sp, #40]	; 0x28
     d00:	e3540000 	cmp	r4, #0
     d04:	e59db018 	ldr	fp, [sp, #24]
     d08:	13a0b000 	movne	fp, #0
     d0c:	e35b0000 	cmp	fp, #0
     d10:	0a0002bf 	beq	1814 <Len_IRQ_Stack+0x814>
     d14:	e59c4530 	ldr	r4, [ip, #1328]	; 0x530
     d18:	e58d4028 	str	r4, [sp, #40]	; 0x28
     d1c:	e5dc454e 	ldrb	r4, [ip, #1358]	; 0x54e
     d20:	e3540000 	cmp	r4, #0
     d24:	0a0000ce 	beq	1064 <Len_IRQ_Stack+0x64>
     d28:	e5dc454f 	ldrb	r4, [ip, #1359]	; 0x54f
     d2c:	e3540000 	cmp	r4, #0
     d30:	1a0000d9 	bne	109c <Len_IRQ_Stack+0x9c>
     d34:	e59d4028 	ldr	r4, [sp, #40]	; 0x28
     d38:	e3540000 	cmp	r4, #0
     d3c:	e59dc018 	ldr	ip, [sp, #24]
     d40:	13a0c000 	movne	ip, #0
     d44:	e35c0000 	cmp	ip, #0
     d48:	0a0003c7 	beq	1c6c <Len_IRQ_Stack+0xc6c>
     d4c:	e083c00e 	add	ip, r3, lr
     d50:	e08ec08c 	add	ip, lr, ip, lsl #1
     d54:	e08ac10c 	add	ip, sl, ip, lsl #2
     d58:	e59c4538 	ldr	r4, [ip, #1336]	; 0x538
     d5c:	e5dcc550 	ldrb	ip, [ip, #1360]	; 0x550
     d60:	e35c0000 	cmp	ip, #0
     d64:	e58d4028 	str	r4, [sp, #40]	; 0x28
     d68:	1affff44 	bne	a80 <runtime+0x62c>
     d6c:	e59d4028 	ldr	r4, [sp, #40]	; 0x28
     d70:	e3540000 	cmp	r4, #0
     d74:	e59dc018 	ldr	ip, [sp, #24]
     d78:	13a0c000 	movne	ip, #0
     d7c:	e35c0000 	cmp	ip, #0
     d80:	0a0003bc 	beq	1c78 <Len_IRQ_Stack+0xc78>
     d84:	e083c00e 	add	ip, r3, lr
     d88:	e08ec08c 	add	ip, lr, ip, lsl #1
     d8c:	e08ac10c 	add	ip, sl, ip, lsl #2
     d90:	e59cc53c 	ldr	ip, [ip, #1340]	; 0x53c
     d94:	eaffff39 	b	a80 <runtime+0x62c>
     d98:	e083c00e 	add	ip, r3, lr
     d9c:	e08ec08c 	add	ip, lr, ip, lsl #1
     da0:	e08ac10c 	add	ip, sl, ip, lsl #2
     da4:	e5dc4395 	ldrb	r4, [ip, #917]	; 0x395
     da8:	e21440ff 	ands	r4, r4, #255	; 0xff
     dac:	0a000003 	beq	dc0 <runtime+0x96c>
     db0:	e5dcc396 	ldrb	ip, [ip, #918]	; 0x396
     db4:	e35c0000 	cmp	ip, #0
     db8:	1affff30 	bne	a80 <runtime+0x62c>
     dbc:	e3a04001 	mov	r4, #1
     dc0:	e083c00e 	add	ip, r3, lr
     dc4:	e08ec08c 	add	ip, lr, ip, lsl #1
     dc8:	e08ac10c 	add	ip, sl, ip, lsl #2
     dcc:	e591b0ec 	ldr	fp, [r1, #236]	; 0xec
     dd0:	e5cc4394 	strb	r4, [ip, #916]	; 0x394
     dd4:	e35b0000 	cmp	fp, #0
     dd8:	15d1c110 	ldrbne	ip, [r1, #272]	; 0x110
     ddc:	15914118 	ldrne	r4, [r1, #280]	; 0x118
     de0:	128cc002 	addne	ip, ip, #2
     de4:	1794c10c 	ldrne	ip, [r4, ip, lsl #2]
     de8:	0598c000 	ldreq	ip, [r8]
     dec:	e58dc020 	str	ip, [sp, #32]
     df0:	e083c00e 	add	ip, r3, lr
     df4:	e08ec08c 	add	ip, lr, ip, lsl #1
     df8:	e08ab10c 	add	fp, sl, ip, lsl #2
     dfc:	e5db4394 	ldrb	r4, [fp, #916]	; 0x394
     e00:	e08cc004 	add	ip, ip, r4
     e04:	e28cc0de 	add	ip, ip, #222	; 0xde
     e08:	e79ac10c 	ldr	ip, [sl, ip, lsl #2]
     e0c:	e58dc028 	str	ip, [sp, #40]	; 0x28
     e10:	e5dbc38c 	ldrb	ip, [fp, #908]	; 0x38c
     e14:	e1a04a0e 	lsl	r4, lr, #20
     e18:	e35c0000 	cmp	ip, #0
     e1c:	e58db018 	str	fp, [sp, #24]
     e20:	e1a0b004 	mov	fp, r4
     e24:	e2844423 	add	r4, r4, #587202560	; 0x23000000
     e28:	1a000251 	bne	1774 <Len_IRQ_Stack+0x774>
     e2c:	e3a0c000 	mov	ip, #0
     e30:	e59db020 	ldr	fp, [sp, #32]
     e34:	e58db020 	str	fp, [sp, #32]
     e38:	e58dc024 	str	ip, [sp, #36]	; 0x24
     e3c:	e59fc554 	ldr	ip, [pc, #1364]	; 1398 <Len_IRQ_Stack+0x398>
     e40:	e096c00c 	adds	ip, r6, ip
     e44:	e58dc060 	str	ip, [sp, #96]	; 0x60
     e48:	e59dc004 	ldr	ip, [sp, #4]
     e4c:	e2acc000 	adc	ip, ip, #0
     e50:	e58dc064 	str	ip, [sp, #100]	; 0x64
     e54:	e28dc020 	add	ip, sp, #32
     e58:	e89c1800 	ldm	ip, {fp, ip}
     e5c:	e584b008 	str	fp, [r4, #8]
     e60:	e584c00c 	str	ip, [r4, #12]
     e64:	e28dc060 	add	ip, sp, #96	; 0x60
     e68:	e89c1800 	ldm	ip, {fp, ip}
     e6c:	e3a08001 	mov	r8, #1
     e70:	e584b010 	str	fp, [r4, #16]
     e74:	e584c014 	str	ip, [r4, #20]
     e78:	e3a0c801 	mov	ip, #65536	; 0x10000
     e7c:	e59db018 	ldr	fp, [sp, #24]
     e80:	e584c018 	str	ip, [r4, #24]
     e84:	e5c48007 	strb	r8, [r4, #7]
     e88:	e5cb838c 	strb	r8, [fp, #908]	; 0x38c
     e8c:	e083c00e 	add	ip, r3, lr
     e90:	e08ec08c 	add	ip, lr, ip, lsl #1
     e94:	e08ac10c 	add	ip, sl, ip, lsl #2
     e98:	e5dcc38c 	ldrb	ip, [ip, #908]	; 0x38c
     e9c:	e35c0003 	cmp	ip, #3
     ea0:	1afffef6 	bne	a80 <runtime+0x62c>
     ea4:	eaffff50 	b	bec <runtime+0x798>
     ea8:	e083c00e 	add	ip, r3, lr
     eac:	e08ec08c 	add	ip, lr, ip, lsl #1
     eb0:	e08ac10c 	add	ip, sl, ip, lsl #2
     eb4:	e5dc4a75 	ldrb	r4, [ip, #2677]	; 0xa75
     eb8:	e21440ff 	ands	r4, r4, #255	; 0xff
     ebc:	0a000003 	beq	ed0 <runtime+0xa7c>
     ec0:	e5dcca76 	ldrb	ip, [ip, #2678]	; 0xa76
     ec4:	e35c0000 	cmp	ip, #0
     ec8:	1afffeec 	bne	a80 <runtime+0x62c>
     ecc:	e3a04001 	mov	r4, #1
     ed0:	e083c00e 	add	ip, r3, lr
     ed4:	e08ec08c 	add	ip, lr, ip, lsl #1
     ed8:	e08ac10c 	add	ip, sl, ip, lsl #2
     edc:	e591b0ec 	ldr	fp, [r1, #236]	; 0xec
     ee0:	e5cc4a74 	strb	r4, [ip, #2676]	; 0xa74
     ee4:	e35b0000 	cmp	fp, #0
     ee8:	15d1c110 	ldrbne	ip, [r1, #272]	; 0x110
     eec:	15914118 	ldrne	r4, [r1, #280]	; 0x118
     ef0:	128cc002 	addne	ip, ip, #2
     ef4:	1794c10c 	ldrne	ip, [r4, ip, lsl #2]
     ef8:	0598c000 	ldreq	ip, [r8]
     efc:	e58dc020 	str	ip, [sp, #32]
     f00:	e083c00e 	add	ip, r3, lr
     f04:	e08ec08c 	add	ip, lr, ip, lsl #1
     f08:	e08a810c 	add	r8, sl, ip, lsl #2
     f0c:	e5d84a74 	ldrb	r4, [r8, #2676]	; 0xa74
     f10:	e08cc004 	add	ip, ip, r4
     f14:	e28ccfa5 	add	ip, ip, #660	; 0x294
     f18:	e28cc002 	add	ip, ip, #2
     f1c:	e79ac10c 	ldr	ip, [sl, ip, lsl #2]
     f20:	e5d84a6c 	ldrb	r4, [r8, #2668]	; 0xa6c
     f24:	e58dc028 	str	ip, [sp, #40]	; 0x28
     f28:	e3540000 	cmp	r4, #0
     f2c:	e1a0ca0e 	lsl	ip, lr, #20
     f30:	e58d8018 	str	r8, [sp, #24]
     f34:	e28c8427 	add	r8, ip, #654311424	; 0x27000000
     f38:	1a0001f4 	bne	1710 <Len_IRQ_Stack+0x710>
     f3c:	e3a0c000 	mov	ip, #0
     f40:	e3a04001 	mov	r4, #1
     f44:	e59db020 	ldr	fp, [sp, #32]
     f48:	e58db020 	str	fp, [sp, #32]
     f4c:	e58dc024 	str	ip, [sp, #36]	; 0x24
     f50:	e59fc444 	ldr	ip, [pc, #1092]	; 139c <Len_IRQ_Stack+0x39c>
     f54:	e096c00c 	adds	ip, r6, ip
     f58:	e58dc058 	str	ip, [sp, #88]	; 0x58
     f5c:	e59dc004 	ldr	ip, [sp, #4]
     f60:	e2acc000 	adc	ip, ip, #0
     f64:	e58dc05c 	str	ip, [sp, #92]	; 0x5c
     f68:	e28dc020 	add	ip, sp, #32
     f6c:	e89c1800 	ldm	ip, {fp, ip}
     f70:	e588b008 	str	fp, [r8, #8]
     f74:	e588c00c 	str	ip, [r8, #12]
     f78:	e28dc058 	add	ip, sp, #88	; 0x58
     f7c:	e89c1800 	ldm	ip, {fp, ip}
     f80:	e588b010 	str	fp, [r8, #16]
     f84:	e588c014 	str	ip, [r8, #20]
     f88:	e59fc410 	ldr	ip, [pc, #1040]	; 13a0 <Len_IRQ_Stack+0x3a0>
     f8c:	e588c018 	str	ip, [r8, #24]
     f90:	e5c84007 	strb	r4, [r8, #7]
     f94:	e59d8018 	ldr	r8, [sp, #24]
     f98:	e5c84a6c 	strb	r4, [r8, #2668]	; 0xa6c
     f9c:	e083c00e 	add	ip, r3, lr
     fa0:	e08ec08c 	add	ip, lr, ip, lsl #1
     fa4:	e08ac10c 	add	ip, sl, ip, lsl #2
     fa8:	e5dcca6c 	ldrb	ip, [ip, #2668]	; 0xa6c
     fac:	e35c0003 	cmp	ip, #3
     fb0:	1afffeb2 	bne	a80 <runtime+0x62c>
     fb4:	eaffff0c 	b	bec <runtime+0x798>
     fb8:	e591c0ec 	ldr	ip, [r1, #236]	; 0xec
     fbc:	e35c0000 	cmp	ip, #0
     fc0:	e083c00e 	add	ip, r3, lr
     fc4:	e08ec08c 	add	ip, lr, ip, lsl #1
     fc8:	0a0000bc 	beq	12c0 <Len_IRQ_Stack+0x2c0>
     fcc:	e1a0410c 	lsl	r4, ip, #2
     fd0:	e58dc018 	str	ip, [sp, #24]
     fd4:	e59dc014 	ldr	ip, [sp, #20]
     fd8:	e591b118 	ldr	fp, [r1, #280]	; 0x118
     fdc:	e08ac00c 	add	ip, sl, ip
     fe0:	e08cc004 	add	ip, ip, r4
     fe4:	e15b000c 	cmp	fp, ip
     fe8:	e5d1c110 	ldrb	ip, [r1, #272]	; 0x110
     fec:	0a000104 	beq	1404 <Len_IRQ_Stack+0x404>
     ff0:	e28cc002 	add	ip, ip, #2
     ff4:	e79bc10c 	ldr	ip, [fp, ip, lsl #2]
     ff8:	e08a4004 	add	r4, sl, r4
     ffc:	e58dc020 	str	ip, [sp, #32]
    1000:	e5d4c1dd 	ldrb	ip, [r4, #477]	; 0x1dd
    1004:	e35c0000 	cmp	ip, #0
    1008:	0a0000be 	beq	1308 <Len_IRQ_Stack+0x308>
    100c:	e5d4c1de 	ldrb	ip, [r4, #478]	; 0x1de
    1010:	e35c0000 	cmp	ip, #0
    1014:	1a00018b 	bne	1648 <Len_IRQ_Stack+0x648>
    1018:	e083c00e 	add	ip, r3, lr
    101c:	e08ec08c 	add	ip, lr, ip, lsl #1
    1020:	e08ac10c 	add	ip, sl, ip, lsl #2
    1024:	e59cc1c4 	ldr	ip, [ip, #452]	; 0x1c4
    1028:	e58dc018 	str	ip, [sp, #24]
    102c:	e083c00e 	add	ip, r3, lr
    1030:	e08ec08c 	add	ip, lr, ip, lsl #1
    1034:	e08ac10c 	add	ip, sl, ip, lsl #2
    1038:	e5dcc1df 	ldrb	ip, [ip, #479]	; 0x1df
    103c:	e35c0000 	cmp	ip, #0
    1040:	1afffe8e 	bne	a80 <runtime+0x62c>
    1044:	e59dc018 	ldr	ip, [sp, #24]
    1048:	e35c0000 	cmp	ip, #0
    104c:	1a000304 	bne	1c64 <Len_IRQ_Stack+0xc64>
    1050:	e083c00e 	add	ip, r3, lr
    1054:	e08ec08c 	add	ip, lr, ip, lsl #1
    1058:	e08ac10c 	add	ip, sl, ip, lsl #2
    105c:	e59cc1c8 	ldr	ip, [ip, #456]	; 0x1c8
    1060:	eafffe86 	b	a80 <runtime+0x62c>
    1064:	e59d4028 	ldr	r4, [sp, #40]	; 0x28
    1068:	e3540000 	cmp	r4, #0
    106c:	e59dc018 	ldr	ip, [sp, #24]
    1070:	13a0c000 	movne	ip, #0
    1074:	e35c0000 	cmp	ip, #0
    1078:	0a0001e3 	beq	180c <Len_IRQ_Stack+0x80c>
    107c:	e083c00e 	add	ip, r3, lr
    1080:	e08ec08c 	add	ip, lr, ip, lsl #1
    1084:	e08ac10c 	add	ip, sl, ip, lsl #2
    1088:	e59c4534 	ldr	r4, [ip, #1332]	; 0x534
    108c:	e58d4028 	str	r4, [sp, #40]	; 0x28
    1090:	e5dc454f 	ldrb	r4, [ip, #1359]	; 0x54f
    1094:	e3540000 	cmp	r4, #0
    1098:	0affff25 	beq	d34 <runtime+0x8e0>
    109c:	e5dcc550 	ldrb	ip, [ip, #1360]	; 0x550
    10a0:	e35c0000 	cmp	ip, #0
    10a4:	0affff30 	beq	d6c <runtime+0x918>
    10a8:	eafffe74 	b	a80 <runtime+0x62c>
    10ac:	e591c008 	ldr	ip, [r1, #8]
    10b0:	e35c0000 	cmp	ip, #0
    10b4:	dafffe78 	ble	a9c <runtime+0x648>
    10b8:	e1a08004 	mov	r8, r4
    10bc:	e281400c 	add	r4, r1, #12
    10c0:	e084c10c 	add	ip, r4, ip, lsl #2
    10c4:	e58d2018 	str	r2, [sp, #24]
    10c8:	e58de020 	str	lr, [sp, #32]
    10cc:	e58d5028 	str	r5, [sp, #40]	; 0x28
    10d0:	e59db004 	ldr	fp, [sp, #4]
    10d4:	ea00000d 	b	1110 <Len_IRQ_Stack+0x110>
    10d8:	e592e0dc 	ldr	lr, [r2, #220]	; 0xdc
    10dc:	e151000e 	cmp	r1, lr
    10e0:	0a00001b 	beq	1154 <Len_IRQ_Stack+0x154>
    10e4:	e592e0e0 	ldr	lr, [r2, #224]	; 0xe0
    10e8:	e151000e 	cmp	r1, lr
    10ec:	0a000025 	beq	1188 <Len_IRQ_Stack+0x188>
    10f0:	e592e0e4 	ldr	lr, [r2, #228]	; 0xe4
    10f4:	e151000e 	cmp	r1, lr
    10f8:	0a00002f 	beq	11bc <Len_IRQ_Stack+0x1bc>
    10fc:	e592e0e8 	ldr	lr, [r2, #232]	; 0xe8
    1100:	e151000e 	cmp	r1, lr
    1104:	0a000039 	beq	11f0 <Len_IRQ_Stack+0x1f0>
    1108:	e154000c 	cmp	r4, ip
    110c:	0a000043 	beq	1220 <Len_IRQ_Stack+0x220>
    1110:	e5b42004 	ldr	r2, [r4, #4]!
    1114:	e592e0d8 	ldr	lr, [r2, #216]	; 0xd8
    1118:	e151000e 	cmp	r1, lr
    111c:	1affffed 	bne	10d8 <Len_IRQ_Stack+0xd8>
    1120:	e592e0ec 	ldr	lr, [r2, #236]	; 0xec
    1124:	e35e0000 	cmp	lr, #0
    1128:	0affffea 	beq	10d8 <Len_IRQ_Stack+0xd8>
    112c:	e08ae008 	add	lr, sl, r8
    1130:	e5de5024 	ldrb	r5, [lr, #36]	; 0x24
    1134:	e08ee005 	add	lr, lr, r5
    1138:	e5de5025 	ldrb	r5, [lr, #37]	; 0x25
    113c:	e2855001 	add	r5, r5, #1
    1140:	e20550ff 	and	r5, r5, #255	; 0xff
    1144:	e5ce5025 	strb	r5, [lr, #37]	; 0x25
    1148:	e592e0dc 	ldr	lr, [r2, #220]	; 0xdc
    114c:	e151000e 	cmp	r1, lr
    1150:	1affffe3 	bne	10e4 <Len_IRQ_Stack+0xe4>
    1154:	e592e0f0 	ldr	lr, [r2, #240]	; 0xf0
    1158:	e35e0000 	cmp	lr, #0
    115c:	0affffe0 	beq	10e4 <Len_IRQ_Stack+0xe4>
    1160:	e08ae008 	add	lr, sl, r8
    1164:	e5de5024 	ldrb	r5, [lr, #36]	; 0x24
    1168:	e08ee005 	add	lr, lr, r5
    116c:	e5de5025 	ldrb	r5, [lr, #37]	; 0x25
    1170:	e2855001 	add	r5, r5, #1
    1174:	e20550ff 	and	r5, r5, #255	; 0xff
    1178:	e5ce5025 	strb	r5, [lr, #37]	; 0x25
    117c:	e592e0e0 	ldr	lr, [r2, #224]	; 0xe0
    1180:	e151000e 	cmp	r1, lr
    1184:	1affffd9 	bne	10f0 <Len_IRQ_Stack+0xf0>
    1188:	e592e0f4 	ldr	lr, [r2, #244]	; 0xf4
    118c:	e35e0000 	cmp	lr, #0
    1190:	0affffd6 	beq	10f0 <Len_IRQ_Stack+0xf0>
    1194:	e08ae008 	add	lr, sl, r8
    1198:	e5de5024 	ldrb	r5, [lr, #36]	; 0x24
    119c:	e08ee005 	add	lr, lr, r5
    11a0:	e5de5025 	ldrb	r5, [lr, #37]	; 0x25
    11a4:	e2855001 	add	r5, r5, #1
    11a8:	e20550ff 	and	r5, r5, #255	; 0xff
    11ac:	e5ce5025 	strb	r5, [lr, #37]	; 0x25
    11b0:	e592e0e4 	ldr	lr, [r2, #228]	; 0xe4
    11b4:	e151000e 	cmp	r1, lr
    11b8:	1affffcf 	bne	10fc <Len_IRQ_Stack+0xfc>
    11bc:	e592e0f8 	ldr	lr, [r2, #248]	; 0xf8
    11c0:	e35e0000 	cmp	lr, #0
    11c4:	0affffcc 	beq	10fc <Len_IRQ_Stack+0xfc>
    11c8:	e08ae008 	add	lr, sl, r8
    11cc:	e5de5024 	ldrb	r5, [lr, #36]	; 0x24
    11d0:	e08ee005 	add	lr, lr, r5
    11d4:	e5de5025 	ldrb	r5, [lr, #37]	; 0x25
    11d8:	e2855001 	add	r5, r5, #1
    11dc:	e20550ff 	and	r5, r5, #255	; 0xff
    11e0:	e5ce5025 	strb	r5, [lr, #37]	; 0x25
    11e4:	e592e0e8 	ldr	lr, [r2, #232]	; 0xe8
    11e8:	e151000e 	cmp	r1, lr
    11ec:	1affffc5 	bne	1108 <Len_IRQ_Stack+0x108>
    11f0:	e59220fc 	ldr	r2, [r2, #252]	; 0xfc
    11f4:	e3520000 	cmp	r2, #0
    11f8:	0affffc2 	beq	1108 <Len_IRQ_Stack+0x108>
    11fc:	e08a2008 	add	r2, sl, r8
    1200:	e5d2e024 	ldrb	lr, [r2, #36]	; 0x24
    1204:	e082200e 	add	r2, r2, lr
    1208:	e5d2e025 	ldrb	lr, [r2, #37]	; 0x25
    120c:	e28ee001 	add	lr, lr, #1
    1210:	e20ee0ff 	and	lr, lr, #255	; 0xff
    1214:	e154000c 	cmp	r4, ip
    1218:	e5c2e025 	strb	lr, [r2, #37]	; 0x25
    121c:	1affffbb 	bne	1110 <Len_IRQ_Stack+0x110>
    1220:	e59d2018 	ldr	r2, [sp, #24]
    1224:	e59de020 	ldr	lr, [sp, #32]
    1228:	e59d5028 	ldr	r5, [sp, #40]	; 0x28
    122c:	e58db004 	str	fp, [sp, #4]
    1230:	eafffe19 	b	a9c <runtime+0x648>
    1234:	e59cc530 	ldr	ip, [ip, #1328]	; 0x530
    1238:	e58dc020 	str	ip, [sp, #32]
    123c:	e083c00e 	add	ip, r3, lr
    1240:	e08ec08c 	add	ip, lr, ip, lsl #1
    1244:	e08ac10c 	add	ip, sl, ip, lsl #2
    1248:	e5dc454e 	ldrb	r4, [ip, #1358]	; 0x54e
    124c:	e3540000 	cmp	r4, #0
    1250:	1a000004 	bne	1268 <Len_IRQ_Stack+0x268>
    1254:	e59d4020 	ldr	r4, [sp, #32]
    1258:	e3540000 	cmp	r4, #0
    125c:	1affff80 	bne	1064 <Len_IRQ_Stack+0x64>
    1260:	e59cc534 	ldr	ip, [ip, #1332]	; 0x534
    1264:	e58dc020 	str	ip, [sp, #32]
    1268:	e083c00e 	add	ip, r3, lr
    126c:	e08ec08c 	add	ip, lr, ip, lsl #1
    1270:	e08ac10c 	add	ip, sl, ip, lsl #2
    1274:	e5dc454f 	ldrb	r4, [ip, #1359]	; 0x54f
    1278:	e3540000 	cmp	r4, #0
    127c:	1a000004 	bne	1294 <Len_IRQ_Stack+0x294>
    1280:	e59d4020 	ldr	r4, [sp, #32]
    1284:	e3540000 	cmp	r4, #0
    1288:	1afffea9 	bne	d34 <runtime+0x8e0>
    128c:	e59cc538 	ldr	ip, [ip, #1336]	; 0x538
    1290:	e58dc020 	str	ip, [sp, #32]
    1294:	e083c00e 	add	ip, r3, lr
    1298:	e08ec08c 	add	ip, lr, ip, lsl #1
    129c:	e08ac10c 	add	ip, sl, ip, lsl #2
    12a0:	e5dc4550 	ldrb	r4, [ip, #1360]	; 0x550
    12a4:	e3540000 	cmp	r4, #0
    12a8:	1afffdf4 	bne	a80 <runtime+0x62c>
    12ac:	e59d4020 	ldr	r4, [sp, #32]
    12b0:	e3540000 	cmp	r4, #0
    12b4:	059cc53c 	ldreq	ip, [ip, #1340]	; 0x53c
    12b8:	0afffdf0 	beq	a80 <runtime+0x62c>
    12bc:	eafffeaa 	b	d6c <runtime+0x918>
    12c0:	e08ac10c 	add	ip, sl, ip, lsl #2
    12c4:	e5dc41dd 	ldrb	r4, [ip, #477]	; 0x1dd
    12c8:	e3540000 	cmp	r4, #0
    12cc:	e5984000 	ldr	r4, [r8]
    12d0:	e58d4020 	str	r4, [sp, #32]
    12d4:	0a00000b 	beq	1308 <Len_IRQ_Stack+0x308>
    12d8:	e5dc41de 	ldrb	r4, [ip, #478]	; 0x1de
    12dc:	e3540000 	cmp	r4, #0
    12e0:	0affff4c 	beq	1018 <Len_IRQ_Stack+0x18>
    12e4:	e5dcc1df 	ldrb	ip, [ip, #479]	; 0x1df
    12e8:	e35c0000 	cmp	ip, #0
    12ec:	0affff57 	beq	1050 <Len_IRQ_Stack+0x50>
    12f0:	eafffde2 	b	a80 <runtime+0x62c>
    12f4:	e58dc020 	str	ip, [sp, #32]
    12f8:	e598c000 	ldr	ip, [r8]
    12fc:	e58dc03c 	str	ip, [sp, #60]	; 0x3c
    1300:	eafffe5d 	b	c7c <runtime+0x828>
    1304:	e58dc020 	str	ip, [sp, #32]
    1308:	e083c00e 	add	ip, r3, lr
    130c:	e08ec08c 	add	ip, lr, ip, lsl #1
    1310:	e08ac10c 	add	ip, sl, ip, lsl #2
    1314:	e59cc1c0 	ldr	ip, [ip, #448]	; 0x1c0
    1318:	e58dc018 	str	ip, [sp, #24]
    131c:	e083c00e 	add	ip, r3, lr
    1320:	e08ec08c 	add	ip, lr, ip, lsl #1
    1324:	e08ac10c 	add	ip, sl, ip, lsl #2
    1328:	e5dcc1de 	ldrb	ip, [ip, #478]	; 0x1de
    132c:	e35c0000 	cmp	ip, #0
    1330:	1affff3d 	bne	102c <Len_IRQ_Stack+0x2c>
    1334:	e59dc018 	ldr	ip, [sp, #24]
    1338:	e35c0000 	cmp	ip, #0
    133c:	0affff35 	beq	1018 <Len_IRQ_Stack+0x18>
    1340:	e3a04001 	mov	r4, #1
    1344:	ea00003d 	b	1440 <Len_IRQ_Stack+0x440>
    1348:	e3a0c001 	mov	ip, #1
    134c:	e58dc018 	str	ip, [sp, #24]
    1350:	eafffe38 	b	c38 <runtime+0x7e4>
    1354:	e58dc028 	str	ip, [sp, #40]	; 0x28
    1358:	e598c004 	ldr	ip, [r8, #4]
    135c:	e58dc040 	str	ip, [sp, #64]	; 0x40
    1360:	eafffe5b 	b	cd4 <runtime+0x880>
    1364:	e08bc00c 	add	ip, fp, ip
    1368:	e28ccf53 	add	ip, ip, #332	; 0x14c
    136c:	e79ac10c 	ldr	ip, [sl, ip, lsl #2]
    1370:	e58dc020 	str	ip, [sp, #32]
    1374:	e3a0c000 	mov	ip, #0
    1378:	e58dc03c 	str	ip, [sp, #60]	; 0x3c
    137c:	eafffe3e 	b	c7c <runtime+0x828>
    1380:	80000004 	andhi	r0, r0, r4
    1384:	800000ac 	andhi	r0, r0, ip, lsr #1
    1388:	80000a98 	mulhi	r0, r8, sl
    138c:	00000c08 	andeq	r0, r0, r8, lsl #24
    1390:	80000a90 	mulhi	r0, r0, sl
    1394:	25000020 	strcs	r0, [r0, #-32]	; 0xffffffe0
    1398:	23000020 	movwcs	r0, #32
    139c:	27000020 	strcs	r0, [r0, -r0, lsr #32]
    13a0:	00004204 	andeq	r4, r0, r4, lsl #4
    13a4:	26000020 	strcs	r0, [r0], -r0, lsr #32
    13a8:	00006df0 	strdeq	r6, [r0], -r0
    13ac:	230180a8 	movwcs	r8, #4264	; 0x10a8
    13b0:	230180b8 	movwcs	r8, #4280	; 0x10b8
    13b4:	230180c8 	movwcs	r8, #4296	; 0x10c8
    13b8:	2701c238 	smladxcs	r1, r8, r2, ip
    13bc:	2701c248 	strcs	ip, [r1, -r8, asr #4]
    13c0:	2502c028 	strcs	ip, [r2, #-40]	; 0xffffffd8
    13c4:	2502c030 	strcs	ip, [r2, #-48]	; 0xffffffd0
    13c8:	26030028 	strcs	r0, [r3], -r8, lsr #32
    13cc:	22030098 	andcs	r0, r3, #152	; 0x98
    13d0:	220300a8 	andcs	r0, r3, #168	; 0xa8
    13d4:	220300b0 	andcs	r0, r3, #176	; 0xb0
    13d8:	220300c0 	andcs	r0, r3, #192	; 0xc0
    13dc:	220300c8 	andcs	r0, r3, #200	; 0xc8
    13e0:	24040028 	strcs	r0, [r4], #-40	; 0xffffffd8
    13e4:	24040038 	strcs	r0, [r4], #-56	; 0xffffffc8
    13e8:	24040050 	strcs	r0, [r4], #-80	; 0xffffffb0
    13ec:	24040058 	strcs	r0, [r4], #-88	; 0xffffffa8
    13f0:	22030020 	andcs	r0, r3, #32
    13f4:	21000020 	tstcs	r0, r0, lsr #32
    13f8:	21010020 	tstcs	r1, r0, lsr #32
    13fc:	21040028 	tstcs	r4, r8, lsr #32
    1400:	21040038 	tstcs	r4, r8, lsr r0
    1404:	e59db018 	ldr	fp, [sp, #24]
    1408:	e08bc00c 	add	ip, fp, ip
    140c:	e28cc070 	add	ip, ip, #112	; 0x70
    1410:	e79ac10c 	ldr	ip, [sl, ip, lsl #2]
    1414:	e08a4004 	add	r4, sl, r4
    1418:	e58dc018 	str	ip, [sp, #24]
    141c:	e5d4c1dd 	ldrb	ip, [r4, #477]	; 0x1dd
    1420:	e21c40ff 	ands	r4, ip, #255	; 0xff
    1424:	13a0c000 	movne	ip, #0
    1428:	158dc020 	strne	ip, [sp, #32]
    142c:	1affffba 	bne	131c <Len_IRQ_Stack+0x31c>
    1430:	e59dc018 	ldr	ip, [sp, #24]
    1434:	e35c0000 	cmp	ip, #0
    1438:	158d4020 	strne	r4, [sp, #32]
    143c:	0affffb0 	beq	1304 <Len_IRQ_Stack+0x304>
    1440:	e083c00e 	add	ip, r3, lr
    1444:	e08ec08c 	add	ip, lr, ip, lsl #1
    1448:	e08ab10c 	add	fp, sl, ip, lsl #2
    144c:	e58dc028 	str	ip, [sp, #40]	; 0x28
    1450:	e598c004 	ldr	ip, [r8, #4]
    1454:	e5cb41dc 	strb	r4, [fp, #476]	; 0x1dc
    1458:	e58dc03c 	str	ip, [sp, #60]	; 0x3c
    145c:	e5db41dc 	ldrb	r4, [fp, #476]	; 0x1dc
    1460:	e59dc028 	ldr	ip, [sp, #40]	; 0x28
    1464:	e08cc004 	add	ip, ip, r4
    1468:	e28cc070 	add	ip, ip, #112	; 0x70
    146c:	e79ac10c 	ldr	ip, [sl, ip, lsl #2]
    1470:	e58dc038 	str	ip, [sp, #56]	; 0x38
    1474:	e5dbc1d4 	ldrb	ip, [fp, #468]	; 0x1d4
    1478:	e35c0000 	cmp	ip, #0
    147c:	e598c008 	ldr	ip, [r8, #8]
    1480:	e58dc028 	str	ip, [sp, #40]	; 0x28
    1484:	e598c00c 	ldr	ip, [r8, #12]
    1488:	e58dc034 	str	ip, [sp, #52]	; 0x34
    148c:	e5d8c010 	ldrb	ip, [r8, #16]
    1490:	e1a04a0e 	lsl	r4, lr, #20
    1494:	e58d404c 	str	r4, [sp, #76]	; 0x4c
    1498:	e58dc040 	str	ip, [sp, #64]	; 0x40
    149c:	e2844422 	add	r4, r4, #570425344	; 0x22000000
    14a0:	1a000004 	bne	14b8 <Len_IRQ_Stack+0x4b8>
    14a4:	e3a08001 	mov	r8, #1
    14a8:	e59dc020 	ldr	ip, [sp, #32]
    14ac:	e35c0000 	cmp	ip, #0
    14b0:	e5cb81d4 	strb	r8, [fp, #468]	; 0x1d4
    14b4:	1a0001b8 	bne	1b9c <Len_IRQ_Stack+0xb9c>
    14b8:	e083c00e 	add	ip, r3, lr
    14bc:	e08ec08c 	add	ip, lr, ip, lsl #1
    14c0:	e08a810c 	add	r8, sl, ip, lsl #2
    14c4:	e5d8c1d4 	ldrb	ip, [r8, #468]	; 0x1d4
    14c8:	e20cc0ff 	and	ip, ip, #255	; 0xff
    14cc:	e35c0001 	cmp	ip, #1
    14d0:	e58dc020 	str	ip, [sp, #32]
    14d4:	0a0001c4 	beq	1bec <Len_IRQ_Stack+0xbec>
    14d8:	e5d8c1d4 	ldrb	ip, [r8, #468]	; 0x1d4
    14dc:	e35c0002 	cmp	ip, #2
    14e0:	0a000175 	beq	1abc <Len_IRQ_Stack+0xabc>
    14e4:	e5d8c1d4 	ldrb	ip, [r8, #468]	; 0x1d4
    14e8:	e35c0003 	cmp	ip, #3
    14ec:	1a00000d 	bne	1528 <Len_IRQ_Stack+0x528>
    14f0:	e3a0c000 	mov	ip, #0
    14f4:	e59db038 	ldr	fp, [sp, #56]	; 0x38
    14f8:	e584b008 	str	fp, [r4, #8]
    14fc:	e584c00c 	str	ip, [r4, #12]
    1500:	e3a0c000 	mov	ip, #0
    1504:	e3a0b000 	mov	fp, #0
    1508:	e584b010 	str	fp, [r4, #16]
    150c:	e584c014 	str	ip, [r4, #20]
    1510:	e3a0c801 	mov	ip, #65536	; 0x10000
    1514:	e584c018 	str	ip, [r4, #24]
    1518:	e3a0c001 	mov	ip, #1
    151c:	e5c4c007 	strb	ip, [r4, #7]
    1520:	e3a0c004 	mov	ip, #4
    1524:	e5c8c1d4 	strb	ip, [r8, #468]	; 0x1d4
    1528:	e083c00e 	add	ip, r3, lr
    152c:	e08ec08c 	add	ip, lr, ip, lsl #1
    1530:	e08ac10c 	add	ip, sl, ip, lsl #2
    1534:	e5dcc1d4 	ldrb	ip, [ip, #468]	; 0x1d4
    1538:	e35c0003 	cmp	ip, #3
    153c:	1afffd4f 	bne	a80 <runtime+0x62c>
    1540:	eafffda9 	b	bec <runtime+0x798>
    1544:	e3a04001 	mov	r4, #1
    1548:	e083c00e 	add	ip, r3, lr
    154c:	e08ec08c 	add	ip, lr, ip, lsl #1
    1550:	e08ac10c 	add	ip, sl, ip, lsl #2
    1554:	e591b0ec 	ldr	fp, [r1, #236]	; 0xec
    1558:	e5cc48bc 	strb	r4, [ip, #2236]	; 0x8bc
    155c:	e35b0000 	cmp	fp, #0
    1560:	15d1c110 	ldrbne	ip, [r1, #272]	; 0x110
    1564:	15914118 	ldrne	r4, [r1, #280]	; 0x118
    1568:	128cc002 	addne	ip, ip, #2
    156c:	1794c10c 	ldrne	ip, [r4, ip, lsl #2]
    1570:	0598c000 	ldreq	ip, [r8]
    1574:	e58dc018 	str	ip, [sp, #24]
    1578:	e083c00e 	add	ip, r3, lr
    157c:	e08ec08c 	add	ip, lr, ip, lsl #1
    1580:	e08a810c 	add	r8, sl, ip, lsl #2
    1584:	e5d848bc 	ldrb	r4, [r8, #2236]	; 0x8bc
    1588:	e08cc004 	add	ip, ip, r4
    158c:	e28ccf8a 	add	ip, ip, #552	; 0x228
    1590:	e79ac10c 	ldr	ip, [sl, ip, lsl #2]
    1594:	e58dc020 	str	ip, [sp, #32]
    1598:	e5d8c8b4 	ldrb	ip, [r8, #2228]	; 0x8b4
    159c:	e1a04a0e 	lsl	r4, lr, #20
    15a0:	e35c0000 	cmp	ip, #0
    15a4:	e1a0b004 	mov	fp, r4
    15a8:	e2844426 	add	r4, r4, #637534208	; 0x26000000
    15ac:	1a000029 	bne	1658 <Len_IRQ_Stack+0x658>
    15b0:	e3a0c000 	mov	ip, #0
    15b4:	e59db018 	ldr	fp, [sp, #24]
    15b8:	e58db018 	str	fp, [sp, #24]
    15bc:	e58dc01c 	str	ip, [sp, #28]
    15c0:	e51fc224 	ldr	ip, [pc, #-548]	; 13a4 <Len_IRQ_Stack+0x3a4>
    15c4:	e096c00c 	adds	ip, r6, ip
    15c8:	e58dc080 	str	ip, [sp, #128]	; 0x80
    15cc:	e59dc004 	ldr	ip, [sp, #4]
    15d0:	e2acc000 	adc	ip, ip, #0
    15d4:	e58dc084 	str	ip, [sp, #132]	; 0x84
    15d8:	e28dc018 	add	ip, sp, #24
    15dc:	e89c1800 	ldm	ip, {fp, ip}
    15e0:	e584b008 	str	fp, [r4, #8]
    15e4:	e584c00c 	str	ip, [r4, #12]
    15e8:	e28dc080 	add	ip, sp, #128	; 0x80
    15ec:	e89c1800 	ldm	ip, {fp, ip}
    15f0:	e584b010 	str	fp, [r4, #16]
    15f4:	e584c014 	str	ip, [r4, #20]
    15f8:	e3a0c801 	mov	ip, #65536	; 0x10000
    15fc:	e584c018 	str	ip, [r4, #24]
    1600:	e3a0c001 	mov	ip, #1
    1604:	e5c4c007 	strb	ip, [r4, #7]
    1608:	e5c8c8b4 	strb	ip, [r8, #2228]	; 0x8b4
    160c:	e083c00e 	add	ip, r3, lr
    1610:	e08ec08c 	add	ip, lr, ip, lsl #1
    1614:	e08ac10c 	add	ip, sl, ip, lsl #2
    1618:	e5dcc8b4 	ldrb	ip, [ip, #2228]	; 0x8b4
    161c:	e35c0003 	cmp	ip, #3
    1620:	1afffd16 	bne	a80 <runtime+0x62c>
    1624:	eafffd70 	b	bec <runtime+0x798>
    1628:	e3a00000 	mov	r0, #0
    162c:	e3a01000 	mov	r1, #0
    1630:	e3a02000 	mov	r2, #0
    1634:	e3a03000 	mov	r3, #0
    1638:	ee410110 	mcr	1, 2, r0, cr1, cr0, {0}
    163c:	e28ddf6b 	add	sp, sp, #428	; 0x1ac
    1640:	e8bd4ff0 	pop	{r4, r5, r6, r7, r8, r9, sl, fp, lr}
    1644:	e12fff1e 	bx	lr
    1648:	e5d4c1df 	ldrb	ip, [r4, #479]	; 0x1df
    164c:	e35c0000 	cmp	ip, #0
    1650:	0afffe7e 	beq	1050 <Len_IRQ_Stack+0x50>
    1654:	eafffd09 	b	a80 <runtime+0x62c>
    1658:	e5d8c8b4 	ldrb	ip, [r8, #2228]	; 0x8b4
    165c:	e20cc0ff 	and	ip, ip, #255	; 0xff
    1660:	e35c0001 	cmp	ip, #1
    1664:	e58dc018 	str	ip, [sp, #24]
    1668:	0a0000e9 	beq	1a14 <Len_IRQ_Stack+0xa14>
    166c:	e5d8c8b4 	ldrb	ip, [r8, #2228]	; 0x8b4
    1670:	e35c0003 	cmp	ip, #3
    1674:	1affffe4 	bne	160c <Len_IRQ_Stack+0x60c>
    1678:	e3a0c000 	mov	ip, #0
    167c:	e59db020 	ldr	fp, [sp, #32]
    1680:	e584b008 	str	fp, [r4, #8]
    1684:	e584c00c 	str	ip, [r4, #12]
    1688:	e3a0c000 	mov	ip, #0
    168c:	e3a0b000 	mov	fp, #0
    1690:	e584b010 	str	fp, [r4, #16]
    1694:	e584c014 	str	ip, [r4, #20]
    1698:	e3a0c901 	mov	ip, #16384	; 0x4000
    169c:	e584c018 	str	ip, [r4, #24]
    16a0:	e3a0c001 	mov	ip, #1
    16a4:	e5c4c007 	strb	ip, [r4, #7]
    16a8:	e3a0c004 	mov	ip, #4
    16ac:	e5c8c8b4 	strb	ip, [r8, #2228]	; 0x8b4
    16b0:	eaffffd5 	b	160c <Len_IRQ_Stack+0x60c>
    16b4:	e5d8c6fc 	ldrb	ip, [r8, #1788]	; 0x6fc
    16b8:	e20cc0ff 	and	ip, ip, #255	; 0xff
    16bc:	e35c0001 	cmp	ip, #1
    16c0:	e58dc018 	str	ip, [sp, #24]
    16c4:	0a0000c6 	beq	19e4 <Len_IRQ_Stack+0x9e4>
    16c8:	e5d8c6fc 	ldrb	ip, [r8, #1788]	; 0x6fc
    16cc:	e35c0003 	cmp	ip, #3
    16d0:	1afffd3f 	bne	bd4 <runtime+0x780>
    16d4:	e3a0c000 	mov	ip, #0
    16d8:	e59db020 	ldr	fp, [sp, #32]
    16dc:	e584b008 	str	fp, [r4, #8]
    16e0:	e584c00c 	str	ip, [r4, #12]
    16e4:	e3a0c000 	mov	ip, #0
    16e8:	e3a0b000 	mov	fp, #0
    16ec:	e584b010 	str	fp, [r4, #16]
    16f0:	e584c014 	str	ip, [r4, #20]
    16f4:	e3a0c801 	mov	ip, #65536	; 0x10000
    16f8:	e584c018 	str	ip, [r4, #24]
    16fc:	e3a0c001 	mov	ip, #1
    1700:	e5c4c007 	strb	ip, [r4, #7]
    1704:	e3a0c004 	mov	ip, #4
    1708:	e5c8c6fc 	strb	ip, [r8, #1788]	; 0x6fc
    170c:	eafffd30 	b	bd4 <runtime+0x780>
    1710:	e59d4018 	ldr	r4, [sp, #24]
    1714:	e5d44a6c 	ldrb	r4, [r4, #2668]	; 0xa6c
    1718:	e20440ff 	and	r4, r4, #255	; 0xff
    171c:	e3540001 	cmp	r4, #1
    1720:	0a0000a1 	beq	19ac <Len_IRQ_Stack+0x9ac>
    1724:	e59dc018 	ldr	ip, [sp, #24]
    1728:	e5dcca6c 	ldrb	ip, [ip, #2668]	; 0xa6c
    172c:	e35c0003 	cmp	ip, #3
    1730:	1afffe19 	bne	f9c <runtime+0xb48>
    1734:	e3a0c000 	mov	ip, #0
    1738:	e59db028 	ldr	fp, [sp, #40]	; 0x28
    173c:	e588b008 	str	fp, [r8, #8]
    1740:	e588c00c 	str	ip, [r8, #12]
    1744:	e3a0c000 	mov	ip, #0
    1748:	e3a0b000 	mov	fp, #0
    174c:	e3a04001 	mov	r4, #1
    1750:	e588b010 	str	fp, [r8, #16]
    1754:	e588c014 	str	ip, [r8, #20]
    1758:	e3a0c903 	mov	ip, #49152	; 0xc000
    175c:	e588c018 	str	ip, [r8, #24]
    1760:	e5c84007 	strb	r4, [r8, #7]
    1764:	e3a04004 	mov	r4, #4
    1768:	e59dc018 	ldr	ip, [sp, #24]
    176c:	e5cc4a6c 	strb	r4, [ip, #2668]	; 0xa6c
    1770:	eafffe09 	b	f9c <runtime+0xb48>
    1774:	e59dc018 	ldr	ip, [sp, #24]
    1778:	e5dcc38c 	ldrb	ip, [ip, #908]	; 0x38c
    177c:	e20cc0ff 	and	ip, ip, #255	; 0xff
    1780:	e35c0001 	cmp	ip, #1
    1784:	e58dc034 	str	ip, [sp, #52]	; 0x34
    1788:	0a000070 	beq	1950 <Len_IRQ_Stack+0x950>
    178c:	e59dc018 	ldr	ip, [sp, #24]
    1790:	e5dcc38c 	ldrb	ip, [ip, #908]	; 0x38c
    1794:	e35c0003 	cmp	ip, #3
    1798:	1afffdbb 	bne	e8c <runtime+0xa38>
    179c:	e3a0c000 	mov	ip, #0
    17a0:	e59db028 	ldr	fp, [sp, #40]	; 0x28
    17a4:	e584b008 	str	fp, [r4, #8]
    17a8:	e584c00c 	str	ip, [r4, #12]
    17ac:	e3a0c000 	mov	ip, #0
    17b0:	e3a0b000 	mov	fp, #0
    17b4:	e3a08001 	mov	r8, #1
    17b8:	e584b010 	str	fp, [r4, #16]
    17bc:	e584c014 	str	ip, [r4, #20]
    17c0:	e3a0c901 	mov	ip, #16384	; 0x4000
    17c4:	e584c018 	str	ip, [r4, #24]
    17c8:	e5c48007 	strb	r8, [r4, #7]
    17cc:	e3a04004 	mov	r4, #4
    17d0:	e59dc018 	ldr	ip, [sp, #24]
    17d4:	e5cc438c 	strb	r4, [ip, #908]	; 0x38c
    17d8:	eafffdab 	b	e8c <runtime+0xa38>
    17dc:	e51f043c 	ldr	r0, [pc, #-1084]	; 13a8 <Len_IRQ_Stack+0x3a8>
    17e0:	eb00180e 	bl	7820 <puts>
    17e4:	e28ddf6b 	add	sp, sp, #428	; 0x1ac
    17e8:	e8bd4ff0 	pop	{r4, r5, r6, r7, r8, r9, sl, fp, lr}
    17ec:	e12fff1e 	bx	lr
    17f0:	e08cc004 	add	ip, ip, r4
    17f4:	e28ccf53 	add	ip, ip, #332	; 0x14c
    17f8:	e79ac10c 	ldr	ip, [sl, ip, lsl #2]
    17fc:	e58dc028 	str	ip, [sp, #40]	; 0x28
    1800:	e3a0c000 	mov	ip, #0
    1804:	e58dc040 	str	ip, [sp, #64]	; 0x40
    1808:	eafffd31 	b	cd4 <runtime+0x880>
    180c:	e3a0c001 	mov	ip, #1
    1810:	e58dc034 	str	ip, [sp, #52]	; 0x34
    1814:	e083c00e 	add	ip, r3, lr
    1818:	e59d4034 	ldr	r4, [sp, #52]	; 0x34
    181c:	e08ec08c 	add	ip, lr, ip, lsl #1
    1820:	e08ab10c 	add	fp, sl, ip, lsl #2
    1824:	e5cb454c 	strb	r4, [fp, #1356]	; 0x54c
    1828:	e5db454c 	ldrb	r4, [fp, #1356]	; 0x54c
    182c:	e08cc004 	add	ip, ip, r4
    1830:	e28ccf53 	add	ip, ip, #332	; 0x14c
    1834:	e79ac10c 	ldr	ip, [sl, ip, lsl #2]
    1838:	e58dc04c 	str	ip, [sp, #76]	; 0x4c
    183c:	e5dbc544 	ldrb	ip, [fp, #1348]	; 0x544
    1840:	e35c0000 	cmp	ip, #0
    1844:	e5d8c008 	ldrb	ip, [r8, #8]
    1848:	e58dc034 	str	ip, [sp, #52]	; 0x34
    184c:	e5d8c00a 	ldrb	ip, [r8, #10]
    1850:	e1a04a0e 	lsl	r4, lr, #20
    1854:	e58d408c 	str	r4, [sp, #140]	; 0x8c
    1858:	e58dc088 	str	ip, [sp, #136]	; 0x88
    185c:	e2848309 	add	r8, r4, #603979776	; 0x24000000
    1860:	1a000004 	bne	1878 <Len_IRQ_Stack+0x878>
    1864:	e3a04001 	mov	r4, #1
    1868:	e59dc03c 	ldr	ip, [sp, #60]	; 0x3c
    186c:	e35c0000 	cmp	ip, #0
    1870:	e5cb4544 	strb	r4, [fp, #1348]	; 0x544
    1874:	1a000102 	bne	1c84 <Len_IRQ_Stack+0xc84>
    1878:	e083c00e 	add	ip, r3, lr
    187c:	e08ec08c 	add	ip, lr, ip, lsl #1
    1880:	e08ac10c 	add	ip, sl, ip, lsl #2
    1884:	e5dc4544 	ldrb	r4, [ip, #1348]	; 0x544
    1888:	e3540001 	cmp	r4, #1
    188c:	0a00006e 	beq	1a4c <Len_IRQ_Stack+0xa4c>
    1890:	e083c00e 	add	ip, r3, lr
    1894:	e08ec08c 	add	ip, lr, ip, lsl #1
    1898:	e08ac10c 	add	ip, sl, ip, lsl #2
    189c:	e58dc018 	str	ip, [sp, #24]
    18a0:	e5dcc544 	ldrb	ip, [ip, #1348]	; 0x544
    18a4:	e35c0002 	cmp	ip, #2
    18a8:	0a00009e 	beq	1b28 <Len_IRQ_Stack+0xb28>
    18ac:	e59dc018 	ldr	ip, [sp, #24]
    18b0:	e5dcc544 	ldrb	ip, [ip, #1348]	; 0x544
    18b4:	e35c0003 	cmp	ip, #3
    18b8:	1a00000e 	bne	18f8 <Len_IRQ_Stack+0x8f8>
    18bc:	e3a0c000 	mov	ip, #0
    18c0:	e59db04c 	ldr	fp, [sp, #76]	; 0x4c
    18c4:	e588b008 	str	fp, [r8, #8]
    18c8:	e588c00c 	str	ip, [r8, #12]
    18cc:	e3a0c000 	mov	ip, #0
    18d0:	e3a0b000 	mov	fp, #0
    18d4:	e3a04001 	mov	r4, #1
    18d8:	e588b010 	str	fp, [r8, #16]
    18dc:	e588c014 	str	ip, [r8, #20]
    18e0:	e3a0c801 	mov	ip, #65536	; 0x10000
    18e4:	e588c018 	str	ip, [r8, #24]
    18e8:	e5c84007 	strb	r4, [r8, #7]
    18ec:	e3a04004 	mov	r4, #4
    18f0:	e59dc018 	ldr	ip, [sp, #24]
    18f4:	e5cc4544 	strb	r4, [ip, #1348]	; 0x544
    18f8:	e083c00e 	add	ip, r3, lr
    18fc:	e08ec08c 	add	ip, lr, ip, lsl #1
    1900:	e08ac10c 	add	ip, sl, ip, lsl #2
    1904:	e5dcc544 	ldrb	ip, [ip, #1348]	; 0x544
    1908:	e35c0003 	cmp	ip, #3
    190c:	1afffc5b 	bne	a80 <runtime+0x62c>
    1910:	e591c0ec 	ldr	ip, [r1, #236]	; 0xec
    1914:	e35c0000 	cmp	ip, #0
    1918:	0a000006 	beq	1938 <Len_IRQ_Stack+0x938>
    191c:	e5d1c110 	ldrb	ip, [r1, #272]	; 0x110
    1920:	e5914118 	ldr	r4, [r1, #280]	; 0x118
    1924:	e084400c 	add	r4, r4, ip
    1928:	e5d4c025 	ldrb	ip, [r4, #37]	; 0x25
    192c:	e24cc001 	sub	ip, ip, #1
    1930:	e20cc0ff 	and	ip, ip, #255	; 0xff
    1934:	e5c4c025 	strb	ip, [r4, #37]	; 0x25
    1938:	e591c0f0 	ldr	ip, [r1, #240]	; 0xf0
    193c:	e35c0000 	cmp	ip, #0
    1940:	0afffc4e 	beq	a80 <runtime+0x62c>
    1944:	e591411c 	ldr	r4, [r1, #284]	; 0x11c
    1948:	e5d1c111 	ldrb	ip, [r1, #273]	; 0x111
    194c:	eafffcab 	b	c00 <runtime+0x7ac>
    1950:	e3a0c080 	mov	ip, #128	; 0x80
    1954:	e5984004 	ldr	r4, [r8, #4]
    1958:	e58d4020 	str	r4, [sp, #32]
    195c:	e51f45b8 	ldr	r4, [pc, #-1464]	; 13ac <Len_IRQ_Stack+0x3ac>
    1960:	e5988008 	ldr	r8, [r8, #8]
    1964:	e78bc004 	str	ip, [fp, r4]
    1968:	e2844008 	add	r4, r4, #8
    196c:	e78bc004 	str	ip, [fp, r4]
    1970:	e59d4020 	ldr	r4, [sp, #32]
    1974:	e51fc5cc 	ldr	ip, [pc, #-1484]	; 13b0 <Len_IRQ_Stack+0x3b0>
    1978:	e78b400c 	str	r4, [fp, ip]
    197c:	e28cc008 	add	ip, ip, #8
    1980:	e78b800c 	str	r8, [fp, ip]
    1984:	e51f45d8 	ldr	r4, [pc, #-1496]	; 13b4 <Len_IRQ_Stack+0x3b4>
    1988:	e59dc028 	ldr	ip, [sp, #40]	; 0x28
    198c:	e78bc004 	str	ip, [fp, r4]
    1990:	e59dc034 	ldr	ip, [sp, #52]	; 0x34
    1994:	e2444021 	sub	r4, r4, #33	; 0x21
    1998:	e7cbc004 	strb	ip, [fp, r4]
    199c:	e3a04003 	mov	r4, #3
    19a0:	e59dc018 	ldr	ip, [sp, #24]
    19a4:	e5cc438c 	strb	r4, [ip, #908]	; 0x38c
    19a8:	eafffd37 	b	e8c <runtime+0xa38>
    19ac:	e3a08080 	mov	r8, #128	; 0x80
    19b0:	e51fb600 	ldr	fp, [pc, #-1536]	; 13b8 <Len_IRQ_Stack+0x3b8>
    19b4:	e78c800b 	str	r8, [ip, fp]
    19b8:	e28bb008 	add	fp, fp, #8
    19bc:	e78c800b 	str	r8, [ip, fp]
    19c0:	e51f860c 	ldr	r8, [pc, #-1548]	; 13bc <Len_IRQ_Stack+0x3bc>
    19c4:	e59db028 	ldr	fp, [sp, #40]	; 0x28
    19c8:	e78cb008 	str	fp, [ip, r8]
    19cc:	e2488011 	sub	r8, r8, #17
    19d0:	e7cc4008 	strb	r4, [ip, r8]
    19d4:	e3a04003 	mov	r4, #3
    19d8:	e59dc018 	ldr	ip, [sp, #24]
    19dc:	e5cc4a6c 	strb	r4, [ip, #2668]	; 0xa6c
    19e0:	eafffd6d 	b	f9c <runtime+0xb48>
    19e4:	e3a04901 	mov	r4, #16384	; 0x4000
    19e8:	e51fc630 	ldr	ip, [pc, #-1584]	; 13c0 <Len_IRQ_Stack+0x3c0>
    19ec:	e78b400c 	str	r4, [fp, ip]
    19f0:	e59dc020 	ldr	ip, [sp, #32]
    19f4:	e51f4638 	ldr	r4, [pc, #-1592]	; 13c4 <Len_IRQ_Stack+0x3c4>
    19f8:	e78bc004 	str	ip, [fp, r4]
    19fc:	e59dc018 	ldr	ip, [sp, #24]
    1a00:	e2444009 	sub	r4, r4, #9
    1a04:	e7cbc004 	strb	ip, [fp, r4]
    1a08:	e3a0c003 	mov	ip, #3
    1a0c:	e5c8c6fc 	strb	ip, [r8, #1788]	; 0x6fc
    1a10:	eafffc6f 	b	bd4 <runtime+0x780>
    1a14:	e3a0c080 	mov	ip, #128	; 0x80
    1a18:	e51f4658 	ldr	r4, [pc, #-1624]	; 13c8 <Len_IRQ_Stack+0x3c8>
    1a1c:	e78bc004 	str	ip, [fp, r4]
    1a20:	e2844008 	add	r4, r4, #8
    1a24:	e78bc004 	str	ip, [fp, r4]
    1a28:	e59dc020 	ldr	ip, [sp, #32]
    1a2c:	e2844008 	add	r4, r4, #8
    1a30:	e78bc004 	str	ip, [fp, r4]
    1a34:	e59dc018 	ldr	ip, [sp, #24]
    1a38:	e2444011 	sub	r4, r4, #17
    1a3c:	e7cbc004 	strb	ip, [fp, r4]
    1a40:	e3a0c003 	mov	ip, #3
    1a44:	e5c8c8b4 	strb	ip, [r8, #2228]	; 0x8b4
    1a48:	eafffeef 	b	160c <Len_IRQ_Stack+0x60c>
    1a4c:	e3a04002 	mov	r4, #2
    1a50:	e59db040 	ldr	fp, [sp, #64]	; 0x40
    1a54:	e35b0000 	cmp	fp, #0
    1a58:	e5cc4544 	strb	r4, [ip, #1348]	; 0x544
    1a5c:	0affff8b 	beq	1890 <Len_IRQ_Stack+0x890>
    1a60:	e3a0c000 	mov	ip, #0
    1a64:	e58db018 	str	fp, [sp, #24]
    1a68:	e58dc01c 	str	ip, [sp, #28]
    1a6c:	e3a0c000 	mov	ip, #0
    1a70:	e59db028 	ldr	fp, [sp, #40]	; 0x28
    1a74:	e58db020 	str	fp, [sp, #32]
    1a78:	e58dc024 	str	ip, [sp, #36]	; 0x24
    1a7c:	e59dc034 	ldr	ip, [sp, #52]	; 0x34
    1a80:	e35c0000 	cmp	ip, #0
    1a84:	e28dc018 	add	ip, sp, #24
    1a88:	e89c1800 	ldm	ip, {fp, ip}
    1a8c:	e588b008 	str	fp, [r8, #8]
    1a90:	e588c00c 	str	ip, [r8, #12]
    1a94:	e28dc020 	add	ip, sp, #32
    1a98:	e89c1800 	ldm	ip, {fp, ip}
    1a9c:	e588b010 	str	fp, [r8, #16]
    1aa0:	e588c014 	str	ip, [r8, #20]
    1aa4:	13a0c004 	movne	ip, #4
    1aa8:	03a0c801 	moveq	ip, #65536	; 0x10000
    1aac:	e588c018 	str	ip, [r8, #24]
    1ab0:	e3a0c001 	mov	ip, #1
    1ab4:	e5c8c007 	strb	ip, [r8, #7]
    1ab8:	eaffff8e 	b	18f8 <Len_IRQ_Stack+0x8f8>
    1abc:	e3a0c080 	mov	ip, #128	; 0x80
    1ac0:	e59db04c 	ldr	fp, [sp, #76]	; 0x4c
    1ac4:	e51f4700 	ldr	r4, [pc, #-1792]	; 13cc <Len_IRQ_Stack+0x3cc>
    1ac8:	e78bc004 	str	ip, [fp, r4]
    1acc:	e2844008 	add	r4, r4, #8
    1ad0:	e78bc004 	str	ip, [fp, r4]
    1ad4:	e59d4028 	ldr	r4, [sp, #40]	; 0x28
    1ad8:	e51fc710 	ldr	ip, [pc, #-1808]	; 13d0 <Len_IRQ_Stack+0x3d0>
    1adc:	e78b400c 	str	r4, [fp, ip]
    1ae0:	e59dc034 	ldr	ip, [sp, #52]	; 0x34
    1ae4:	e51f4718 	ldr	r4, [pc, #-1816]	; 13d4 <Len_IRQ_Stack+0x3d4>
    1ae8:	e78bc004 	str	ip, [fp, r4]
    1aec:	e59dc040 	ldr	ip, [sp, #64]	; 0x40
    1af0:	e2844008 	add	r4, r4, #8
    1af4:	e7cbc004 	strb	ip, [fp, r4]
    1af8:	e59d4018 	ldr	r4, [sp, #24]
    1afc:	e51fc72c 	ldr	ip, [pc, #-1836]	; 13d8 <Len_IRQ_Stack+0x3d8>
    1b00:	e78b400c 	str	r4, [fp, ip]
    1b04:	e59dc038 	ldr	ip, [sp, #56]	; 0x38
    1b08:	e51f4734 	ldr	r4, [pc, #-1844]	; 13dc <Len_IRQ_Stack+0x3dc>
    1b0c:	e78bc004 	str	ip, [fp, r4]
    1b10:	e3a0c001 	mov	ip, #1
    1b14:	e2444031 	sub	r4, r4, #49	; 0x31
    1b18:	e7cbc004 	strb	ip, [fp, r4]
    1b1c:	e3a0c003 	mov	ip, #3
    1b20:	e5c8c1d4 	strb	ip, [r8, #468]	; 0x1d4
    1b24:	eafffe7f 	b	1528 <Len_IRQ_Stack+0x528>
    1b28:	e3a04901 	mov	r4, #16384	; 0x4000
    1b2c:	e59db08c 	ldr	fp, [sp, #140]	; 0x8c
    1b30:	e51fc758 	ldr	ip, [pc, #-1880]	; 13e0 <Len_IRQ_Stack+0x3e0>
    1b34:	e78b400c 	str	r4, [fp, ip]
    1b38:	e59d4038 	ldr	r4, [sp, #56]	; 0x38
    1b3c:	e28cc008 	add	ip, ip, #8
    1b40:	e7cb400c 	strb	r4, [fp, ip]
    1b44:	e59d8034 	ldr	r8, [sp, #52]	; 0x34
    1b48:	e51f476c 	ldr	r4, [pc, #-1900]	; 13e4 <Len_IRQ_Stack+0x3e4>
    1b4c:	e7cb8004 	strb	r8, [fp, r4]
    1b50:	e59d4088 	ldr	r4, [sp, #136]	; 0x88
    1b54:	e28cc010 	add	ip, ip, #16
    1b58:	e7cb400c 	strb	r4, [fp, ip]
    1b5c:	e59d4020 	ldr	r4, [sp, #32]
    1b60:	e28cc008 	add	ip, ip, #8
    1b64:	e78b400c 	str	r4, [fp, ip]
    1b68:	e51f8788 	ldr	r8, [pc, #-1928]	; 13e8 <Len_IRQ_Stack+0x3e8>
    1b6c:	e59dc028 	ldr	ip, [sp, #40]	; 0x28
    1b70:	e51f478c 	ldr	r4, [pc, #-1932]	; 13ec <Len_IRQ_Stack+0x3ec>
    1b74:	e78bc008 	str	ip, [fp, r8]
    1b78:	e59dc04c 	ldr	ip, [sp, #76]	; 0x4c
    1b7c:	e78bc004 	str	ip, [fp, r4]
    1b80:	e3a0c001 	mov	ip, #1
    1b84:	e2444031 	sub	r4, r4, #49	; 0x31
    1b88:	e7cbc004 	strb	ip, [fp, r4]
    1b8c:	e3a04003 	mov	r4, #3
    1b90:	e59dc018 	ldr	ip, [sp, #24]
    1b94:	e5cc4544 	strb	r4, [ip, #1348]	; 0x544
    1b98:	eaffff56 	b	18f8 <Len_IRQ_Stack+0x8f8>
    1b9c:	e1a0b00c 	mov	fp, ip
    1ba0:	e3a0c000 	mov	ip, #0
    1ba4:	e58db020 	str	fp, [sp, #32]
    1ba8:	e58dc024 	str	ip, [sp, #36]	; 0x24
    1bac:	e3a0c000 	mov	ip, #0
    1bb0:	e59db018 	ldr	fp, [sp, #24]
    1bb4:	e58db018 	str	fp, [sp, #24]
    1bb8:	e58dc01c 	str	ip, [sp, #28]
    1bbc:	e28dc020 	add	ip, sp, #32
    1bc0:	e89c1800 	ldm	ip, {fp, ip}
    1bc4:	e584b008 	str	fp, [r4, #8]
    1bc8:	e584c00c 	str	ip, [r4, #12]
    1bcc:	e28dc018 	add	ip, sp, #24
    1bd0:	e89c1800 	ldm	ip, {fp, ip}
    1bd4:	e584b010 	str	fp, [r4, #16]
    1bd8:	e584c014 	str	ip, [r4, #20]
    1bdc:	e3a0c801 	mov	ip, #65536	; 0x10000
    1be0:	e584c018 	str	ip, [r4, #24]
    1be4:	e5c48007 	strb	r8, [r4, #7]
    1be8:	eafffe4e 	b	1528 <Len_IRQ_Stack+0x528>
    1bec:	e3a0c000 	mov	ip, #0
    1bf0:	e59db03c 	ldr	fp, [sp, #60]	; 0x3c
    1bf4:	e58db018 	str	fp, [sp, #24]
    1bf8:	e58dc01c 	str	ip, [sp, #28]
    1bfc:	e59dc028 	ldr	ip, [sp, #40]	; 0x28
    1c00:	e59db034 	ldr	fp, [sp, #52]	; 0x34
    1c04:	e00c0c9b 	mul	ip, fp, ip
    1c08:	e51fb820 	ldr	fp, [pc, #-2080]	; 13f0 <Len_IRQ_Stack+0x3f0>
    1c0c:	e096b00b 	adds	fp, r6, fp
    1c10:	e58db068 	str	fp, [sp, #104]	; 0x68
    1c14:	e59db004 	ldr	fp, [sp, #4]
    1c18:	e1a0c10c 	lsl	ip, ip, #2
    1c1c:	e2abb000 	adc	fp, fp, #0
    1c20:	e58db06c 	str	fp, [sp, #108]	; 0x6c
    1c24:	e58dc028 	str	ip, [sp, #40]	; 0x28
    1c28:	e28dc018 	add	ip, sp, #24
    1c2c:	e89c1800 	ldm	ip, {fp, ip}
    1c30:	e584b008 	str	fp, [r4, #8]
    1c34:	e584c00c 	str	ip, [r4, #12]
    1c38:	e28dc068 	add	ip, sp, #104	; 0x68
    1c3c:	e89c1800 	ldm	ip, {fp, ip}
    1c40:	e584b010 	str	fp, [r4, #16]
    1c44:	e584c014 	str	ip, [r4, #20]
    1c48:	e59dc028 	ldr	ip, [sp, #40]	; 0x28
    1c4c:	e584c018 	str	ip, [r4, #24]
    1c50:	e59dc020 	ldr	ip, [sp, #32]
    1c54:	e5c4c007 	strb	ip, [r4, #7]
    1c58:	e3a0c002 	mov	ip, #2
    1c5c:	e5c8c1d4 	strb	ip, [r8, #468]	; 0x1d4
    1c60:	eafffe30 	b	1528 <Len_IRQ_Stack+0x528>
    1c64:	e3a04002 	mov	r4, #2
    1c68:	eafffdf4 	b	1440 <Len_IRQ_Stack+0x440>
    1c6c:	e3a0c002 	mov	ip, #2
    1c70:	e58dc034 	str	ip, [sp, #52]	; 0x34
    1c74:	eafffee6 	b	1814 <Len_IRQ_Stack+0x814>
    1c78:	e3a0c003 	mov	ip, #3
    1c7c:	e58dc034 	str	ip, [sp, #52]	; 0x34
    1c80:	eafffee3 	b	1814 <Len_IRQ_Stack+0x814>
    1c84:	e1a0b00c 	mov	fp, ip
    1c88:	e3a0c000 	mov	ip, #0
    1c8c:	e58db018 	str	fp, [sp, #24]
    1c90:	e58dc01c 	str	ip, [sp, #28]
    1c94:	e3a0c000 	mov	ip, #0
    1c98:	e59db020 	ldr	fp, [sp, #32]
    1c9c:	e58db020 	str	fp, [sp, #32]
    1ca0:	e58dc024 	str	ip, [sp, #36]	; 0x24
    1ca4:	e28dc018 	add	ip, sp, #24
    1ca8:	e89c1800 	ldm	ip, {fp, ip}
    1cac:	e588b008 	str	fp, [r8, #8]
    1cb0:	e588c00c 	str	ip, [r8, #12]
    1cb4:	e28dc020 	add	ip, sp, #32
    1cb8:	e89c1800 	ldm	ip, {fp, ip}
    1cbc:	e588b010 	str	fp, [r8, #16]
    1cc0:	e588c014 	str	ip, [r8, #20]
    1cc4:	e3a0c801 	mov	ip, #65536	; 0x10000
    1cc8:	e588c018 	str	ip, [r8, #24]
    1ccc:	e5c84007 	strb	r4, [r8, #7]
    1cd0:	eaffff08 	b	18f8 <Len_IRQ_Stack+0x8f8>
    1cd4:	e083c00e 	add	ip, r3, lr
    1cd8:	e08ec08c 	add	ip, lr, ip, lsl #1
    1cdc:	e08ac10c 	add	ip, sl, ip, lsl #2
    1ce0:	e5dc401c 	ldrb	r4, [ip, #28]
    1ce4:	e3540000 	cmp	r4, #0
    1ce8:	1a000012 	bne	1d38 <Len_IRQ_Stack+0xd38>
    1cec:	e5dc4025 	ldrb	r4, [ip, #37]	; 0x25
    1cf0:	e21440ff 	ands	r4, r4, #255	; 0xff
    1cf4:	0a000003 	beq	1d08 <Len_IRQ_Stack+0xd08>
    1cf8:	e5dcc026 	ldrb	ip, [ip, #38]	; 0x26
    1cfc:	e35c0000 	cmp	ip, #0
    1d00:	1afffb5e 	bne	a80 <runtime+0x62c>
    1d04:	e3a04001 	mov	r4, #1
    1d08:	e083c00e 	add	ip, r3, lr
    1d0c:	e08ec08c 	add	ip, lr, ip, lsl #1
    1d10:	e08ac10c 	add	ip, sl, ip, lsl #2
    1d14:	e591b0ec 	ldr	fp, [r1, #236]	; 0xec
    1d18:	e5cc4024 	strb	r4, [ip, #36]	; 0x24
    1d1c:	e35b0000 	cmp	fp, #0
    1d20:	15d1c110 	ldrbne	ip, [r1, #272]	; 0x110
    1d24:	15914118 	ldrne	r4, [r1, #280]	; 0x118
    1d28:	128cc002 	addne	ip, ip, #2
    1d2c:	1794c10c 	ldrne	ip, [r4, ip, lsl #2]
    1d30:	0598c000 	ldreq	ip, [r8]
    1d34:	e58dc044 	str	ip, [sp, #68]	; 0x44
    1d38:	e083c00e 	add	ip, r3, lr
    1d3c:	e08ec08c 	add	ip, lr, ip, lsl #1
    1d40:	e08ac10c 	add	ip, sl, ip, lsl #2
    1d44:	e5dcc01c 	ldrb	ip, [ip, #28]
    1d48:	e35c0001 	cmp	ip, #1
    1d4c:	0a000029 	beq	1df8 <Len_IRQ_Stack+0xdf8>
    1d50:	e083c00e 	add	ip, r3, lr
    1d54:	e08ec08c 	add	ip, lr, ip, lsl #1
    1d58:	e08a810c 	add	r8, sl, ip, lsl #2
    1d5c:	e5d84024 	ldrb	r4, [r8, #36]	; 0x24
    1d60:	e08cc004 	add	ip, ip, r4
    1d64:	e28cc002 	add	ip, ip, #2
    1d68:	e79ac10c 	ldr	ip, [sl, ip, lsl #2]
    1d6c:	e58dc020 	str	ip, [sp, #32]
    1d70:	e5d8c01c 	ldrb	ip, [r8, #28]
    1d74:	e1a04a0e 	lsl	r4, lr, #20
    1d78:	e35c0000 	cmp	ip, #0
    1d7c:	e58d8018 	str	r8, [sp, #24]
    1d80:	e2848421 	add	r8, r4, #553648128	; 0x21000000
    1d84:	1a000024 	bne	1e1c <Len_IRQ_Stack+0xe1c>
    1d88:	e3a04000 	mov	r4, #0
    1d8c:	e51fc9a0 	ldr	ip, [pc, #-2464]	; 13f4 <Len_IRQ_Stack+0x3f4>
    1d90:	e096c00c 	adds	ip, r6, ip
    1d94:	e58dc070 	str	ip, [sp, #112]	; 0x70
    1d98:	e59dc004 	ldr	ip, [sp, #4]
    1d9c:	e0acc004 	adc	ip, ip, r4
    1da0:	e58dc074 	str	ip, [sp, #116]	; 0x74
    1da4:	e3a0c000 	mov	ip, #0
    1da8:	e59db044 	ldr	fp, [sp, #68]	; 0x44
    1dac:	e588b008 	str	fp, [r8, #8]
    1db0:	e588c00c 	str	ip, [r8, #12]
    1db4:	e28dc070 	add	ip, sp, #112	; 0x70
    1db8:	e89c1800 	ldm	ip, {fp, ip}
    1dbc:	e588b010 	str	fp, [r8, #16]
    1dc0:	e588c014 	str	ip, [r8, #20]
    1dc4:	e3a0c801 	mov	ip, #65536	; 0x10000
    1dc8:	e588c018 	str	ip, [r8, #24]
    1dcc:	e3a0c001 	mov	ip, #1
    1dd0:	e5c8c007 	strb	ip, [r8, #7]
    1dd4:	e59d8018 	ldr	r8, [sp, #24]
    1dd8:	e5c8c01c 	strb	ip, [r8, #28]
    1ddc:	e083c00e 	add	ip, r3, lr
    1de0:	e08ec08c 	add	ip, lr, ip, lsl #1
    1de4:	e08ac10c 	add	ip, sl, ip, lsl #2
    1de8:	e5dcc01c 	ldrb	ip, [ip, #28]
    1dec:	e35c0003 	cmp	ip, #3
    1df0:	1afffb22 	bne	a80 <runtime+0x62c>
    1df4:	eafffec5 	b	1910 <Len_IRQ_Stack+0x910>
    1df8:	e591c0f0 	ldr	ip, [r1, #240]	; 0xf0
    1dfc:	e35c0000 	cmp	ip, #0
    1e00:	15d1c111 	ldrbne	ip, [r1, #273]	; 0x111
    1e04:	1591411c 	ldrne	r4, [r1, #284]	; 0x11c
    1e08:	128cc002 	addne	ip, ip, #2
    1e0c:	1794c10c 	ldrne	ip, [r4, ip, lsl #2]
    1e10:	0598c004 	ldreq	ip, [r8, #4]
    1e14:	e58dc048 	str	ip, [sp, #72]	; 0x48
    1e18:	eaffffcc 	b	1d50 <Len_IRQ_Stack+0xd50>
    1e1c:	e59dc018 	ldr	ip, [sp, #24]
    1e20:	e5dcc01c 	ldrb	ip, [ip, #28]
    1e24:	e20cc0ff 	and	ip, ip, #255	; 0xff
    1e28:	e35c0001 	cmp	ip, #1
    1e2c:	e58dc028 	str	ip, [sp, #40]	; 0x28
    1e30:	0a000017 	beq	1e94 <Len_IRQ_Stack+0xe94>
    1e34:	e59dc018 	ldr	ip, [sp, #24]
    1e38:	e5dcc01c 	ldrb	ip, [ip, #28]
    1e3c:	e35c0002 	cmp	ip, #2
    1e40:	0a000029 	beq	1eec <Len_IRQ_Stack+0xeec>
    1e44:	e59dc018 	ldr	ip, [sp, #24]
    1e48:	e5dcc01c 	ldrb	ip, [ip, #28]
    1e4c:	e35c0003 	cmp	ip, #3
    1e50:	1affffe1 	bne	1ddc <Len_IRQ_Stack+0xddc>
    1e54:	e3a0c000 	mov	ip, #0
    1e58:	e59db020 	ldr	fp, [sp, #32]
    1e5c:	e588b008 	str	fp, [r8, #8]
    1e60:	e588c00c 	str	ip, [r8, #12]
    1e64:	e3a0c000 	mov	ip, #0
    1e68:	e3a0b000 	mov	fp, #0
    1e6c:	e3a04001 	mov	r4, #1
    1e70:	e588b010 	str	fp, [r8, #16]
    1e74:	e588c014 	str	ip, [r8, #20]
    1e78:	e3a0c801 	mov	ip, #65536	; 0x10000
    1e7c:	e588c018 	str	ip, [r8, #24]
    1e80:	e5c84007 	strb	r4, [r8, #7]
    1e84:	e3a04004 	mov	r4, #4
    1e88:	e59dc018 	ldr	ip, [sp, #24]
    1e8c:	e5cc401c 	strb	r4, [ip, #28]
    1e90:	eaffffd1 	b	1ddc <Len_IRQ_Stack+0xddc>
    1e94:	e51fcaa4 	ldr	ip, [pc, #-2724]	; 13f8 <Len_IRQ_Stack+0x3f8>
    1e98:	e096c00c 	adds	ip, r6, ip
    1e9c:	e58dc078 	str	ip, [sp, #120]	; 0x78
    1ea0:	e59dc004 	ldr	ip, [sp, #4]
    1ea4:	e2acc000 	adc	ip, ip, #0
    1ea8:	e58dc07c 	str	ip, [sp, #124]	; 0x7c
    1eac:	e3a0c000 	mov	ip, #0
    1eb0:	e3a04801 	mov	r4, #65536	; 0x10000
    1eb4:	e59db048 	ldr	fp, [sp, #72]	; 0x48
    1eb8:	e588b008 	str	fp, [r8, #8]
    1ebc:	e588c00c 	str	ip, [r8, #12]
    1ec0:	e28dc078 	add	ip, sp, #120	; 0x78
    1ec4:	e89c1800 	ldm	ip, {fp, ip}
    1ec8:	e588b010 	str	fp, [r8, #16]
    1ecc:	e588c014 	str	ip, [r8, #20]
    1ed0:	e5884018 	str	r4, [r8, #24]
    1ed4:	e3a04002 	mov	r4, #2
    1ed8:	e59dc028 	ldr	ip, [sp, #40]	; 0x28
    1edc:	e5c8c007 	strb	ip, [r8, #7]
    1ee0:	e59dc018 	ldr	ip, [sp, #24]
    1ee4:	e5cc401c 	strb	r4, [ip, #28]
    1ee8:	eaffffbb 	b	1ddc <Len_IRQ_Stack+0xddc>
    1eec:	e3a0c080 	mov	ip, #128	; 0x80
    1ef0:	e51fbafc 	ldr	fp, [pc, #-2812]	; 13fc <Len_IRQ_Stack+0x3fc>
    1ef4:	e784c00b 	str	ip, [r4, fp]
    1ef8:	e28bb008 	add	fp, fp, #8
    1efc:	e784c00b 	str	ip, [r4, fp]
    1f00:	e51fcb08 	ldr	ip, [pc, #-2824]	; 1400 <Len_IRQ_Stack+0x400>
    1f04:	e59db020 	ldr	fp, [sp, #32]
    1f08:	e784b00c 	str	fp, [r4, ip]
    1f0c:	e3a0b001 	mov	fp, #1
    1f10:	e3a08003 	mov	r8, #3
    1f14:	e24cc011 	sub	ip, ip, #17
    1f18:	e7c4b00c 	strb	fp, [r4, ip]
    1f1c:	e59dc018 	ldr	ip, [sp, #24]
    1f20:	e5cc801c 	strb	r8, [ip, #28]
    1f24:	eaffffac 	b	1ddc <Len_IRQ_Stack+0xddc>

00001f28 <isr>:
    1f28:	e92d4ff0 	push	{r4, r5, r6, r7, r8, r9, sl, fp, lr}
    1f2c:	e1a04180 	lsl	r4, r0, #3
    1f30:	e044c000 	sub	ip, r4, r0
    1f34:	e1a08101 	lsl	r8, r1, #2
    1f38:	e060c18c 	rsb	ip, r0, ip, lsl #3
    1f3c:	e088e001 	add	lr, r8, r1
    1f40:	e081e08e 	add	lr, r1, lr, lsl #1
    1f44:	e1a0c18c 	lsl	ip, ip, #3
    1f48:	e59f7fe4 	ldr	r7, [pc, #4068]	; 2f34 <isr+0x100c>
    1f4c:	e08cc10e 	add	ip, ip, lr, lsl #2
    1f50:	e087500c 	add	r5, r7, ip
    1f54:	e5d5e01c 	ldrb	lr, [r5, #28]
    1f58:	e35e0001 	cmp	lr, #1
    1f5c:	e24dd01c 	sub	sp, sp, #28
    1f60:	0a000015 	beq	1fbc <isr+0x94>
    1f64:	e5d5e01c 	ldrb	lr, [r5, #28]
    1f68:	e35e0002 	cmp	lr, #2
    1f6c:	0a000012 	beq	1fbc <isr+0x94>
    1f70:	e5d5301c 	ldrb	r3, [r5, #28]
    1f74:	e3530003 	cmp	r3, #3
    1f78:	0a0000a4 	beq	2210 <isr+0x2e8>
    1f7c:	e5d5301c 	ldrb	r3, [r5, #28]
    1f80:	e3530004 	cmp	r3, #4
    1f84:	1a000009 	bne	1fb0 <isr+0x88>
    1f88:	e3a02000 	mov	r2, #0
    1f8c:	e3a01001 	mov	r1, #1
    1f90:	e5950004 	ldr	r0, [r5, #4]
    1f94:	e59f3f9c 	ldr	r3, [pc, #3996]	; 2f38 <isr+0x1010>
    1f98:	e5c02000 	strb	r2, [r0]
    1f9c:	e5c5201c 	strb	r2, [r5, #28]
    1fa0:	e5932000 	ldr	r2, [r3]
    1fa4:	e2422001 	sub	r2, r2, #1
    1fa8:	e5832000 	str	r2, [r3]
    1fac:	e5c31004 	strb	r1, [r3, #4]
    1fb0:	e28dd01c 	add	sp, sp, #28
    1fb4:	e8bd4ff0 	pop	{r4, r5, r6, r7, r8, r9, sl, fp, lr}
    1fb8:	e12fff1e 	bx	lr
    1fbc:	e3a0c000 	mov	ip, #0
    1fc0:	e1a05000 	mov	r5, r0
    1fc4:	e044a000 	sub	sl, r4, r0
    1fc8:	e060a18a 	rsb	sl, r0, sl, lsl #3
    1fcc:	e0880001 	add	r0, r8, r1
    1fd0:	e0810080 	add	r0, r1, r0, lsl #1
    1fd4:	e1a0a18a 	lsl	sl, sl, #3
    1fd8:	e08aa100 	add	sl, sl, r0, lsl #2
    1fdc:	e087a00a 	add	sl, r7, sl
    1fe0:	e59a0004 	ldr	r0, [sl, #4]
    1fe4:	e5c0c000 	strb	ip, [r0]
    1fe8:	e59a6020 	ldr	r6, [sl, #32]
    1fec:	e3550006 	cmp	r5, #6
    1ff0:	979ff105 	ldrls	pc, [pc, r5, lsl #2]
    1ff4:	ea000070 	b	21bc <isr+0x294>
    1ff8:	000028b4 			; <UNDEFINED> instruction: 0x000028b4
    1ffc:	00002014 	andeq	r2, r0, r4, lsl r0
    2000:	000027cc 	andeq	r2, r0, ip, asr #15
    2004:	000026a8 	andeq	r2, r0, r8, lsr #13
    2008:	000025bc 			; <UNDEFINED> instruction: 0x000025bc
    200c:	000024d4 	ldrdeq	r2, [r0], -r4
    2010:	000023e8 	andeq	r2, r0, r8, ror #7
    2014:	e59630ec 	ldr	r3, [r6, #236]	; 0xec
    2018:	e3530000 	cmp	r3, #0
    201c:	e5963004 	ldr	r3, [r6, #4]
    2020:	0a00031f 	beq	2ca4 <isr+0xd7c>
    2024:	e596c118 	ldr	ip, [r6, #280]	; 0x118
    2028:	e15a000c 	cmp	sl, ip
    202c:	e5d60110 	ldrb	r0, [r6, #272]	; 0x110
    2030:	0a000471 	beq	31fc <isr+0x12d4>
    2034:	e0882001 	add	r2, r8, r1
    2038:	e0812082 	add	r2, r1, r2, lsl #1
    203c:	e2800002 	add	r0, r0, #2
    2040:	e0872102 	add	r2, r7, r2, lsl #2
    2044:	e79ca100 	ldr	sl, [ip, r0, lsl #2]
    2048:	e5d201dd 	ldrb	r0, [r2, #477]	; 0x1dd
    204c:	e3500000 	cmp	r0, #0
    2050:	1a00031a 	bne	2cc0 <isr+0xd98>
    2054:	e0882001 	add	r2, r8, r1
    2058:	e0812082 	add	r2, r1, r2, lsl #1
    205c:	e0872102 	add	r2, r7, r2, lsl #2
    2060:	e59221c0 	ldr	r2, [r2, #448]	; 0x1c0
    2064:	e0880001 	add	r0, r8, r1
    2068:	e0810080 	add	r0, r1, r0, lsl #1
    206c:	e0870100 	add	r0, r7, r0, lsl #2
    2070:	e5d001de 	ldrb	r0, [r0, #478]	; 0x1de
    2074:	e3500000 	cmp	r0, #0
    2078:	1a000005 	bne	2094 <isr+0x16c>
    207c:	e3520000 	cmp	r2, #0
    2080:	1a0005a5 	bne	371c <isr+0x17f4>
    2084:	e0882001 	add	r2, r8, r1
    2088:	e0812082 	add	r2, r1, r2, lsl #1
    208c:	e0872102 	add	r2, r7, r2, lsl #2
    2090:	e59221c4 	ldr	r2, [r2, #452]	; 0x1c4
    2094:	e0880001 	add	r0, r8, r1
    2098:	e0810080 	add	r0, r1, r0, lsl #1
    209c:	e0870100 	add	r0, r7, r0, lsl #2
    20a0:	e5d001df 	ldrb	r0, [r0, #479]	; 0x1df
    20a4:	e3500000 	cmp	r0, #0
    20a8:	1a000043 	bne	21bc <isr+0x294>
    20ac:	e3520000 	cmp	r2, #0
    20b0:	0a000308 	beq	2cd8 <isr+0xdb0>
    20b4:	e3a0c002 	mov	ip, #2
    20b8:	e0880001 	add	r0, r8, r1
    20bc:	e0810080 	add	r0, r1, r0, lsl #1
    20c0:	e0879100 	add	r9, r7, r0, lsl #2
    20c4:	e20cc0ff 	and	ip, ip, #255	; 0xff
    20c8:	e593e004 	ldr	lr, [r3, #4]
    20cc:	e5c9c1dc 	strb	ip, [r9, #476]	; 0x1dc
    20d0:	e5d9c1dc 	ldrb	ip, [r9, #476]	; 0x1dc
    20d4:	e080000c 	add	r0, r0, ip
    20d8:	e2800070 	add	r0, r0, #112	; 0x70
    20dc:	e7970100 	ldr	r0, [r7, r0, lsl #2]
    20e0:	e58d0008 	str	r0, [sp, #8]
    20e4:	e5d901d4 	ldrb	r0, [r9, #468]	; 0x1d4
    20e8:	e593c00c 	ldr	ip, [r3, #12]
    20ec:	e58de010 	str	lr, [sp, #16]
    20f0:	e593e008 	ldr	lr, [r3, #8]
    20f4:	e5d33010 	ldrb	r3, [r3, #16]
    20f8:	e1a0ba01 	lsl	fp, r1, #20
    20fc:	e3500000 	cmp	r0, #0
    2100:	e58dc000 	str	ip, [sp]
    2104:	e28b0422 	add	r0, fp, #570425344	; 0x22000000
    2108:	e58d3014 	str	r3, [sp, #20]
    210c:	1a000003 	bne	2120 <isr+0x1f8>
    2110:	e3a0c001 	mov	ip, #1
    2114:	e35a0000 	cmp	sl, #0
    2118:	e5c9c1d4 	strb	ip, [r9, #468]	; 0x1d4
    211c:	1a0005a2 	bne	37ac <isr+0x1884>
    2120:	e0883001 	add	r3, r8, r1
    2124:	e0813083 	add	r3, r1, r3, lsl #1
    2128:	e0873103 	add	r3, r7, r3, lsl #2
    212c:	e5d3c1d4 	ldrb	ip, [r3, #468]	; 0x1d4
    2130:	e20cc0ff 	and	ip, ip, #255	; 0xff
    2134:	e35c0001 	cmp	ip, #1
    2138:	0a0005cd 	beq	3874 <isr+0x194c>
    213c:	e5d3c1d4 	ldrb	ip, [r3, #468]	; 0x1d4
    2140:	e35c0002 	cmp	ip, #2
    2144:	0a0005b0 	beq	380c <isr+0x18e4>
    2148:	e5d331d4 	ldrb	r3, [r3, #468]	; 0x1d4
    214c:	e3530003 	cmp	r3, #3
    2150:	1a00000f 	bne	2194 <isr+0x26c>
    2154:	e3a03000 	mov	r3, #0
    2158:	e3a0b02c 	mov	fp, #44	; 0x2c
    215c:	e59d2008 	ldr	r2, [sp, #8]
    2160:	e3a0a801 	mov	sl, #65536	; 0x10000
    2164:	e5802008 	str	r2, [r0, #8]
    2168:	e580300c 	str	r3, [r0, #12]
    216c:	e3a09001 	mov	r9, #1
    2170:	e3a0e004 	mov	lr, #4
    2174:	e3a02000 	mov	r2, #0
    2178:	e3a03000 	mov	r3, #0
    217c:	e02c7b91 	mla	ip, r1, fp, r7
    2180:	e5802010 	str	r2, [r0, #16]
    2184:	e5803014 	str	r3, [r0, #20]
    2188:	e580a018 	str	sl, [r0, #24]
    218c:	e5c09007 	strb	r9, [r0, #7]
    2190:	e5cce1d4 	strb	lr, [ip, #468]	; 0x1d4
    2194:	e0883001 	add	r3, r8, r1
    2198:	e0813083 	add	r3, r1, r3, lsl #1
    219c:	e0873103 	add	r3, r7, r3, lsl #2
    21a0:	e5d331d4 	ldrb	r3, [r3, #468]	; 0x1d4
    21a4:	e3530003 	cmp	r3, #3
    21a8:	1a000003 	bne	21bc <isr+0x294>
    21ac:	e59630ec 	ldr	r3, [r6, #236]	; 0xec
    21b0:	e3530000 	cmp	r3, #0
    21b4:	11a00006 	movne	r0, r6
    21b8:	1bfff89d 	blne	434 <run_convolution.part.1>
    21bc:	e0442005 	sub	r2, r4, r5
    21c0:	e0652182 	rsb	r2, r5, r2, lsl #3
    21c4:	e0883001 	add	r3, r8, r1
    21c8:	e0813083 	add	r3, r1, r3, lsl #1
    21cc:	e1a02182 	lsl	r2, r2, #3
    21d0:	e0822103 	add	r2, r2, r3, lsl #2
    21d4:	e0873002 	add	r3, r7, r2
    21d8:	e5d3301c 	ldrb	r3, [r3, #28]
    21dc:	e3530003 	cmp	r3, #3
    21e0:	0a00023a 	beq	2ad0 <isr+0xba8>
    21e4:	e0444005 	sub	r4, r4, r5
    21e8:	e0655184 	rsb	r5, r5, r4, lsl #3
    21ec:	e0888001 	add	r8, r8, r1
    21f0:	e1a05185 	lsl	r5, r5, #3
    21f4:	e0811088 	add	r1, r1, r8, lsl #1
    21f8:	e0851101 	add	r1, r5, r1, lsl #2
    21fc:	e0877001 	add	r7, r7, r1
    2200:	e5876020 	str	r6, [r7, #32]
    2204:	e28dd01c 	add	sp, sp, #28
    2208:	e8bd4ff0 	pop	{r4, r5, r6, r7, r8, r9, sl, fp, lr}
    220c:	e12fff1e 	bx	lr
    2210:	e3a02000 	mov	r2, #0
    2214:	e797300c 	ldr	r3, [r7, ip]
    2218:	e5c32000 	strb	r2, [r3]
    221c:	e5953020 	ldr	r3, [r5, #32]
    2220:	e593a008 	ldr	sl, [r3, #8]
    2224:	e15a0002 	cmp	sl, r2
    2228:	da00027f 	ble	2c2c <isr+0xd04>
    222c:	e283600c 	add	r6, r3, #12
    2230:	e1a09006 	mov	r9, r6
    2234:	e086a10a 	add	sl, r6, sl, lsl #2
    2238:	ea00000d 	b	2274 <isr+0x34c>
    223c:	e592e0dc 	ldr	lr, [r2, #220]	; 0xdc
    2240:	e153000e 	cmp	r3, lr
    2244:	0a000020 	beq	22cc <isr+0x3a4>
    2248:	e592e0e0 	ldr	lr, [r2, #224]	; 0xe0
    224c:	e153000e 	cmp	r3, lr
    2250:	0a000026 	beq	22f0 <isr+0x3c8>
    2254:	e592e0e4 	ldr	lr, [r2, #228]	; 0xe4
    2258:	e153000e 	cmp	r3, lr
    225c:	0a00002c 	beq	2314 <isr+0x3ec>
    2260:	e592e0e8 	ldr	lr, [r2, #232]	; 0xe8
    2264:	e153000e 	cmp	r3, lr
    2268:	0a000032 	beq	2338 <isr+0x410>
    226c:	e159000a 	cmp	r9, sl
    2270:	0a000048 	beq	2398 <isr+0x470>
    2274:	e5b92004 	ldr	r2, [r9, #4]!
    2278:	e592e10c 	ldr	lr, [r2, #268]	; 0x10c
    227c:	e592b00c 	ldr	fp, [r2, #12]
    2280:	e28ee001 	add	lr, lr, #1
    2284:	e15e000b 	cmp	lr, fp
    2288:	e582e10c 	str	lr, [r2, #268]	; 0x10c
    228c:	03a0e001 	moveq	lr, #1
    2290:	059fbca0 	ldreq	fp, [pc, #3232]	; 2f38 <isr+0x1010>
    2294:	0582e100 	streq	lr, [r2, #256]	; 0x100
    2298:	05cbe004 	strbeq	lr, [fp, #4]
    229c:	e592e0d8 	ldr	lr, [r2, #216]	; 0xd8
    22a0:	e153000e 	cmp	r3, lr
    22a4:	1affffe4 	bne	223c <isr+0x314>
    22a8:	e592e0ec 	ldr	lr, [r2, #236]	; 0xec
    22ac:	e35e0000 	cmp	lr, #0
    22b0:	1087e00c 	addne	lr, r7, ip
    22b4:	15dee024 	ldrbne	lr, [lr, #36]	; 0x24
    22b8:	15c2e110 	strbne	lr, [r2, #272]	; 0x110
    22bc:	e592e0dc 	ldr	lr, [r2, #220]	; 0xdc
    22c0:	15825118 	strne	r5, [r2, #280]	; 0x118
    22c4:	e153000e 	cmp	r3, lr
    22c8:	1affffde 	bne	2248 <isr+0x320>
    22cc:	e592e0f0 	ldr	lr, [r2, #240]	; 0xf0
    22d0:	e35e0000 	cmp	lr, #0
    22d4:	1087e00c 	addne	lr, r7, ip
    22d8:	15dee024 	ldrbne	lr, [lr, #36]	; 0x24
    22dc:	15c2e111 	strbne	lr, [r2, #273]	; 0x111
    22e0:	e592e0e0 	ldr	lr, [r2, #224]	; 0xe0
    22e4:	1582511c 	strne	r5, [r2, #284]	; 0x11c
    22e8:	e153000e 	cmp	r3, lr
    22ec:	1affffd8 	bne	2254 <isr+0x32c>
    22f0:	e592e0f4 	ldr	lr, [r2, #244]	; 0xf4
    22f4:	e35e0000 	cmp	lr, #0
    22f8:	1087e00c 	addne	lr, r7, ip
    22fc:	15dee024 	ldrbne	lr, [lr, #36]	; 0x24
    2300:	15c2e112 	strbne	lr, [r2, #274]	; 0x112
    2304:	e592e0e4 	ldr	lr, [r2, #228]	; 0xe4
    2308:	15825120 	strne	r5, [r2, #288]	; 0x120
    230c:	e153000e 	cmp	r3, lr
    2310:	1affffd2 	bne	2260 <isr+0x338>
    2314:	e592e0f8 	ldr	lr, [r2, #248]	; 0xf8
    2318:	e35e0000 	cmp	lr, #0
    231c:	1087e00c 	addne	lr, r7, ip
    2320:	15dee024 	ldrbne	lr, [lr, #36]	; 0x24
    2324:	15c2e113 	strbne	lr, [r2, #275]	; 0x113
    2328:	e592e0e8 	ldr	lr, [r2, #232]	; 0xe8
    232c:	15825124 	strne	r5, [r2, #292]	; 0x124
    2330:	e153000e 	cmp	r3, lr
    2334:	1affffcc 	bne	226c <isr+0x344>
    2338:	e592e0fc 	ldr	lr, [r2, #252]	; 0xfc
    233c:	e35e0000 	cmp	lr, #0
    2340:	1087e00c 	addne	lr, r7, ip
    2344:	15dee024 	ldrbne	lr, [lr, #36]	; 0x24
    2348:	15825128 	strne	r5, [r2, #296]	; 0x128
    234c:	15c2e114 	strbne	lr, [r2, #276]	; 0x114
    2350:	eaffffc5 	b	226c <isr+0x344>
    2354:	e592c0ec 	ldr	ip, [r2, #236]	; 0xec
    2358:	e35c0000 	cmp	ip, #0
    235c:	0a000017 	beq	23c0 <isr+0x498>
    2360:	e592c0dc 	ldr	ip, [r2, #220]	; 0xdc
    2364:	e153000c 	cmp	r3, ip
    2368:	0a000011 	beq	23b4 <isr+0x48c>
    236c:	e592c0e0 	ldr	ip, [r2, #224]	; 0xe0
    2370:	e153000c 	cmp	r3, ip
    2374:	0a000196 	beq	29d4 <isr+0xaac>
    2378:	e592c0e4 	ldr	ip, [r2, #228]	; 0xe4
    237c:	e153000c 	cmp	r3, ip
    2380:	0a000199 	beq	29ec <isr+0xac4>
    2384:	e592c0e8 	ldr	ip, [r2, #232]	; 0xe8
    2388:	e153000c 	cmp	r3, ip
    238c:	0a00019c 	beq	2a04 <isr+0xadc>
    2390:	e156000a 	cmp	r6, sl
    2394:	0a000225 	beq	2c30 <isr+0xd08>
    2398:	e5b62004 	ldr	r2, [r6, #4]!
    239c:	e592c0d8 	ldr	ip, [r2, #216]	; 0xd8
    23a0:	e153000c 	cmp	r3, ip
    23a4:	0affffea 	beq	2354 <isr+0x42c>
    23a8:	e592c0dc 	ldr	ip, [r2, #220]	; 0xdc
    23ac:	e153000c 	cmp	r3, ip
    23b0:	1affffed 	bne	236c <isr+0x444>
    23b4:	e592c0f0 	ldr	ip, [r2, #240]	; 0xf0
    23b8:	e35c0000 	cmp	ip, #0
    23bc:	1affffea 	bne	236c <isr+0x444>
    23c0:	e3500006 	cmp	r0, #6
    23c4:	979ff100 	ldrls	pc, [pc, r0, lsl #2]
    23c8:	ea0001ab 	b	2a7c <isr+0xb54>
    23cc:	00002db4 			; <UNDEFINED> instruction: 0x00002db4
    23d0:	00002d10 	andeq	r2, r0, r0, lsl sp
    23d4:	0000300c 	andeq	r3, r0, ip
    23d8:	00002e84 	andeq	r2, r0, r4, lsl #29
    23dc:	00002fa0 	andeq	r2, r0, r0, lsr #31
    23e0:	00002e1c 	andeq	r2, r0, ip, lsl lr
    23e4:	00003074 	andeq	r3, r0, r4, ror r0
    23e8:	e0883001 	add	r3, r8, r1
    23ec:	e0813083 	add	r3, r1, r3, lsl #1
    23f0:	e0873103 	add	r3, r7, r3, lsl #2
    23f4:	e5d32a75 	ldrb	r2, [r3, #2677]	; 0xa75
    23f8:	e21220ff 	ands	r2, r2, #255	; 0xff
    23fc:	0a000003 	beq	2410 <isr+0x4e8>
    2400:	e5d33a76 	ldrb	r3, [r3, #2678]	; 0xa76
    2404:	e3530000 	cmp	r3, #0
    2408:	1affff6b 	bne	21bc <isr+0x294>
    240c:	e3a02001 	mov	r2, #1
    2410:	e0883001 	add	r3, r8, r1
    2414:	e59600ec 	ldr	r0, [r6, #236]	; 0xec
    2418:	e0813083 	add	r3, r1, r3, lsl #1
    241c:	e0873103 	add	r3, r7, r3, lsl #2
    2420:	e3500000 	cmp	r0, #0
    2424:	e5960004 	ldr	r0, [r6, #4]
    2428:	e5c32a74 	strb	r2, [r3, #2676]	; 0xa74
    242c:	15d63110 	ldrbne	r3, [r6, #272]	; 0x110
    2430:	15962118 	ldrne	r2, [r6, #280]	; 0x118
    2434:	12833002 	addne	r3, r3, #2
    2438:	17922103 	ldrne	r2, [r2, r3, lsl #2]
    243c:	e0883001 	add	r3, r8, r1
    2440:	e0813083 	add	r3, r1, r3, lsl #1
    2444:	e087c103 	add	ip, r7, r3, lsl #2
    2448:	05902000 	ldreq	r2, [r0]
    244c:	e5dc0a74 	ldrb	r0, [ip, #2676]	; 0xa74
    2450:	e0833000 	add	r3, r3, r0
    2454:	e2833fa5 	add	r3, r3, #660	; 0x294
    2458:	e2833002 	add	r3, r3, #2
    245c:	e797e103 	ldr	lr, [r7, r3, lsl #2]
    2460:	e5dc3a6c 	ldrb	r3, [ip, #2668]	; 0xa6c
    2464:	e1a00a01 	lsl	r0, r1, #20
    2468:	e3530000 	cmp	r3, #0
    246c:	e2800427 	add	r0, r0, #654311424	; 0x27000000
    2470:	1a000471 	bne	363c <isr+0x1714>
    2474:	e3a03000 	mov	r3, #0
    2478:	e3a0e001 	mov	lr, #1
    247c:	e3a0b000 	mov	fp, #0
    2480:	e5802008 	str	r2, [r0, #8]
    2484:	e580300c 	str	r3, [r0, #12]
    2488:	e59f3aac 	ldr	r3, [pc, #2732]	; 2f3c <isr+0x1014>
    248c:	e280a020 	add	sl, r0, #32
    2490:	e580a010 	str	sl, [r0, #16]
    2494:	e580b014 	str	fp, [r0, #20]
    2498:	e5803018 	str	r3, [r0, #24]
    249c:	e5c0e007 	strb	lr, [r0, #7]
    24a0:	e5ccea6c 	strb	lr, [ip, #2668]	; 0xa6c
    24a4:	e0883001 	add	r3, r8, r1
    24a8:	e0813083 	add	r3, r1, r3, lsl #1
    24ac:	e0873103 	add	r3, r7, r3, lsl #2
    24b0:	e5d33a6c 	ldrb	r3, [r3, #2668]	; 0xa6c
    24b4:	e3530003 	cmp	r3, #3
    24b8:	1affff3f 	bne	21bc <isr+0x294>
    24bc:	e59630ec 	ldr	r3, [r6, #236]	; 0xec
    24c0:	e3530000 	cmp	r3, #0
    24c4:	0affff3c 	beq	21bc <isr+0x294>
    24c8:	e1a00006 	mov	r0, r6
    24cc:	ebfff7d8 	bl	434 <run_convolution.part.1>
    24d0:	eaffff39 	b	21bc <isr+0x294>
    24d4:	e0883001 	add	r3, r8, r1
    24d8:	e0813083 	add	r3, r1, r3, lsl #1
    24dc:	e0873103 	add	r3, r7, r3, lsl #2
    24e0:	e5d328bd 	ldrb	r2, [r3, #2237]	; 0x8bd
    24e4:	e21220ff 	ands	r2, r2, #255	; 0xff
    24e8:	0a000003 	beq	24fc <isr+0x5d4>
    24ec:	e5d338be 	ldrb	r3, [r3, #2238]	; 0x8be
    24f0:	e3530000 	cmp	r3, #0
    24f4:	1affff30 	bne	21bc <isr+0x294>
    24f8:	e3a02001 	mov	r2, #1
    24fc:	e0883001 	add	r3, r8, r1
    2500:	e59600ec 	ldr	r0, [r6, #236]	; 0xec
    2504:	e0813083 	add	r3, r1, r3, lsl #1
    2508:	e0873103 	add	r3, r7, r3, lsl #2
    250c:	e3500000 	cmp	r0, #0
    2510:	e5960004 	ldr	r0, [r6, #4]
    2514:	e5c328bc 	strb	r2, [r3, #2236]	; 0x8bc
    2518:	15d63110 	ldrbne	r3, [r6, #272]	; 0x110
    251c:	15962118 	ldrne	r2, [r6, #280]	; 0x118
    2520:	12833002 	addne	r3, r3, #2
    2524:	17922103 	ldrne	r2, [r2, r3, lsl #2]
    2528:	e0883001 	add	r3, r8, r1
    252c:	e0813083 	add	r3, r1, r3, lsl #1
    2530:	e087c103 	add	ip, r7, r3, lsl #2
    2534:	05902000 	ldreq	r2, [r0]
    2538:	e5dc08bc 	ldrb	r0, [ip, #2236]	; 0x8bc
    253c:	e0833000 	add	r3, r3, r0
    2540:	e2833f8a 	add	r3, r3, #552	; 0x228
    2544:	e797e103 	ldr	lr, [r7, r3, lsl #2]
    2548:	e5dc38b4 	ldrb	r3, [ip, #2228]	; 0x8b4
    254c:	e1a00a01 	lsl	r0, r1, #20
    2550:	e3530000 	cmp	r3, #0
    2554:	e2800426 	add	r0, r0, #637534208	; 0x26000000
    2558:	1a00041f 	bne	35dc <isr+0x16b4>
    255c:	e3a0e001 	mov	lr, #1
    2560:	e3a0b000 	mov	fp, #0
    2564:	e3a03000 	mov	r3, #0
    2568:	e3a09801 	mov	r9, #65536	; 0x10000
    256c:	e280a020 	add	sl, r0, #32
    2570:	e5802008 	str	r2, [r0, #8]
    2574:	e580300c 	str	r3, [r0, #12]
    2578:	e580a010 	str	sl, [r0, #16]
    257c:	e580b014 	str	fp, [r0, #20]
    2580:	e5809018 	str	r9, [r0, #24]
    2584:	e5c0e007 	strb	lr, [r0, #7]
    2588:	e5cce8b4 	strb	lr, [ip, #2228]	; 0x8b4
    258c:	e0883001 	add	r3, r8, r1
    2590:	e0813083 	add	r3, r1, r3, lsl #1
    2594:	e0873103 	add	r3, r7, r3, lsl #2
    2598:	e5d338b4 	ldrb	r3, [r3, #2228]	; 0x8b4
    259c:	e3530003 	cmp	r3, #3
    25a0:	1affff05 	bne	21bc <isr+0x294>
    25a4:	e59630ec 	ldr	r3, [r6, #236]	; 0xec
    25a8:	e3530000 	cmp	r3, #0
    25ac:	0affff02 	beq	21bc <isr+0x294>
    25b0:	e1a00006 	mov	r0, r6
    25b4:	ebfff79e 	bl	434 <run_convolution.part.1>
    25b8:	eafffeff 	b	21bc <isr+0x294>
    25bc:	e0883001 	add	r3, r8, r1
    25c0:	e0813083 	add	r3, r1, r3, lsl #1
    25c4:	e0873103 	add	r3, r7, r3, lsl #2
    25c8:	e5d32705 	ldrb	r2, [r3, #1797]	; 0x705
    25cc:	e21220ff 	ands	r2, r2, #255	; 0xff
    25d0:	0a000003 	beq	25e4 <isr+0x6bc>
    25d4:	e5d33706 	ldrb	r3, [r3, #1798]	; 0x706
    25d8:	e3530000 	cmp	r3, #0
    25dc:	1afffef6 	bne	21bc <isr+0x294>
    25e0:	e3a02001 	mov	r2, #1
    25e4:	e0883001 	add	r3, r8, r1
    25e8:	e59600ec 	ldr	r0, [r6, #236]	; 0xec
    25ec:	e0813083 	add	r3, r1, r3, lsl #1
    25f0:	e0873103 	add	r3, r7, r3, lsl #2
    25f4:	e3500000 	cmp	r0, #0
    25f8:	e5960004 	ldr	r0, [r6, #4]
    25fc:	e5c32704 	strb	r2, [r3, #1796]	; 0x704
    2600:	15d63110 	ldrbne	r3, [r6, #272]	; 0x110
    2604:	15962118 	ldrne	r2, [r6, #280]	; 0x118
    2608:	12833002 	addne	r3, r3, #2
    260c:	17922103 	ldrne	r2, [r2, r3, lsl #2]
    2610:	e0883001 	add	r3, r8, r1
    2614:	e0813083 	add	r3, r1, r3, lsl #1
    2618:	e087c103 	add	ip, r7, r3, lsl #2
    261c:	05902000 	ldreq	r2, [r0]
    2620:	e5dc0704 	ldrb	r0, [ip, #1796]	; 0x704
    2624:	e0833000 	add	r3, r3, r0
    2628:	e2833f6e 	add	r3, r3, #440	; 0x1b8
    262c:	e2833002 	add	r3, r3, #2
    2630:	e797e103 	ldr	lr, [r7, r3, lsl #2]
    2634:	e5dc36fc 	ldrb	r3, [ip, #1788]	; 0x6fc
    2638:	e1a00a01 	lsl	r0, r1, #20
    263c:	e3530000 	cmp	r3, #0
    2640:	e2800425 	add	r0, r0, #620756992	; 0x25000000
    2644:	1a0003cc 	bne	357c <isr+0x1654>
    2648:	e3a0e001 	mov	lr, #1
    264c:	e3a0b000 	mov	fp, #0
    2650:	e3a03000 	mov	r3, #0
    2654:	e3a09903 	mov	r9, #49152	; 0xc000
    2658:	e280a020 	add	sl, r0, #32
    265c:	e5802008 	str	r2, [r0, #8]
    2660:	e580300c 	str	r3, [r0, #12]
    2664:	e580a010 	str	sl, [r0, #16]
    2668:	e580b014 	str	fp, [r0, #20]
    266c:	e5809018 	str	r9, [r0, #24]
    2670:	e5c0e007 	strb	lr, [r0, #7]
    2674:	e5cce6fc 	strb	lr, [ip, #1788]	; 0x6fc
    2678:	e0883001 	add	r3, r8, r1
    267c:	e0813083 	add	r3, r1, r3, lsl #1
    2680:	e0873103 	add	r3, r7, r3, lsl #2
    2684:	e5d336fc 	ldrb	r3, [r3, #1788]	; 0x6fc
    2688:	e3530003 	cmp	r3, #3
    268c:	1afffeca 	bne	21bc <isr+0x294>
    2690:	e59630ec 	ldr	r3, [r6, #236]	; 0xec
    2694:	e3530000 	cmp	r3, #0
    2698:	0afffec7 	beq	21bc <isr+0x294>
    269c:	e1a00006 	mov	r0, r6
    26a0:	ebfff763 	bl	434 <run_convolution.part.1>
    26a4:	eafffec4 	b	21bc <isr+0x294>
    26a8:	e596e004 	ldr	lr, [r6, #4]
    26ac:	e5de9009 	ldrb	r9, [lr, #9]
    26b0:	e3590003 	cmp	r9, #3
    26b4:	93a00001 	movls	r0, #1
    26b8:	9a000002 	bls	26c8 <isr+0x7a0>
    26bc:	e2493006 	sub	r3, r9, #6
    26c0:	e2730000 	rsbs	r0, r3, #0
    26c4:	e0a00003 	adc	r0, r0, r3
    26c8:	e59620ec 	ldr	r2, [r6, #236]	; 0xec
    26cc:	e3520000 	cmp	r2, #0
    26d0:	1a000185 	bne	2cec <isr+0xdc4>
    26d4:	e59e3000 	ldr	r3, [lr]
    26d8:	e58d3000 	str	r3, [sp]
    26dc:	e3500000 	cmp	r0, #0
    26e0:	01a0c000 	moveq	ip, r0
    26e4:	01a0a000 	moveq	sl, r0
    26e8:	0a00000e 	beq	2728 <isr+0x800>
    26ec:	e596c0f0 	ldr	ip, [r6, #240]	; 0xf0
    26f0:	e35c0000 	cmp	ip, #0
    26f4:	0a0002ae 	beq	31b4 <isr+0x128c>
    26f8:	e596b11c 	ldr	fp, [r6, #284]	; 0x11c
    26fc:	e5d6c111 	ldrb	ip, [r6, #273]	; 0x111
    2700:	e15a000b 	cmp	sl, fp
    2704:	128c3002 	addne	r3, ip, #2
    2708:	03a0a000 	moveq	sl, #0
    270c:	13a0c000 	movne	ip, #0
    2710:	00883001 	addeq	r3, r8, r1
    2714:	00813083 	addeq	r3, r1, r3, lsl #1
    2718:	0083300c 	addeq	r3, r3, ip
    271c:	02833f53 	addeq	r3, r3, #332	; 0x14c
    2720:	0797c103 	ldreq	ip, [r7, r3, lsl #2]
    2724:	179ba103 	ldrne	sl, [fp, r3, lsl #2]
    2728:	e0883001 	add	r3, r8, r1
    272c:	e0813083 	add	r3, r1, r3, lsl #1
    2730:	e0873103 	add	r3, r7, r3, lsl #2
    2734:	e5d3b54d 	ldrb	fp, [r3, #1357]	; 0x54d
    2738:	e35b0000 	cmp	fp, #0
    273c:	1a000268 	bne	30e4 <isr+0x11bc>
    2740:	e3520000 	cmp	r2, #0
    2744:	0a000265 	beq	30e0 <isr+0x11b8>
    2748:	e35c0000 	cmp	ip, #0
    274c:	01a0b000 	moveq	fp, r0
    2750:	13a0b000 	movne	fp, #0
    2754:	e35b0000 	cmp	fp, #0
    2758:	0a000505 	beq	3b74 <isr+0x1c4c>
    275c:	e593c530 	ldr	ip, [r3, #1328]	; 0x530
    2760:	e5d3b54e 	ldrb	fp, [r3, #1358]	; 0x54e
    2764:	e35b0000 	cmp	fp, #0
    2768:	0a000293 	beq	31bc <isr+0x1294>
    276c:	e5d3354f 	ldrb	r3, [r3, #1359]	; 0x54f
    2770:	e3530000 	cmp	r3, #0
    2774:	1a00026c 	bne	312c <isr+0x1204>
    2778:	e35c0000 	cmp	ip, #0
    277c:	01a03000 	moveq	r3, r0
    2780:	13a03000 	movne	r3, #0
    2784:	e3530000 	cmp	r3, #0
    2788:	0a000470 	beq	3950 <isr+0x1a28>
    278c:	e0883001 	add	r3, r8, r1
    2790:	e0813083 	add	r3, r1, r3, lsl #1
    2794:	e0873103 	add	r3, r7, r3, lsl #2
    2798:	e593c538 	ldr	ip, [r3, #1336]	; 0x538
    279c:	e5d33550 	ldrb	r3, [r3, #1360]	; 0x550
    27a0:	e3530000 	cmp	r3, #0
    27a4:	1afffe84 	bne	21bc <isr+0x294>
    27a8:	e35c0000 	cmp	ip, #0
    27ac:	13a00000 	movne	r0, #0
    27b0:	e3500000 	cmp	r0, #0
    27b4:	0a0004ec 	beq	3b6c <isr+0x1c44>
    27b8:	e0883001 	add	r3, r8, r1
    27bc:	e0813083 	add	r3, r1, r3, lsl #1
    27c0:	e0873103 	add	r3, r7, r3, lsl #2
    27c4:	e593353c 	ldr	r3, [r3, #1340]	; 0x53c
    27c8:	eafffe7b 	b	21bc <isr+0x294>
    27cc:	e0883001 	add	r3, r8, r1
    27d0:	e0813083 	add	r3, r1, r3, lsl #1
    27d4:	e0873103 	add	r3, r7, r3, lsl #2
    27d8:	e5d32395 	ldrb	r2, [r3, #917]	; 0x395
    27dc:	e21220ff 	ands	r2, r2, #255	; 0xff
    27e0:	0a000003 	beq	27f4 <isr+0x8cc>
    27e4:	e5d33396 	ldrb	r3, [r3, #918]	; 0x396
    27e8:	e3530000 	cmp	r3, #0
    27ec:	1afffe72 	bne	21bc <isr+0x294>
    27f0:	e3a02001 	mov	r2, #1
    27f4:	e0883001 	add	r3, r8, r1
    27f8:	e0813083 	add	r3, r1, r3, lsl #1
    27fc:	e0873103 	add	r3, r7, r3, lsl #2
    2800:	e59600ec 	ldr	r0, [r6, #236]	; 0xec
    2804:	e596e004 	ldr	lr, [r6, #4]
    2808:	e5c32394 	strb	r2, [r3, #916]	; 0x394
    280c:	e3500000 	cmp	r0, #0
    2810:	15d63110 	ldrbne	r3, [r6, #272]	; 0x110
    2814:	15962118 	ldrne	r2, [r6, #280]	; 0x118
    2818:	12833002 	addne	r3, r3, #2
    281c:	17922103 	ldrne	r2, [r2, r3, lsl #2]
    2820:	e0883001 	add	r3, r8, r1
    2824:	e0813083 	add	r3, r1, r3, lsl #1
    2828:	e087c103 	add	ip, r7, r3, lsl #2
    282c:	e5dc0394 	ldrb	r0, [ip, #916]	; 0x394
    2830:	e0833000 	add	r3, r3, r0
    2834:	e28330de 	add	r3, r3, #222	; 0xde
    2838:	e7979103 	ldr	r9, [r7, r3, lsl #2]
    283c:	e5dc338c 	ldrb	r3, [ip, #908]	; 0x38c
    2840:	059e2000 	ldreq	r2, [lr]
    2844:	e1a00a01 	lsl	r0, r1, #20
    2848:	e3530000 	cmp	r3, #0
    284c:	e2800423 	add	r0, r0, #587202560	; 0x23000000
    2850:	1a000331 	bne	351c <isr+0x15f4>
    2854:	e3a0e001 	mov	lr, #1
    2858:	e3a0b000 	mov	fp, #0
    285c:	e3a03000 	mov	r3, #0
    2860:	e3a09801 	mov	r9, #65536	; 0x10000
    2864:	e280a020 	add	sl, r0, #32
    2868:	e5802008 	str	r2, [r0, #8]
    286c:	e580300c 	str	r3, [r0, #12]
    2870:	e580a010 	str	sl, [r0, #16]
    2874:	e580b014 	str	fp, [r0, #20]
    2878:	e5809018 	str	r9, [r0, #24]
    287c:	e5c0e007 	strb	lr, [r0, #7]
    2880:	e5cce38c 	strb	lr, [ip, #908]	; 0x38c
    2884:	e0883001 	add	r3, r8, r1
    2888:	e0813083 	add	r3, r1, r3, lsl #1
    288c:	e0873103 	add	r3, r7, r3, lsl #2
    2890:	e5d3338c 	ldrb	r3, [r3, #908]	; 0x38c
    2894:	e3530003 	cmp	r3, #3
    2898:	1afffe47 	bne	21bc <isr+0x294>
    289c:	e59630ec 	ldr	r3, [r6, #236]	; 0xec
    28a0:	e3530000 	cmp	r3, #0
    28a4:	0afffe44 	beq	21bc <isr+0x294>
    28a8:	e1a00006 	mov	r0, r6
    28ac:	ebfff6e0 	bl	434 <run_convolution.part.1>
    28b0:	eafffe41 	b	21bc <isr+0x294>
    28b4:	e0880001 	add	r0, r8, r1
    28b8:	e0810080 	add	r0, r1, r0, lsl #1
    28bc:	e0870100 	add	r0, r7, r0, lsl #2
    28c0:	e5d0c01c 	ldrb	ip, [r0, #28]
    28c4:	e35c0000 	cmp	ip, #0
    28c8:	e596c004 	ldr	ip, [r6, #4]
    28cc:	0a0000e1 	beq	2c58 <isr+0xd30>
    28d0:	e0880001 	add	r0, r8, r1
    28d4:	e0810080 	add	r0, r1, r0, lsl #1
    28d8:	e0870100 	add	r0, r7, r0, lsl #2
    28dc:	e5d0001c 	ldrb	r0, [r0, #28]
    28e0:	e3500001 	cmp	r0, #1
    28e4:	1a000006 	bne	2904 <isr+0x9dc>
    28e8:	e59620f0 	ldr	r2, [r6, #240]	; 0xf0
    28ec:	e3520000 	cmp	r2, #0
    28f0:	15d62111 	ldrbne	r2, [r6, #273]	; 0x111
    28f4:	1596011c 	ldrne	r0, [r6, #284]	; 0x11c
    28f8:	12822002 	addne	r2, r2, #2
    28fc:	17902102 	ldrne	r2, [r0, r2, lsl #2]
    2900:	059c2004 	ldreq	r2, [ip, #4]
    2904:	e088c001 	add	ip, r8, r1
    2908:	e081c08c 	add	ip, r1, ip, lsl #1
    290c:	e087010c 	add	r0, r7, ip, lsl #2
    2910:	e5d0e024 	ldrb	lr, [r0, #36]	; 0x24
    2914:	e08cc00e 	add	ip, ip, lr
    2918:	e28cc002 	add	ip, ip, #2
    291c:	e797a10c 	ldr	sl, [r7, ip, lsl #2]
    2920:	e5d0c01c 	ldrb	ip, [r0, #28]
    2924:	e1a09a01 	lsl	r9, r1, #20
    2928:	e35c0000 	cmp	ip, #0
    292c:	e289c421 	add	ip, r9, #553648128	; 0x21000000
    2930:	1a000206 	bne	3150 <isr+0x1228>
    2934:	e1a02003 	mov	r2, r3
    2938:	e3a0e001 	mov	lr, #1
    293c:	e3a0b000 	mov	fp, #0
    2940:	e3a03000 	mov	r3, #0
    2944:	e3a09801 	mov	r9, #65536	; 0x10000
    2948:	e28ca020 	add	sl, ip, #32
    294c:	e58c2008 	str	r2, [ip, #8]
    2950:	e58c300c 	str	r3, [ip, #12]
    2954:	e58ca010 	str	sl, [ip, #16]
    2958:	e58cb014 	str	fp, [ip, #20]
    295c:	e58c9018 	str	r9, [ip, #24]
    2960:	e5cce007 	strb	lr, [ip, #7]
    2964:	e5c0e01c 	strb	lr, [r0, #28]
    2968:	e0883001 	add	r3, r8, r1
    296c:	e0813083 	add	r3, r1, r3, lsl #1
    2970:	e0873103 	add	r3, r7, r3, lsl #2
    2974:	e5d3301c 	ldrb	r3, [r3, #28]
    2978:	e3530003 	cmp	r3, #3
    297c:	1afffe0e 	bne	21bc <isr+0x294>
    2980:	e59630ec 	ldr	r3, [r6, #236]	; 0xec
    2984:	e3530000 	cmp	r3, #0
    2988:	0a000006 	beq	29a8 <isr+0xa80>
    298c:	e5d63110 	ldrb	r3, [r6, #272]	; 0x110
    2990:	e5962118 	ldr	r2, [r6, #280]	; 0x118
    2994:	e0822003 	add	r2, r2, r3
    2998:	e5d23025 	ldrb	r3, [r2, #37]	; 0x25
    299c:	e2433001 	sub	r3, r3, #1
    29a0:	e20330ff 	and	r3, r3, #255	; 0xff
    29a4:	e5c23025 	strb	r3, [r2, #37]	; 0x25
    29a8:	e59630f0 	ldr	r3, [r6, #240]	; 0xf0
    29ac:	e3530000 	cmp	r3, #0
    29b0:	0afffe01 	beq	21bc <isr+0x294>
    29b4:	e5d63111 	ldrb	r3, [r6, #273]	; 0x111
    29b8:	e596211c 	ldr	r2, [r6, #284]	; 0x11c
    29bc:	e0822003 	add	r2, r2, r3
    29c0:	e5d23025 	ldrb	r3, [r2, #37]	; 0x25
    29c4:	e2433001 	sub	r3, r3, #1
    29c8:	e20330ff 	and	r3, r3, #255	; 0xff
    29cc:	e5c23025 	strb	r3, [r2, #37]	; 0x25
    29d0:	eafffdf9 	b	21bc <isr+0x294>
    29d4:	e592c0f4 	ldr	ip, [r2, #244]	; 0xf4
    29d8:	e35c0000 	cmp	ip, #0
    29dc:	0afffe77 	beq	23c0 <isr+0x498>
    29e0:	e592c0e4 	ldr	ip, [r2, #228]	; 0xe4
    29e4:	e153000c 	cmp	r3, ip
    29e8:	1afffe65 	bne	2384 <isr+0x45c>
    29ec:	e592c0f8 	ldr	ip, [r2, #248]	; 0xf8
    29f0:	e35c0000 	cmp	ip, #0
    29f4:	0afffe71 	beq	23c0 <isr+0x498>
    29f8:	e592c0e8 	ldr	ip, [r2, #232]	; 0xe8
    29fc:	e153000c 	cmp	r3, ip
    2a00:	1afffe62 	bne	2390 <isr+0x468>
    2a04:	e59220fc 	ldr	r2, [r2, #252]	; 0xfc
    2a08:	e3520000 	cmp	r2, #0
    2a0c:	1afffe5f 	bne	2390 <isr+0x468>
    2a10:	eafffe6a 	b	23c0 <isr+0x498>
    2a14:	e5de501c 	ldrb	r5, [lr, #28]
    2a18:	e20550ff 	and	r5, r5, #255	; 0xff
    2a1c:	e3550001 	cmp	r5, #1
    2a20:	0a00032e 	beq	36e0 <isr+0x17b8>
    2a24:	e5de501c 	ldrb	r5, [lr, #28]
    2a28:	e3550002 	cmp	r5, #2
    2a2c:	0a0003ba 	beq	391c <isr+0x19f4>
    2a30:	e5dee01c 	ldrb	lr, [lr, #28]
    2a34:	e35e0003 	cmp	lr, #3
    2a38:	1a00000f 	bne	2a7c <isr+0xb54>
    2a3c:	e3a0e02c 	mov	lr, #44	; 0x2c
    2a40:	e5933004 	ldr	r3, [r3, #4]
    2a44:	e3a0b000 	mov	fp, #0
    2a48:	e593a008 	ldr	sl, [r3, #8]
    2a4c:	e3a09801 	mov	r9, #65536	; 0x10000
    2a50:	e3a03000 	mov	r3, #0
    2a54:	e3a06001 	mov	r6, #1
    2a58:	e3a05004 	mov	r5, #4
    2a5c:	e02e7e91 	mla	lr, r1, lr, r7
    2a60:	e58c2008 	str	r2, [ip, #8]
    2a64:	e58c300c 	str	r3, [ip, #12]
    2a68:	e58ca010 	str	sl, [ip, #16]
    2a6c:	e58cb014 	str	fp, [ip, #20]
    2a70:	e58c9018 	str	r9, [ip, #24]
    2a74:	e5cc6007 	strb	r6, [ip, #7]
    2a78:	e5ce501c 	strb	r5, [lr, #28]
    2a7c:	e3a03000 	mov	r3, #0
    2a80:	e0444000 	sub	r4, r4, r0
    2a84:	e0600184 	rsb	r0, r0, r4, lsl #3
    2a88:	e0888001 	add	r8, r8, r1
    2a8c:	e1a00180 	lsl	r0, r0, #3
    2a90:	e0811088 	add	r1, r1, r8, lsl #1
    2a94:	e0801101 	add	r1, r0, r1, lsl #2
    2a98:	e7972001 	ldr	r2, [r7, r1]
    2a9c:	e0877001 	add	r7, r7, r1
    2aa0:	e5c23000 	strb	r3, [r2]
    2aa4:	e5873020 	str	r3, [r7, #32]
    2aa8:	e5d7301c 	ldrb	r3, [r7, #28]
    2aac:	e3530000 	cmp	r3, #0
    2ab0:	1afffd3e 	bne	1fb0 <isr+0x88>
    2ab4:	e3a01001 	mov	r1, #1
    2ab8:	e59f3478 	ldr	r3, [pc, #1144]	; 2f38 <isr+0x1010>
    2abc:	e5932000 	ldr	r2, [r3]
    2ac0:	e2422001 	sub	r2, r2, #1
    2ac4:	e5832000 	str	r2, [r3]
    2ac8:	e5c31004 	strb	r1, [r3, #4]
    2acc:	eafffd37 	b	1fb0 <isr+0x88>
    2ad0:	e596e008 	ldr	lr, [r6, #8]
    2ad4:	e35e0000 	cmp	lr, #0
    2ad8:	dafffdc1 	ble	21e4 <isr+0x2bc>
    2adc:	e286000c 	add	r0, r6, #12
    2ae0:	e080e10e 	add	lr, r0, lr, lsl #2
    2ae4:	ea00000d 	b	2b20 <isr+0xbf8>
    2ae8:	e593c0dc 	ldr	ip, [r3, #220]	; 0xdc
    2aec:	e156000c 	cmp	r6, ip
    2af0:	0a00001b 	beq	2b64 <isr+0xc3c>
    2af4:	e593c0e0 	ldr	ip, [r3, #224]	; 0xe0
    2af8:	e156000c 	cmp	r6, ip
    2afc:	0a000025 	beq	2b98 <isr+0xc70>
    2b00:	e593c0e4 	ldr	ip, [r3, #228]	; 0xe4
    2b04:	e156000c 	cmp	r6, ip
    2b08:	0a00002f 	beq	2bcc <isr+0xca4>
    2b0c:	e593c0e8 	ldr	ip, [r3, #232]	; 0xe8
    2b10:	e156000c 	cmp	r6, ip
    2b14:	0a000039 	beq	2c00 <isr+0xcd8>
    2b18:	e15e0000 	cmp	lr, r0
    2b1c:	0afffdb0 	beq	21e4 <isr+0x2bc>
    2b20:	e5b03004 	ldr	r3, [r0, #4]!
    2b24:	e593c0d8 	ldr	ip, [r3, #216]	; 0xd8
    2b28:	e156000c 	cmp	r6, ip
    2b2c:	1affffed 	bne	2ae8 <isr+0xbc0>
    2b30:	e593c0ec 	ldr	ip, [r3, #236]	; 0xec
    2b34:	e35c0000 	cmp	ip, #0
    2b38:	0affffea 	beq	2ae8 <isr+0xbc0>
    2b3c:	e087c002 	add	ip, r7, r2
    2b40:	e5dc9024 	ldrb	r9, [ip, #36]	; 0x24
    2b44:	e08cc009 	add	ip, ip, r9
    2b48:	e5dc9025 	ldrb	r9, [ip, #37]	; 0x25
    2b4c:	e2899001 	add	r9, r9, #1
    2b50:	e20990ff 	and	r9, r9, #255	; 0xff
    2b54:	e5cc9025 	strb	r9, [ip, #37]	; 0x25
    2b58:	e593c0dc 	ldr	ip, [r3, #220]	; 0xdc
    2b5c:	e156000c 	cmp	r6, ip
    2b60:	1affffe3 	bne	2af4 <isr+0xbcc>
    2b64:	e593c0f0 	ldr	ip, [r3, #240]	; 0xf0
    2b68:	e35c0000 	cmp	ip, #0
    2b6c:	0affffe0 	beq	2af4 <isr+0xbcc>
    2b70:	e087c002 	add	ip, r7, r2
    2b74:	e5dc9024 	ldrb	r9, [ip, #36]	; 0x24
    2b78:	e08cc009 	add	ip, ip, r9
    2b7c:	e5dc9025 	ldrb	r9, [ip, #37]	; 0x25
    2b80:	e2899001 	add	r9, r9, #1
    2b84:	e20990ff 	and	r9, r9, #255	; 0xff
    2b88:	e5cc9025 	strb	r9, [ip, #37]	; 0x25
    2b8c:	e593c0e0 	ldr	ip, [r3, #224]	; 0xe0
    2b90:	e156000c 	cmp	r6, ip
    2b94:	1affffd9 	bne	2b00 <isr+0xbd8>
    2b98:	e593c0f4 	ldr	ip, [r3, #244]	; 0xf4
    2b9c:	e35c0000 	cmp	ip, #0
    2ba0:	0affffd6 	beq	2b00 <isr+0xbd8>
    2ba4:	e087c002 	add	ip, r7, r2
    2ba8:	e5dc9024 	ldrb	r9, [ip, #36]	; 0x24
    2bac:	e08cc009 	add	ip, ip, r9
    2bb0:	e5dc9025 	ldrb	r9, [ip, #37]	; 0x25
    2bb4:	e2899001 	add	r9, r9, #1
    2bb8:	e20990ff 	and	r9, r9, #255	; 0xff
    2bbc:	e5cc9025 	strb	r9, [ip, #37]	; 0x25
    2bc0:	e593c0e4 	ldr	ip, [r3, #228]	; 0xe4
    2bc4:	e156000c 	cmp	r6, ip
    2bc8:	1affffcf 	bne	2b0c <isr+0xbe4>
    2bcc:	e593c0f8 	ldr	ip, [r3, #248]	; 0xf8
    2bd0:	e35c0000 	cmp	ip, #0
    2bd4:	0affffcc 	beq	2b0c <isr+0xbe4>
    2bd8:	e087c002 	add	ip, r7, r2
    2bdc:	e5dc9024 	ldrb	r9, [ip, #36]	; 0x24
    2be0:	e08cc009 	add	ip, ip, r9
    2be4:	e5dc9025 	ldrb	r9, [ip, #37]	; 0x25
    2be8:	e2899001 	add	r9, r9, #1
    2bec:	e20990ff 	and	r9, r9, #255	; 0xff
    2bf0:	e5cc9025 	strb	r9, [ip, #37]	; 0x25
    2bf4:	e593c0e8 	ldr	ip, [r3, #232]	; 0xe8
    2bf8:	e156000c 	cmp	r6, ip
    2bfc:	1affffc5 	bne	2b18 <isr+0xbf0>
    2c00:	e59330fc 	ldr	r3, [r3, #252]	; 0xfc
    2c04:	e3530000 	cmp	r3, #0
    2c08:	0affffc2 	beq	2b18 <isr+0xbf0>
    2c0c:	e0873002 	add	r3, r7, r2
    2c10:	e5d3c024 	ldrb	ip, [r3, #36]	; 0x24
    2c14:	e083300c 	add	r3, r3, ip
    2c18:	e5d3c025 	ldrb	ip, [r3, #37]	; 0x25
    2c1c:	e28cc001 	add	ip, ip, #1
    2c20:	e20cc0ff 	and	ip, ip, #255	; 0xff
    2c24:	e5c3c025 	strb	ip, [r3, #37]	; 0x25
    2c28:	eaffffba 	b	2b18 <isr+0xbf0>
    2c2c:	0afffde3 	beq	23c0 <isr+0x498>
    2c30:	e3a0c000 	mov	ip, #0
    2c34:	e0443000 	sub	r3, r4, r0
    2c38:	e0603183 	rsb	r3, r0, r3, lsl #3
    2c3c:	e0882001 	add	r2, r8, r1
    2c40:	e1a03183 	lsl	r3, r3, #3
    2c44:	e0812082 	add	r2, r1, r2, lsl #1
    2c48:	e0833102 	add	r3, r3, r2, lsl #2
    2c4c:	e0873003 	add	r3, r7, r3
    2c50:	e5c3c01c 	strb	ip, [r3, #28]
    2c54:	eaffff88 	b	2a7c <isr+0xb54>
    2c58:	e5d03025 	ldrb	r3, [r0, #37]	; 0x25
    2c5c:	e21330ff 	ands	r3, r3, #255	; 0xff
    2c60:	0a000003 	beq	2c74 <isr+0xd4c>
    2c64:	e5d03026 	ldrb	r3, [r0, #38]	; 0x26
    2c68:	e3530000 	cmp	r3, #0
    2c6c:	1afffd52 	bne	21bc <isr+0x294>
    2c70:	e3a03001 	mov	r3, #1
    2c74:	e0880001 	add	r0, r8, r1
    2c78:	e0810080 	add	r0, r1, r0, lsl #1
    2c7c:	e0870100 	add	r0, r7, r0, lsl #2
    2c80:	e596e0ec 	ldr	lr, [r6, #236]	; 0xec
    2c84:	e5c03024 	strb	r3, [r0, #36]	; 0x24
    2c88:	e35e0000 	cmp	lr, #0
    2c8c:	15d63110 	ldrbne	r3, [r6, #272]	; 0x110
    2c90:	15960118 	ldrne	r0, [r6, #280]	; 0x118
    2c94:	12833002 	addne	r3, r3, #2
    2c98:	17903103 	ldrne	r3, [r0, r3, lsl #2]
    2c9c:	059c3000 	ldreq	r3, [ip]
    2ca0:	eaffff0a 	b	28d0 <isr+0x9a8>
    2ca4:	e0882001 	add	r2, r8, r1
    2ca8:	e0812082 	add	r2, r1, r2, lsl #1
    2cac:	e0872102 	add	r2, r7, r2, lsl #2
    2cb0:	e5d201dd 	ldrb	r0, [r2, #477]	; 0x1dd
    2cb4:	e3500000 	cmp	r0, #0
    2cb8:	e593a000 	ldr	sl, [r3]
    2cbc:	0afffce4 	beq	2054 <isr+0x12c>
    2cc0:	e5d201de 	ldrb	r0, [r2, #478]	; 0x1de
    2cc4:	e3500000 	cmp	r0, #0
    2cc8:	0afffced 	beq	2084 <isr+0x15c>
    2ccc:	e5d231df 	ldrb	r3, [r2, #479]	; 0x1df
    2cd0:	e3530000 	cmp	r3, #0
    2cd4:	1afffd38 	bne	21bc <isr+0x294>
    2cd8:	e0883001 	add	r3, r8, r1
    2cdc:	e0813083 	add	r3, r1, r3, lsl #1
    2ce0:	e0873103 	add	r3, r7, r3, lsl #2
    2ce4:	e59331c8 	ldr	r3, [r3, #456]	; 0x1c8
    2ce8:	eafffd33 	b	21bc <isr+0x294>
    2cec:	e5962118 	ldr	r2, [r6, #280]	; 0x118
    2cf0:	e15a0002 	cmp	sl, r2
    2cf4:	e5d63110 	ldrb	r3, [r6, #272]	; 0x110
    2cf8:	0a00014e 	beq	3238 <isr+0x1310>
    2cfc:	e2833002 	add	r3, r3, #2
    2d00:	e7923103 	ldr	r3, [r2, r3, lsl #2]
    2d04:	e3a02000 	mov	r2, #0
    2d08:	e58d3000 	str	r3, [sp]
    2d0c:	eafffe72 	b	26dc <isr+0x7b4>
    2d10:	e0882001 	add	r2, r8, r1
    2d14:	e0812082 	add	r2, r1, r2, lsl #1
    2d18:	e087c102 	add	ip, r7, r2, lsl #2
    2d1c:	e5dce1dc 	ldrb	lr, [ip, #476]	; 0x1dc
    2d20:	e082200e 	add	r2, r2, lr
    2d24:	e2822070 	add	r2, r2, #112	; 0x70
    2d28:	e797a102 	ldr	sl, [r7, r2, lsl #2]
    2d2c:	e5dce1d4 	ldrb	lr, [ip, #468]	; 0x1d4
    2d30:	e35e0000 	cmp	lr, #0
    2d34:	03a05001 	moveq	r5, #1
    2d38:	e5932004 	ldr	r2, [r3, #4]
    2d3c:	e5922014 	ldr	r2, [r2, #20]
    2d40:	05cc51d4 	strbeq	r5, [ip, #468]	; 0x1d4
    2d44:	e088c001 	add	ip, r8, r1
    2d48:	e081c08c 	add	ip, r1, ip, lsl #1
    2d4c:	e087c10c 	add	ip, r7, ip, lsl #2
    2d50:	e5dc51d4 	ldrb	r5, [ip, #468]	; 0x1d4
    2d54:	e20550ff 	and	r5, r5, #255	; 0xff
    2d58:	e1a03a01 	lsl	r3, r1, #20
    2d5c:	e3550001 	cmp	r5, #1
    2d60:	e283e422 	add	lr, r3, #570425344	; 0x22000000
    2d64:	0a0001b1 	beq	3430 <isr+0x1508>
    2d68:	e5dc31d4 	ldrb	r3, [ip, #468]	; 0x1d4
    2d6c:	e3530002 	cmp	r3, #2
    2d70:	0a0001d3 	beq	34c4 <isr+0x159c>
    2d74:	e5dc31d4 	ldrb	r3, [ip, #468]	; 0x1d4
    2d78:	e3530003 	cmp	r3, #3
    2d7c:	1affff3e 	bne	2a7c <isr+0xb54>
    2d80:	e3a0b000 	mov	fp, #0
    2d84:	e3a03000 	mov	r3, #0
    2d88:	e3a09801 	mov	r9, #65536	; 0x10000
    2d8c:	e3a06001 	mov	r6, #1
    2d90:	e3a05004 	mov	r5, #4
    2d94:	e58ea008 	str	sl, [lr, #8]
    2d98:	e58eb00c 	str	fp, [lr, #12]
    2d9c:	e58e2010 	str	r2, [lr, #16]
    2da0:	e58e3014 	str	r3, [lr, #20]
    2da4:	e58e9018 	str	r9, [lr, #24]
    2da8:	e5ce6007 	strb	r6, [lr, #7]
    2dac:	e5cc51d4 	strb	r5, [ip, #468]	; 0x1d4
    2db0:	eaffff31 	b	2a7c <isr+0xb54>
    2db4:	e0882001 	add	r2, r8, r1
    2db8:	e0812082 	add	r2, r1, r2, lsl #1
    2dbc:	e087e102 	add	lr, r7, r2, lsl #2
    2dc0:	e5dec024 	ldrb	ip, [lr, #36]	; 0x24
    2dc4:	e082200c 	add	r2, r2, ip
    2dc8:	e2822002 	add	r2, r2, #2
    2dcc:	e7972102 	ldr	r2, [r7, r2, lsl #2]
    2dd0:	e5dec01c 	ldrb	ip, [lr, #28]
    2dd4:	e1a06a01 	lsl	r6, r1, #20
    2dd8:	e35c0000 	cmp	ip, #0
    2ddc:	e286c421 	add	ip, r6, #553648128	; 0x21000000
    2de0:	1affff0b 	bne	2a14 <isr+0xaec>
    2de4:	e3a05001 	mov	r5, #1
    2de8:	e3a03000 	mov	r3, #0
    2dec:	e3a0a000 	mov	sl, #0
    2df0:	e3a0b000 	mov	fp, #0
    2df4:	e3a06801 	mov	r6, #65536	; 0x10000
    2df8:	e28c2020 	add	r2, ip, #32
    2dfc:	e58ca008 	str	sl, [ip, #8]
    2e00:	e58cb00c 	str	fp, [ip, #12]
    2e04:	e58c2010 	str	r2, [ip, #16]
    2e08:	e58c3014 	str	r3, [ip, #20]
    2e0c:	e58c6018 	str	r6, [ip, #24]
    2e10:	e5cc5007 	strb	r5, [ip, #7]
    2e14:	e5ce501c 	strb	r5, [lr, #28]
    2e18:	eaffff17 	b	2a7c <isr+0xb54>
    2e1c:	e0882001 	add	r2, r8, r1
    2e20:	e0812082 	add	r2, r1, r2, lsl #1
    2e24:	e087e102 	add	lr, r7, r2, lsl #2
    2e28:	e5dec8bc 	ldrb	ip, [lr, #2236]	; 0x8bc
    2e2c:	e082200c 	add	r2, r2, ip
    2e30:	e2822f8a 	add	r2, r2, #552	; 0x228
    2e34:	e797a102 	ldr	sl, [r7, r2, lsl #2]
    2e38:	e5de28b4 	ldrb	r2, [lr, #2228]	; 0x8b4
    2e3c:	e1a0ca01 	lsl	ip, r1, #20
    2e40:	e3520000 	cmp	r2, #0
    2e44:	e28cc426 	add	ip, ip, #637534208	; 0x26000000
    2e48:	1a00013f 	bne	334c <isr+0x1424>
    2e4c:	e3a05001 	mov	r5, #1
    2e50:	e3a03000 	mov	r3, #0
    2e54:	e3a0a000 	mov	sl, #0
    2e58:	e3a0b000 	mov	fp, #0
    2e5c:	e3a06801 	mov	r6, #65536	; 0x10000
    2e60:	e28c2020 	add	r2, ip, #32
    2e64:	e58ca008 	str	sl, [ip, #8]
    2e68:	e58cb00c 	str	fp, [ip, #12]
    2e6c:	e58c2010 	str	r2, [ip, #16]
    2e70:	e58c3014 	str	r3, [ip, #20]
    2e74:	e58c6018 	str	r6, [ip, #24]
    2e78:	e5cc5007 	strb	r5, [ip, #7]
    2e7c:	e5ce58b4 	strb	r5, [lr, #2228]	; 0x8b4
    2e80:	eafffefd 	b	2a7c <isr+0xb54>
    2e84:	e0882001 	add	r2, r8, r1
    2e88:	e0812082 	add	r2, r1, r2, lsl #1
    2e8c:	e087c102 	add	ip, r7, r2, lsl #2
    2e90:	e5dce54c 	ldrb	lr, [ip, #1356]	; 0x54c
    2e94:	e082200e 	add	r2, r2, lr
    2e98:	e2822f53 	add	r2, r2, #332	; 0x14c
    2e9c:	e7972102 	ldr	r2, [r7, r2, lsl #2]
    2ea0:	e5dce544 	ldrb	lr, [ip, #1348]	; 0x544
    2ea4:	e5933004 	ldr	r3, [r3, #4]
    2ea8:	e35e0000 	cmp	lr, #0
    2eac:	e593a00c 	ldr	sl, [r3, #12]
    2eb0:	03a03001 	moveq	r3, #1
    2eb4:	05cc3544 	strbeq	r3, [ip, #1348]	; 0x544
    2eb8:	e0883001 	add	r3, r8, r1
    2ebc:	e0813083 	add	r3, r1, r3, lsl #1
    2ec0:	e0873103 	add	r3, r7, r3, lsl #2
    2ec4:	e5d3c544 	ldrb	ip, [r3, #1348]	; 0x544
    2ec8:	e35c0001 	cmp	ip, #1
    2ecc:	03a0c002 	moveq	ip, #2
    2ed0:	05c3c544 	strbeq	ip, [r3, #1348]	; 0x544
    2ed4:	e088c001 	add	ip, r8, r1
    2ed8:	e081c08c 	add	ip, r1, ip, lsl #1
    2edc:	e087c10c 	add	ip, r7, ip, lsl #2
    2ee0:	e5dc3544 	ldrb	r3, [ip, #1348]	; 0x544
    2ee4:	e3530002 	cmp	r3, #2
    2ee8:	e1a0ea01 	lsl	lr, r1, #20
    2eec:	0a00015e 	beq	346c <isr+0x1544>
    2ef0:	e5dc3544 	ldrb	r3, [ip, #1348]	; 0x544
    2ef4:	e3530003 	cmp	r3, #3
    2ef8:	1afffedf 	bne	2a7c <isr+0xb54>
    2efc:	e3a03000 	mov	r3, #0
    2f00:	e3a0b000 	mov	fp, #0
    2f04:	e3a09801 	mov	r9, #65536	; 0x10000
    2f08:	e3a06001 	mov	r6, #1
    2f0c:	e3a05004 	mov	r5, #4
    2f10:	e28ee309 	add	lr, lr, #603979776	; 0x24000000
    2f14:	e58e2008 	str	r2, [lr, #8]
    2f18:	e58e300c 	str	r3, [lr, #12]
    2f1c:	e58ea010 	str	sl, [lr, #16]
    2f20:	e58eb014 	str	fp, [lr, #20]
    2f24:	e58e9018 	str	r9, [lr, #24]
    2f28:	e5ce6007 	strb	r6, [lr, #7]
    2f2c:	e5cc5544 	strb	r5, [ip, #1348]	; 0x544
    2f30:	eafffed1 	b	2a7c <isr+0xb54>
    2f34:	80000a98 	mulhi	r0, r8, sl
    2f38:	80000a90 	mulhi	r0, r0, sl
    2f3c:	00004204 	andeq	r4, r0, r4, lsl #4
    2f40:	24040058 	strcs	r0, [r4], #-88	; 0xffffffa8
    2f44:	230180a7 	movwcs	r8, #4263	; 0x10a7
    2f48:	21010020 	tstcs	r1, r0, lsr #32
    2f4c:	2701c237 	smladxcs	r1, r7, r2, ip
    2f50:	26030027 	strcs	r0, [r3], -r7, lsr #32
    2f54:	2502c030 	strcs	ip, [r2, #-48]	; 0xffffffd0
    2f58:	2701c238 	smladxcs	r1, r8, r2, ip
    2f5c:	2701c248 	strcs	ip, [r1, -r8, asr #4]
    2f60:	22030098 	andcs	r0, r3, #152	; 0x98
    2f64:	220300a8 	andcs	r0, r3, #168	; 0xa8
    2f68:	220300c0 	andcs	r0, r3, #192	; 0xc0
    2f6c:	220300c8 	andcs	r0, r3, #200	; 0xc8
    2f70:	22030020 	andcs	r0, r3, #32
    2f74:	230180a8 	movwcs	r8, #4264	; 0x10a8
    2f78:	230180b8 	movwcs	r8, #4280	; 0x10b8
    2f7c:	21040028 	tstcs	r4, r8, lsr #32
    2f80:	21040038 	tstcs	r4, r8, lsr r0
    2f84:	24040028 	strcs	r0, [r4], #-40	; 0xffffffd8
    2f88:	24040048 	strcs	r0, [r4], #-72	; 0xffffffb8
    2f8c:	24040050 	strcs	r0, [r4], #-80	; 0xffffffb0
    2f90:	24040027 	strcs	r0, [r4], #-39	; 0xffffffd9
    2f94:	26030028 	strcs	r0, [r3], -r8, lsr #32
    2f98:	26030038 			; <UNDEFINED> instruction: 0x26030038
    2f9c:	2502c028 	strcs	ip, [r2, #-40]	; 0xffffffd8
    2fa0:	e0882001 	add	r2, r8, r1
    2fa4:	e0812082 	add	r2, r1, r2, lsl #1
    2fa8:	e087e102 	add	lr, r7, r2, lsl #2
    2fac:	e5dec704 	ldrb	ip, [lr, #1796]	; 0x704
    2fb0:	e082200c 	add	r2, r2, ip
    2fb4:	e2822f6e 	add	r2, r2, #440	; 0x1b8
    2fb8:	e2822002 	add	r2, r2, #2
    2fbc:	e797a102 	ldr	sl, [r7, r2, lsl #2]
    2fc0:	e5de26fc 	ldrb	r2, [lr, #1788]	; 0x6fc
    2fc4:	e1a0ca01 	lsl	ip, r1, #20
    2fc8:	e3520000 	cmp	r2, #0
    2fcc:	e28cc425 	add	ip, ip, #620756992	; 0x25000000
    2fd0:	1a0000f3 	bne	33a4 <isr+0x147c>
    2fd4:	e3a05001 	mov	r5, #1
    2fd8:	e3a03000 	mov	r3, #0
    2fdc:	e3a0a000 	mov	sl, #0
    2fe0:	e3a0b000 	mov	fp, #0
    2fe4:	e3a06903 	mov	r6, #49152	; 0xc000
    2fe8:	e28c2020 	add	r2, ip, #32
    2fec:	e58ca008 	str	sl, [ip, #8]
    2ff0:	e58cb00c 	str	fp, [ip, #12]
    2ff4:	e58c2010 	str	r2, [ip, #16]
    2ff8:	e58c3014 	str	r3, [ip, #20]
    2ffc:	e58c6018 	str	r6, [ip, #24]
    3000:	e5cc5007 	strb	r5, [ip, #7]
    3004:	e5ce56fc 	strb	r5, [lr, #1788]	; 0x6fc
    3008:	eafffe9b 	b	2a7c <isr+0xb54>
    300c:	e0882001 	add	r2, r8, r1
    3010:	e0812082 	add	r2, r1, r2, lsl #1
    3014:	e087e102 	add	lr, r7, r2, lsl #2
    3018:	e5dec394 	ldrb	ip, [lr, #916]	; 0x394
    301c:	e082200c 	add	r2, r2, ip
    3020:	e28220de 	add	r2, r2, #222	; 0xde
    3024:	e797a102 	ldr	sl, [r7, r2, lsl #2]
    3028:	e5de238c 	ldrb	r2, [lr, #908]	; 0x38c
    302c:	e1a0ca01 	lsl	ip, r1, #20
    3030:	e3520000 	cmp	r2, #0
    3034:	e28cc423 	add	ip, ip, #587202560	; 0x23000000
    3038:	1a000086 	bne	3258 <isr+0x1330>
    303c:	e3a05001 	mov	r5, #1
    3040:	e3a03000 	mov	r3, #0
    3044:	e3a0a000 	mov	sl, #0
    3048:	e3a0b000 	mov	fp, #0
    304c:	e3a06801 	mov	r6, #65536	; 0x10000
    3050:	e28c2020 	add	r2, ip, #32
    3054:	e58ca008 	str	sl, [ip, #8]
    3058:	e58cb00c 	str	fp, [ip, #12]
    305c:	e58c2010 	str	r2, [ip, #16]
    3060:	e58c3014 	str	r3, [ip, #20]
    3064:	e58c6018 	str	r6, [ip, #24]
    3068:	e5cc5007 	strb	r5, [ip, #7]
    306c:	e5ce538c 	strb	r5, [lr, #908]	; 0x38c
    3070:	eafffe81 	b	2a7c <isr+0xb54>
    3074:	e0882001 	add	r2, r8, r1
    3078:	e0812082 	add	r2, r1, r2, lsl #1
    307c:	e087e102 	add	lr, r7, r2, lsl #2
    3080:	e5deca74 	ldrb	ip, [lr, #2676]	; 0xa74
    3084:	e082200c 	add	r2, r2, ip
    3088:	e2822fa5 	add	r2, r2, #660	; 0x294
    308c:	e2822002 	add	r2, r2, #2
    3090:	e797a102 	ldr	sl, [r7, r2, lsl #2]
    3094:	e5de2a6c 	ldrb	r2, [lr, #2668]	; 0xa6c
    3098:	e1a0ca01 	lsl	ip, r1, #20
    309c:	e3520000 	cmp	r2, #0
    30a0:	e28cc427 	add	ip, ip, #654311424	; 0x27000000
    30a4:	1a000081 	bne	32b0 <isr+0x1388>
    30a8:	e3a03000 	mov	r3, #0
    30ac:	e3a02000 	mov	r2, #0
    30b0:	e3a05001 	mov	r5, #1
    30b4:	e3a0b000 	mov	fp, #0
    30b8:	e58c2008 	str	r2, [ip, #8]
    30bc:	e58c300c 	str	r3, [ip, #12]
    30c0:	e51f318c 	ldr	r3, [pc, #-396]	; 2f3c <isr+0x1014>
    30c4:	e28ca020 	add	sl, ip, #32
    30c8:	e58ca010 	str	sl, [ip, #16]
    30cc:	e58cb014 	str	fp, [ip, #20]
    30d0:	e58c3018 	str	r3, [ip, #24]
    30d4:	e5cc5007 	strb	r5, [ip, #7]
    30d8:	e5ce5a6c 	strb	r5, [lr, #2668]	; 0xa6c
    30dc:	eafffe66 	b	2a7c <isr+0xb54>
    30e0:	e5932530 	ldr	r2, [r3, #1328]	; 0x530
    30e4:	e0883001 	add	r3, r8, r1
    30e8:	e0813083 	add	r3, r1, r3, lsl #1
    30ec:	e0873103 	add	r3, r7, r3, lsl #2
    30f0:	e5d3b54e 	ldrb	fp, [r3, #1358]	; 0x54e
    30f4:	e35b0000 	cmp	fp, #0
    30f8:	1a000002 	bne	3108 <isr+0x11e0>
    30fc:	e3520000 	cmp	r2, #0
    3100:	05932534 	ldreq	r2, [r3, #1332]	; 0x534
    3104:	1a00002c 	bne	31bc <isr+0x1294>
    3108:	e0883001 	add	r3, r8, r1
    310c:	e0813083 	add	r3, r1, r3, lsl #1
    3110:	e0873103 	add	r3, r7, r3, lsl #2
    3114:	e5d3b54f 	ldrb	fp, [r3, #1359]	; 0x54f
    3118:	e35b0000 	cmp	fp, #0
    311c:	1a000002 	bne	312c <isr+0x1204>
    3120:	e3520000 	cmp	r2, #0
    3124:	05932538 	ldreq	r2, [r3, #1336]	; 0x538
    3128:	1afffd92 	bne	2778 <isr+0x850>
    312c:	e0883001 	add	r3, r8, r1
    3130:	e0813083 	add	r3, r1, r3, lsl #1
    3134:	e0873103 	add	r3, r7, r3, lsl #2
    3138:	e5d3b550 	ldrb	fp, [r3, #1360]	; 0x550
    313c:	e35b0000 	cmp	fp, #0
    3140:	1afffc1d 	bne	21bc <isr+0x294>
    3144:	e3520000 	cmp	r2, #0
    3148:	0afffd9d 	beq	27c4 <isr+0x89c>
    314c:	eafffd95 	b	27a8 <isr+0x880>
    3150:	e5d0e01c 	ldrb	lr, [r0, #28]
    3154:	e20ee0ff 	and	lr, lr, #255	; 0xff
    3158:	e35e0001 	cmp	lr, #1
    315c:	0a000069 	beq	3308 <isr+0x13e0>
    3160:	e5d0301c 	ldrb	r3, [r0, #28]
    3164:	e3530002 	cmp	r3, #2
    3168:	0a0000a3 	beq	33fc <isr+0x14d4>
    316c:	e5d0301c 	ldrb	r3, [r0, #28]
    3170:	e3530003 	cmp	r3, #3
    3174:	1afffdfb 	bne	2968 <isr+0xa40>
    3178:	e1a0200a 	mov	r2, sl
    317c:	e3a03000 	mov	r3, #0
    3180:	e3a0a801 	mov	sl, #65536	; 0x10000
    3184:	e58c2008 	str	r2, [ip, #8]
    3188:	e58c300c 	str	r3, [ip, #12]
    318c:	e3a09001 	mov	r9, #1
    3190:	e3a0e004 	mov	lr, #4
    3194:	e3a02000 	mov	r2, #0
    3198:	e3a03000 	mov	r3, #0
    319c:	e58c2010 	str	r2, [ip, #16]
    31a0:	e58c3014 	str	r3, [ip, #20]
    31a4:	e58ca018 	str	sl, [ip, #24]
    31a8:	e5cc9007 	strb	r9, [ip, #7]
    31ac:	e5c0e01c 	strb	lr, [r0, #28]
    31b0:	eafffdec 	b	2968 <isr+0xa40>
    31b4:	e59ea004 	ldr	sl, [lr, #4]
    31b8:	eafffd5a 	b	2728 <isr+0x800>
    31bc:	e35c0000 	cmp	ip, #0
    31c0:	01a03000 	moveq	r3, r0
    31c4:	13a03000 	movne	r3, #0
    31c8:	e3530000 	cmp	r3, #0
    31cc:	0a00026a 	beq	3b7c <isr+0x1c54>
    31d0:	e0883001 	add	r3, r8, r1
    31d4:	e0813083 	add	r3, r1, r3, lsl #1
    31d8:	e0873103 	add	r3, r7, r3, lsl #2
    31dc:	e593c534 	ldr	ip, [r3, #1332]	; 0x534
    31e0:	e5d3b54f 	ldrb	fp, [r3, #1359]	; 0x54f
    31e4:	e35b0000 	cmp	fp, #0
    31e8:	0afffd62 	beq	2778 <isr+0x850>
    31ec:	e5d33550 	ldrb	r3, [r3, #1360]	; 0x550
    31f0:	e3530000 	cmp	r3, #0
    31f4:	1afffbf0 	bne	21bc <isr+0x294>
    31f8:	eafffd6a 	b	27a8 <isr+0x880>
    31fc:	e088c001 	add	ip, r8, r1
    3200:	e081c08c 	add	ip, r1, ip, lsl #1
    3204:	e08c2000 	add	r2, ip, r0
    3208:	e2822070 	add	r2, r2, #112	; 0x70
    320c:	e087c10c 	add	ip, r7, ip, lsl #2
    3210:	e7972102 	ldr	r2, [r7, r2, lsl #2]
    3214:	e5dc01dd 	ldrb	r0, [ip, #477]	; 0x1dd
    3218:	e210a0ff 	ands	sl, r0, #255	; 0xff
    321c:	13a0a000 	movne	sl, #0
    3220:	1afffb8f 	bne	2064 <isr+0x13c>
    3224:	e3520000 	cmp	r2, #0
    3228:	11a0c00a 	movne	ip, sl
    322c:	1afffba1 	bne	20b8 <isr+0x190>
    3230:	e1a0a002 	mov	sl, r2
    3234:	eafffb86 	b	2054 <isr+0x12c>
    3238:	e0882001 	add	r2, r8, r1
    323c:	e0812082 	add	r2, r1, r2, lsl #1
    3240:	e0823003 	add	r3, r2, r3
    3244:	e2833f53 	add	r3, r3, #332	; 0x14c
    3248:	e7972103 	ldr	r2, [r7, r3, lsl #2]
    324c:	e3a03000 	mov	r3, #0
    3250:	e58d3000 	str	r3, [sp]
    3254:	eafffd20 	b	26dc <isr+0x7b4>
    3258:	e5de238c 	ldrb	r2, [lr, #908]	; 0x38c
    325c:	e20220ff 	and	r2, r2, #255	; 0xff
    3260:	e3520001 	cmp	r2, #1
    3264:	0a00010c 	beq	369c <isr+0x1774>
    3268:	e5de238c 	ldrb	r2, [lr, #908]	; 0x38c
    326c:	e3520003 	cmp	r2, #3
    3270:	1afffe01 	bne	2a7c <isr+0xb54>
    3274:	e5933004 	ldr	r3, [r3, #4]
    3278:	e3a0b000 	mov	fp, #0
    327c:	e593200c 	ldr	r2, [r3, #12]
    3280:	e3a09901 	mov	r9, #16384	; 0x4000
    3284:	e3a03000 	mov	r3, #0
    3288:	e3a06001 	mov	r6, #1
    328c:	e3a05004 	mov	r5, #4
    3290:	e58ca008 	str	sl, [ip, #8]
    3294:	e58cb00c 	str	fp, [ip, #12]
    3298:	e58c2010 	str	r2, [ip, #16]
    329c:	e58c3014 	str	r3, [ip, #20]
    32a0:	e58c9018 	str	r9, [ip, #24]
    32a4:	e5cc6007 	strb	r6, [ip, #7]
    32a8:	e5ce538c 	strb	r5, [lr, #908]	; 0x38c
    32ac:	eafffdf2 	b	2a7c <isr+0xb54>
    32b0:	e5de2a6c 	ldrb	r2, [lr, #2668]	; 0xa6c
    32b4:	e20220ff 	and	r2, r2, #255	; 0xff
    32b8:	e3520001 	cmp	r2, #1
    32bc:	0a000118 	beq	3724 <isr+0x17fc>
    32c0:	e5de2a6c 	ldrb	r2, [lr, #2668]	; 0xa6c
    32c4:	e3520003 	cmp	r2, #3
    32c8:	1afffdeb 	bne	2a7c <isr+0xb54>
    32cc:	e5933004 	ldr	r3, [r3, #4]
    32d0:	e3a0b000 	mov	fp, #0
    32d4:	e5932004 	ldr	r2, [r3, #4]
    32d8:	e3a09903 	mov	r9, #49152	; 0xc000
    32dc:	e3a03000 	mov	r3, #0
    32e0:	e3a06001 	mov	r6, #1
    32e4:	e3a05004 	mov	r5, #4
    32e8:	e58ca008 	str	sl, [ip, #8]
    32ec:	e58cb00c 	str	fp, [ip, #12]
    32f0:	e58c2010 	str	r2, [ip, #16]
    32f4:	e58c3014 	str	r3, [ip, #20]
    32f8:	e58c9018 	str	r9, [ip, #24]
    32fc:	e5cc6007 	strb	r6, [ip, #7]
    3300:	e5ce5a6c 	strb	r5, [lr, #2668]	; 0xa6c
    3304:	eafffddc 	b	2a7c <isr+0xb54>
    3308:	e51f33c8 	ldr	r3, [pc, #-968]	; 2f48 <isr+0x1020>
    330c:	e0893003 	add	r3, r9, r3
    3310:	e1a09003 	mov	r9, r3
    3314:	e3a0a000 	mov	sl, #0
    3318:	e3a03000 	mov	r3, #0
    331c:	e88d0600 	stm	sp, {r9, sl}
    3320:	e3a0a801 	mov	sl, #65536	; 0x10000
    3324:	e3a09002 	mov	r9, #2
    3328:	e58c2008 	str	r2, [ip, #8]
    332c:	e58c300c 	str	r3, [ip, #12]
    3330:	e89d000c 	ldm	sp, {r2, r3}
    3334:	e58c2010 	str	r2, [ip, #16]
    3338:	e58c3014 	str	r3, [ip, #20]
    333c:	e58ca018 	str	sl, [ip, #24]
    3340:	e5cce007 	strb	lr, [ip, #7]
    3344:	e5c0901c 	strb	r9, [r0, #28]
    3348:	eafffd86 	b	2968 <isr+0xa40>
    334c:	e5de28b4 	ldrb	r2, [lr, #2228]	; 0x8b4
    3350:	e20220ff 	and	r2, r2, #255	; 0xff
    3354:	e3520001 	cmp	r2, #1
    3358:	0a0000fd 	beq	3754 <isr+0x182c>
    335c:	e5de28b4 	ldrb	r2, [lr, #2228]	; 0x8b4
    3360:	e3520003 	cmp	r2, #3
    3364:	1afffdc4 	bne	2a7c <isr+0xb54>
    3368:	e5933004 	ldr	r3, [r3, #4]
    336c:	e3a0b000 	mov	fp, #0
    3370:	e5932004 	ldr	r2, [r3, #4]
    3374:	e3a09901 	mov	r9, #16384	; 0x4000
    3378:	e3a03000 	mov	r3, #0
    337c:	e3a06001 	mov	r6, #1
    3380:	e3a05004 	mov	r5, #4
    3384:	e58ca008 	str	sl, [ip, #8]
    3388:	e58cb00c 	str	fp, [ip, #12]
    338c:	e58c2010 	str	r2, [ip, #16]
    3390:	e58c3014 	str	r3, [ip, #20]
    3394:	e58c9018 	str	r9, [ip, #24]
    3398:	e5cc6007 	strb	r6, [ip, #7]
    339c:	e5ce58b4 	strb	r5, [lr, #2228]	; 0x8b4
    33a0:	eafffdb5 	b	2a7c <isr+0xb54>
    33a4:	e5de26fc 	ldrb	r2, [lr, #1788]	; 0x6fc
    33a8:	e20220ff 	and	r2, r2, #255	; 0xff
    33ac:	e3520001 	cmp	r2, #1
    33b0:	0a0000f3 	beq	3784 <isr+0x185c>
    33b4:	e5de26fc 	ldrb	r2, [lr, #1788]	; 0x6fc
    33b8:	e3520003 	cmp	r2, #3
    33bc:	1afffdae 	bne	2a7c <isr+0xb54>
    33c0:	e5933004 	ldr	r3, [r3, #4]
    33c4:	e3a0b000 	mov	fp, #0
    33c8:	e5932004 	ldr	r2, [r3, #4]
    33cc:	e3a09801 	mov	r9, #65536	; 0x10000
    33d0:	e3a03000 	mov	r3, #0
    33d4:	e3a06001 	mov	r6, #1
    33d8:	e3a05004 	mov	r5, #4
    33dc:	e58ca008 	str	sl, [ip, #8]
    33e0:	e58cb00c 	str	fp, [ip, #12]
    33e4:	e58c2010 	str	r2, [ip, #16]
    33e8:	e58c3014 	str	r3, [ip, #20]
    33ec:	e58c9018 	str	r9, [ip, #24]
    33f0:	e5cc6007 	strb	r6, [ip, #7]
    33f4:	e5ce56fc 	strb	r5, [lr, #1788]	; 0x6fc
    33f8:	eafffd9f 	b	2a7c <isr+0xb54>
    33fc:	e3a03080 	mov	r3, #128	; 0x80
    3400:	e3a0c001 	mov	ip, #1
    3404:	e3a02003 	mov	r2, #3
    3408:	e51fe494 	ldr	lr, [pc, #-1172]	; 2f7c <isr+0x1054>
    340c:	e78e3a01 	str	r3, [lr, r1, lsl #20]
    3410:	e28ee008 	add	lr, lr, #8
    3414:	e78e3a01 	str	r3, [lr, r1, lsl #20]
    3418:	e51f34a0 	ldr	r3, [pc, #-1184]	; 2f80 <isr+0x1058>
    341c:	e783aa01 	str	sl, [r3, r1, lsl #20]
    3420:	e2433011 	sub	r3, r3, #17
    3424:	e7c3ca01 	strb	ip, [r3, r1, lsl #20]
    3428:	e5c0201c 	strb	r2, [r0, #28]
    342c:	eafffd4d 	b	2968 <isr+0xa40>
    3430:	e51f24c8 	ldr	r2, [pc, #-1224]	; 2f70 <isr+0x1048>
    3434:	e3a0a000 	mov	sl, #0
    3438:	e0832002 	add	r2, r3, r2
    343c:	e3a0b000 	mov	fp, #0
    3440:	e3a03000 	mov	r3, #0
    3444:	e3a09000 	mov	r9, #0
    3448:	e3a06002 	mov	r6, #2
    344c:	e58ea008 	str	sl, [lr, #8]
    3450:	e58eb00c 	str	fp, [lr, #12]
    3454:	e58e2010 	str	r2, [lr, #16]
    3458:	e58e3014 	str	r3, [lr, #20]
    345c:	e58e9018 	str	r9, [lr, #24]
    3460:	e5ce5007 	strb	r5, [lr, #7]
    3464:	e5cc61d4 	strb	r6, [ip, #468]	; 0x1d4
    3468:	eafffd83 	b	2a7c <isr+0xb54>
    346c:	e3a09901 	mov	r9, #16384	; 0x4000
    3470:	e3a03000 	mov	r3, #0
    3474:	e3a05001 	mov	r5, #1
    3478:	e3a0e003 	mov	lr, #3
    347c:	e51f6500 	ldr	r6, [pc, #-1280]	; 2f84 <isr+0x105c>
    3480:	e7869a01 	str	r9, [r6, r1, lsl #20]
    3484:	e2866008 	add	r6, r6, #8
    3488:	e7c63a01 	strb	r3, [r6, r1, lsl #20]
    348c:	e2866008 	add	r6, r6, #8
    3490:	e7c63a01 	strb	r3, [r6, r1, lsl #20]
    3494:	e2866008 	add	r6, r6, #8
    3498:	e7c63a01 	strb	r3, [r6, r1, lsl #20]
    349c:	e2866008 	add	r6, r6, #8
    34a0:	e7863a01 	str	r3, [r6, r1, lsl #20]
    34a4:	e2866008 	add	r6, r6, #8
    34a8:	e7863a01 	str	r3, [r6, r1, lsl #20]
    34ac:	e51f3574 	ldr	r3, [pc, #-1396]	; 2f40 <isr+0x1018>
    34b0:	e7832a01 	str	r2, [r3, r1, lsl #20]
    34b4:	e2433031 	sub	r3, r3, #49	; 0x31
    34b8:	e7c35a01 	strb	r5, [r3, r1, lsl #20]
    34bc:	e5cce544 	strb	lr, [ip, #1348]	; 0x544
    34c0:	eafffd6d 	b	2a7c <isr+0xb54>
    34c4:	e3a02080 	mov	r2, #128	; 0x80
    34c8:	e3a03000 	mov	r3, #0
    34cc:	e3a05001 	mov	r5, #1
    34d0:	e3a0e003 	mov	lr, #3
    34d4:	e51f657c 	ldr	r6, [pc, #-1404]	; 2f60 <isr+0x1038>
    34d8:	e7862a01 	str	r2, [r6, r1, lsl #20]
    34dc:	e2866008 	add	r6, r6, #8
    34e0:	e7862a01 	str	r2, [r6, r1, lsl #20]
    34e4:	e51f2588 	ldr	r2, [pc, #-1416]	; 2f64 <isr+0x103c>
    34e8:	e7823a01 	str	r3, [r2, r1, lsl #20]
    34ec:	e2822008 	add	r2, r2, #8
    34f0:	e7823a01 	str	r3, [r2, r1, lsl #20]
    34f4:	e2822008 	add	r2, r2, #8
    34f8:	e7c23a01 	strb	r3, [r2, r1, lsl #20]
    34fc:	e2822008 	add	r2, r2, #8
    3500:	e7823a01 	str	r3, [r2, r1, lsl #20]
    3504:	e51f35a0 	ldr	r3, [pc, #-1440]	; 2f6c <isr+0x1044>
    3508:	e783aa01 	str	sl, [r3, r1, lsl #20]
    350c:	e2433031 	sub	r3, r3, #49	; 0x31
    3510:	e7c35a01 	strb	r5, [r3, r1, lsl #20]
    3514:	e5cce1d4 	strb	lr, [ip, #468]	; 0x1d4
    3518:	eafffd57 	b	2a7c <isr+0xb54>
    351c:	e5dc338c 	ldrb	r3, [ip, #908]	; 0x38c
    3520:	e20330ff 	and	r3, r3, #255	; 0xff
    3524:	e3530001 	cmp	r3, #1
    3528:	0a0000e7 	beq	38cc <isr+0x19a4>
    352c:	e5dc338c 	ldrb	r3, [ip, #908]	; 0x38c
    3530:	e3530003 	cmp	r3, #3
    3534:	1afffcd2 	bne	2884 <isr+0x95c>
    3538:	e1a02009 	mov	r2, r9
    353c:	e3a03000 	mov	r3, #0
    3540:	e3a0b02c 	mov	fp, #44	; 0x2c
    3544:	e5802008 	str	r2, [r0, #8]
    3548:	e580300c 	str	r3, [r0, #12]
    354c:	e3a0a901 	mov	sl, #16384	; 0x4000
    3550:	e3a09001 	mov	r9, #1
    3554:	e3a0e004 	mov	lr, #4
    3558:	e3a02000 	mov	r2, #0
    355c:	e3a03000 	mov	r3, #0
    3560:	e02c7b91 	mla	ip, r1, fp, r7
    3564:	e5802010 	str	r2, [r0, #16]
    3568:	e5803014 	str	r3, [r0, #20]
    356c:	e580a018 	str	sl, [r0, #24]
    3570:	e5c09007 	strb	r9, [r0, #7]
    3574:	e5cce38c 	strb	lr, [ip, #908]	; 0x38c
    3578:	eafffcc1 	b	2884 <isr+0x95c>
    357c:	e5dc36fc 	ldrb	r3, [ip, #1788]	; 0x6fc
    3580:	e20330ff 	and	r3, r3, #255	; 0xff
    3584:	e3530001 	cmp	r3, #1
    3588:	0a00017d 	beq	3b84 <isr+0x1c5c>
    358c:	e5dc36fc 	ldrb	r3, [ip, #1788]	; 0x6fc
    3590:	e3530003 	cmp	r3, #3
    3594:	1afffc37 	bne	2678 <isr+0x750>
    3598:	e1a0200e 	mov	r2, lr
    359c:	e3a03000 	mov	r3, #0
    35a0:	e3a0b02c 	mov	fp, #44	; 0x2c
    35a4:	e5802008 	str	r2, [r0, #8]
    35a8:	e580300c 	str	r3, [r0, #12]
    35ac:	e3a0a801 	mov	sl, #65536	; 0x10000
    35b0:	e3a09001 	mov	r9, #1
    35b4:	e3a0e004 	mov	lr, #4
    35b8:	e3a02000 	mov	r2, #0
    35bc:	e3a03000 	mov	r3, #0
    35c0:	e02c7b91 	mla	ip, r1, fp, r7
    35c4:	e5802010 	str	r2, [r0, #16]
    35c8:	e5803014 	str	r3, [r0, #20]
    35cc:	e580a018 	str	sl, [r0, #24]
    35d0:	e5c09007 	strb	r9, [r0, #7]
    35d4:	e5cce6fc 	strb	lr, [ip, #1788]	; 0x6fc
    35d8:	eafffc26 	b	2678 <isr+0x750>
    35dc:	e5dc38b4 	ldrb	r3, [ip, #2228]	; 0x8b4
    35e0:	e20330ff 	and	r3, r3, #255	; 0xff
    35e4:	e3530001 	cmp	r3, #1
    35e8:	0a000146 	beq	3b08 <isr+0x1be0>
    35ec:	e5dc38b4 	ldrb	r3, [ip, #2228]	; 0x8b4
    35f0:	e3530003 	cmp	r3, #3
    35f4:	1afffbe4 	bne	258c <isr+0x664>
    35f8:	e1a0200e 	mov	r2, lr
    35fc:	e3a03000 	mov	r3, #0
    3600:	e3a0b02c 	mov	fp, #44	; 0x2c
    3604:	e5802008 	str	r2, [r0, #8]
    3608:	e580300c 	str	r3, [r0, #12]
    360c:	e3a0a901 	mov	sl, #16384	; 0x4000
    3610:	e3a09001 	mov	r9, #1
    3614:	e3a0e004 	mov	lr, #4
    3618:	e3a02000 	mov	r2, #0
    361c:	e3a03000 	mov	r3, #0
    3620:	e02c7b91 	mla	ip, r1, fp, r7
    3624:	e5802010 	str	r2, [r0, #16]
    3628:	e5803014 	str	r3, [r0, #20]
    362c:	e580a018 	str	sl, [r0, #24]
    3630:	e5c09007 	strb	r9, [r0, #7]
    3634:	e5cce8b4 	strb	lr, [ip, #2228]	; 0x8b4
    3638:	eafffbd3 	b	258c <isr+0x664>
    363c:	e5dc3a6c 	ldrb	r3, [ip, #2668]	; 0xa6c
    3640:	e20330ff 	and	r3, r3, #255	; 0xff
    3644:	e3530001 	cmp	r3, #1
    3648:	0a000061 	beq	37d4 <isr+0x18ac>
    364c:	e5dc3a6c 	ldrb	r3, [ip, #2668]	; 0xa6c
    3650:	e3530003 	cmp	r3, #3
    3654:	1afffb92 	bne	24a4 <isr+0x57c>
    3658:	e1a0200e 	mov	r2, lr
    365c:	e3a03000 	mov	r3, #0
    3660:	e3a0b02c 	mov	fp, #44	; 0x2c
    3664:	e5802008 	str	r2, [r0, #8]
    3668:	e580300c 	str	r3, [r0, #12]
    366c:	e3a0a903 	mov	sl, #49152	; 0xc000
    3670:	e3a09001 	mov	r9, #1
    3674:	e3a0e004 	mov	lr, #4
    3678:	e3a02000 	mov	r2, #0
    367c:	e3a03000 	mov	r3, #0
    3680:	e02c7b91 	mla	ip, r1, fp, r7
    3684:	e5802010 	str	r2, [r0, #16]
    3688:	e5803014 	str	r3, [r0, #20]
    368c:	e580a018 	str	sl, [r0, #24]
    3690:	e5c09007 	strb	r9, [r0, #7]
    3694:	e5ccea6c 	strb	lr, [ip, #2668]	; 0xa6c
    3698:	eafffb81 	b	24a4 <isr+0x57c>
    369c:	e3a03080 	mov	r3, #128	; 0x80
    36a0:	e51f5734 	ldr	r5, [pc, #-1844]	; 2f74 <isr+0x104c>
    36a4:	e7853a01 	str	r3, [r5, r1, lsl #20]
    36a8:	e2855008 	add	r5, r5, #8
    36ac:	e7853a01 	str	r3, [r5, r1, lsl #20]
    36b0:	e3a03000 	mov	r3, #0
    36b4:	e3a0c003 	mov	ip, #3
    36b8:	e2855008 	add	r5, r5, #8
    36bc:	e7853a01 	str	r3, [r5, r1, lsl #20]
    36c0:	e2855008 	add	r5, r5, #8
    36c4:	e7853a01 	str	r3, [r5, r1, lsl #20]
    36c8:	e51f378c 	ldr	r3, [pc, #-1932]	; 2f44 <isr+0x101c>
    36cc:	e2855008 	add	r5, r5, #8
    36d0:	e785aa01 	str	sl, [r5, r1, lsl #20]
    36d4:	e7c32a01 	strb	r2, [r3, r1, lsl #20]
    36d8:	e5cec38c 	strb	ip, [lr, #908]	; 0x38c
    36dc:	eafffce6 	b	2a7c <isr+0xb54>
    36e0:	e51f27a0 	ldr	r2, [pc, #-1952]	; 2f48 <isr+0x1020>
    36e4:	e3a03000 	mov	r3, #0
    36e8:	e0862002 	add	r2, r6, r2
    36ec:	e3a0a000 	mov	sl, #0
    36f0:	e3a0b000 	mov	fp, #0
    36f4:	e3a09801 	mov	r9, #65536	; 0x10000
    36f8:	e3a06002 	mov	r6, #2
    36fc:	e58ca008 	str	sl, [ip, #8]
    3700:	e58cb00c 	str	fp, [ip, #12]
    3704:	e58c2010 	str	r2, [ip, #16]
    3708:	e58c3014 	str	r3, [ip, #20]
    370c:	e58c9018 	str	r9, [ip, #24]
    3710:	e5cc5007 	strb	r5, [ip, #7]
    3714:	e5ce601c 	strb	r6, [lr, #28]
    3718:	eafffcd7 	b	2a7c <isr+0xb54>
    371c:	e1a0c005 	mov	ip, r5
    3720:	eafffa64 	b	20b8 <isr+0x190>
    3724:	e3a03080 	mov	r3, #128	; 0x80
    3728:	e3a0c003 	mov	ip, #3
    372c:	e51f57dc 	ldr	r5, [pc, #-2012]	; 2f58 <isr+0x1030>
    3730:	e7853a01 	str	r3, [r5, r1, lsl #20]
    3734:	e2855008 	add	r5, r5, #8
    3738:	e7853a01 	str	r3, [r5, r1, lsl #20]
    373c:	e51f37f8 	ldr	r3, [pc, #-2040]	; 2f4c <isr+0x1024>
    3740:	e2855008 	add	r5, r5, #8
    3744:	e785aa01 	str	sl, [r5, r1, lsl #20]
    3748:	e7c32a01 	strb	r2, [r3, r1, lsl #20]
    374c:	e5ceca6c 	strb	ip, [lr, #2668]	; 0xa6c
    3750:	eafffcc9 	b	2a7c <isr+0xb54>
    3754:	e3a03080 	mov	r3, #128	; 0x80
    3758:	e3a0c003 	mov	ip, #3
    375c:	e51f57d0 	ldr	r5, [pc, #-2000]	; 2f94 <isr+0x106c>
    3760:	e7853a01 	str	r3, [r5, r1, lsl #20]
    3764:	e2855008 	add	r5, r5, #8
    3768:	e7853a01 	str	r3, [r5, r1, lsl #20]
    376c:	e51f3824 	ldr	r3, [pc, #-2084]	; 2f50 <isr+0x1028>
    3770:	e2855008 	add	r5, r5, #8
    3774:	e785aa01 	str	sl, [r5, r1, lsl #20]
    3778:	e7c32a01 	strb	r2, [r3, r1, lsl #20]
    377c:	e5cec8b4 	strb	ip, [lr, #2228]	; 0x8b4
    3780:	eafffcbd 	b	2a7c <isr+0xb54>
    3784:	e3a05901 	mov	r5, #16384	; 0x4000
    3788:	e3a03003 	mov	r3, #3
    378c:	e51fc7f8 	ldr	ip, [pc, #-2040]	; 2f9c <isr+0x1074>
    3790:	e78c5a01 	str	r5, [ip, r1, lsl #20]
    3794:	e51f5848 	ldr	r5, [pc, #-2120]	; 2f54 <isr+0x102c>
    3798:	e24cc001 	sub	ip, ip, #1
    379c:	e785aa01 	str	sl, [r5, r1, lsl #20]
    37a0:	e7cc2a01 	strb	r2, [ip, r1, lsl #20]
    37a4:	e5ce36fc 	strb	r3, [lr, #1788]	; 0x6fc
    37a8:	eafffcb3 	b	2a7c <isr+0xb54>
    37ac:	e3a0b000 	mov	fp, #0
    37b0:	e3a03000 	mov	r3, #0
    37b4:	e3a0e801 	mov	lr, #65536	; 0x10000
    37b8:	e580a008 	str	sl, [r0, #8]
    37bc:	e580b00c 	str	fp, [r0, #12]
    37c0:	e5802010 	str	r2, [r0, #16]
    37c4:	e5803014 	str	r3, [r0, #20]
    37c8:	e580e018 	str	lr, [r0, #24]
    37cc:	e5c0c007 	strb	ip, [r0, #7]
    37d0:	eafffa6f 	b	2194 <isr+0x26c>
    37d4:	e3a0902c 	mov	r9, #44	; 0x2c
    37d8:	e3a02080 	mov	r2, #128	; 0x80
    37dc:	e3a0c003 	mov	ip, #3
    37e0:	e0207991 	mla	r0, r1, r9, r7
    37e4:	e51f9894 	ldr	r9, [pc, #-2196]	; 2f58 <isr+0x1030>
    37e8:	e7892a01 	str	r2, [r9, r1, lsl #20]
    37ec:	e2899008 	add	r9, r9, #8
    37f0:	e7892a01 	str	r2, [r9, r1, lsl #20]
    37f4:	e51f28a0 	ldr	r2, [pc, #-2208]	; 2f5c <isr+0x1034>
    37f8:	e782ea01 	str	lr, [r2, r1, lsl #20]
    37fc:	e2422011 	sub	r2, r2, #17
    3800:	e7c23a01 	strb	r3, [r2, r1, lsl #20]
    3804:	e5c0ca6c 	strb	ip, [r0, #2668]	; 0xa6c
    3808:	eafffb25 	b	24a4 <isr+0x57c>
    380c:	e3a0a02c 	mov	sl, #44	; 0x2c
    3810:	e3a00080 	mov	r0, #128	; 0x80
    3814:	e3a09001 	mov	r9, #1
    3818:	e3a0c003 	mov	ip, #3
    381c:	e0237a91 	mla	r3, r1, sl, r7
    3820:	e51fa8c8 	ldr	sl, [pc, #-2248]	; 2f60 <isr+0x1038>
    3824:	e78a0a01 	str	r0, [sl, r1, lsl #20]
    3828:	e28aa008 	add	sl, sl, #8
    382c:	e78a0a01 	str	r0, [sl, r1, lsl #20]
    3830:	e51f08d4 	ldr	r0, [pc, #-2260]	; 2f64 <isr+0x103c>
    3834:	e780ea01 	str	lr, [r0, r1, lsl #20]
    3838:	e59de000 	ldr	lr, [sp]
    383c:	e2800008 	add	r0, r0, #8
    3840:	e780ea01 	str	lr, [r0, r1, lsl #20]
    3844:	e59da014 	ldr	sl, [sp, #20]
    3848:	e51fe8e8 	ldr	lr, [pc, #-2280]	; 2f68 <isr+0x1040>
    384c:	e2800008 	add	r0, r0, #8
    3850:	e7c0aa01 	strb	sl, [r0, r1, lsl #20]
    3854:	e78e2a01 	str	r2, [lr, r1, lsl #20]
    3858:	e51fa8f4 	ldr	sl, [pc, #-2292]	; 2f6c <isr+0x1044>
    385c:	e59d2008 	ldr	r2, [sp, #8]
    3860:	e2400021 	sub	r0, r0, #33	; 0x21
    3864:	e78a2a01 	str	r2, [sl, r1, lsl #20]
    3868:	e7c09a01 	strb	r9, [r0, r1, lsl #20]
    386c:	e5c3c1d4 	strb	ip, [r3, #468]	; 0x1d4
    3870:	eafffa47 	b	2194 <isr+0x26c>
    3874:	e51f290c 	ldr	r2, [pc, #-2316]	; 2f70 <isr+0x1048>
    3878:	e08b2002 	add	r2, fp, r2
    387c:	e1a09002 	mov	r9, r2
    3880:	e3a0a000 	mov	sl, #0
    3884:	e3a02002 	mov	r2, #2
    3888:	e3a0b000 	mov	fp, #0
    388c:	e58d9008 	str	r9, [sp, #8]
    3890:	e58da00c 	str	sl, [sp, #12]
    3894:	e59d9000 	ldr	r9, [sp]
    3898:	e009099e 	mul	r9, lr, r9
    389c:	e59da010 	ldr	sl, [sp, #16]
    38a0:	e1a0e219 	lsl	lr, r9, r2
    38a4:	e580a008 	str	sl, [r0, #8]
    38a8:	e580b00c 	str	fp, [r0, #12]
    38ac:	e28da008 	add	sl, sp, #8
    38b0:	e89a0600 	ldm	sl, {r9, sl}
    38b4:	e5809010 	str	r9, [r0, #16]
    38b8:	e580a014 	str	sl, [r0, #20]
    38bc:	e580e018 	str	lr, [r0, #24]
    38c0:	e5c0c007 	strb	ip, [r0, #7]
    38c4:	e5c321d4 	strb	r2, [r3, #468]	; 0x1d4
    38c8:	eafffa31 	b	2194 <isr+0x26c>
    38cc:	e3a0a02c 	mov	sl, #44	; 0x2c
    38d0:	e3a02080 	mov	r2, #128	; 0x80
    38d4:	e3a0c003 	mov	ip, #3
    38d8:	e0207a91 	mla	r0, r1, sl, r7
    38dc:	e59eb004 	ldr	fp, [lr, #4]
    38e0:	e59ea008 	ldr	sl, [lr, #8]
    38e4:	e51fe978 	ldr	lr, [pc, #-2424]	; 2f74 <isr+0x104c>
    38e8:	e78e2a01 	str	r2, [lr, r1, lsl #20]
    38ec:	e28ee008 	add	lr, lr, #8
    38f0:	e78e2a01 	str	r2, [lr, r1, lsl #20]
    38f4:	e51f2984 	ldr	r2, [pc, #-2436]	; 2f78 <isr+0x1050>
    38f8:	e782ba01 	str	fp, [r2, r1, lsl #20]
    38fc:	e2822008 	add	r2, r2, #8
    3900:	e782aa01 	str	sl, [r2, r1, lsl #20]
    3904:	e28ee018 	add	lr, lr, #24
    3908:	e2422019 	sub	r2, r2, #25
    390c:	e78e9a01 	str	r9, [lr, r1, lsl #20]
    3910:	e7c23a01 	strb	r3, [r2, r1, lsl #20]
    3914:	e5c0c38c 	strb	ip, [r0, #908]	; 0x38c
    3918:	eafffbd9 	b	2884 <isr+0x95c>
    391c:	e3a03080 	mov	r3, #128	; 0x80
    3920:	e3a05001 	mov	r5, #1
    3924:	e3a0c003 	mov	ip, #3
    3928:	e51f69b4 	ldr	r6, [pc, #-2484]	; 2f7c <isr+0x1054>
    392c:	e7863a01 	str	r3, [r6, r1, lsl #20]
    3930:	e2866008 	add	r6, r6, #8
    3934:	e7863a01 	str	r3, [r6, r1, lsl #20]
    3938:	e51f39c0 	ldr	r3, [pc, #-2496]	; 2f80 <isr+0x1058>
    393c:	e7832a01 	str	r2, [r3, r1, lsl #20]
    3940:	e2433011 	sub	r3, r3, #17
    3944:	e7c35a01 	strb	r5, [r3, r1, lsl #20]
    3948:	e5cec01c 	strb	ip, [lr, #28]
    394c:	eafffc4a 	b	2a7c <isr+0xb54>
    3950:	e3a00002 	mov	r0, #2
    3954:	e0883001 	add	r3, r8, r1
    3958:	e0813083 	add	r3, r1, r3, lsl #1
    395c:	e087b103 	add	fp, r7, r3, lsl #2
    3960:	e20000ff 	and	r0, r0, #255	; 0xff
    3964:	e5cb054c 	strb	r0, [fp, #1356]	; 0x54c
    3968:	e5db054c 	ldrb	r0, [fp, #1356]	; 0x54c
    396c:	e0833000 	add	r3, r3, r0
    3970:	e2833f53 	add	r3, r3, #332	; 0x14c
    3974:	e7973103 	ldr	r3, [r7, r3, lsl #2]
    3978:	e5db0544 	ldrb	r0, [fp, #1348]	; 0x544
    397c:	e3500000 	cmp	r0, #0
    3980:	e5de0008 	ldrb	r0, [lr, #8]
    3984:	e58d0008 	str	r0, [sp, #8]
    3988:	e5de000a 	ldrb	r0, [lr, #10]
    398c:	e58d3010 	str	r3, [sp, #16]
    3990:	e1a03a01 	lsl	r3, r1, #20
    3994:	e58d0014 	str	r0, [sp, #20]
    3998:	e2830309 	add	r0, r3, #603979776	; 0x24000000
    399c:	1a000004 	bne	39b4 <isr+0x1a8c>
    39a0:	e3a0e001 	mov	lr, #1
    39a4:	e59d3000 	ldr	r3, [sp]
    39a8:	e3530000 	cmp	r3, #0
    39ac:	e5cbe544 	strb	lr, [fp, #1348]	; 0x544
    39b0:	1a000062 	bne	3b40 <isr+0x1c18>
    39b4:	e0883001 	add	r3, r8, r1
    39b8:	e0813083 	add	r3, r1, r3, lsl #1
    39bc:	e0873103 	add	r3, r7, r3, lsl #2
    39c0:	e5d33544 	ldrb	r3, [r3, #1348]	; 0x544
    39c4:	e3530001 	cmp	r3, #1
    39c8:	0a000039 	beq	3ab4 <isr+0x1b8c>
    39cc:	e0883001 	add	r3, r8, r1
    39d0:	e0813083 	add	r3, r1, r3, lsl #1
    39d4:	e0873103 	add	r3, r7, r3, lsl #2
    39d8:	e5d3e544 	ldrb	lr, [r3, #1348]	; 0x544
    39dc:	e35e0002 	cmp	lr, #2
    39e0:	0a000019 	beq	3a4c <isr+0x1b24>
    39e4:	e5d33544 	ldrb	r3, [r3, #1348]	; 0x544
    39e8:	e3530003 	cmp	r3, #3
    39ec:	1a00000f 	bne	3a30 <isr+0x1b08>
    39f0:	e3a03000 	mov	r3, #0
    39f4:	e3a0b02c 	mov	fp, #44	; 0x2c
    39f8:	e59d2010 	ldr	r2, [sp, #16]
    39fc:	e3a0a801 	mov	sl, #65536	; 0x10000
    3a00:	e5802008 	str	r2, [r0, #8]
    3a04:	e580300c 	str	r3, [r0, #12]
    3a08:	e3a09001 	mov	r9, #1
    3a0c:	e3a0e004 	mov	lr, #4
    3a10:	e3a02000 	mov	r2, #0
    3a14:	e3a03000 	mov	r3, #0
    3a18:	e02c7b91 	mla	ip, r1, fp, r7
    3a1c:	e5802010 	str	r2, [r0, #16]
    3a20:	e5803014 	str	r3, [r0, #20]
    3a24:	e580a018 	str	sl, [r0, #24]
    3a28:	e5c09007 	strb	r9, [r0, #7]
    3a2c:	e5cce544 	strb	lr, [ip, #1348]	; 0x544
    3a30:	e0883001 	add	r3, r8, r1
    3a34:	e0813083 	add	r3, r1, r3, lsl #1
    3a38:	e0873103 	add	r3, r7, r3, lsl #2
    3a3c:	e5d33544 	ldrb	r3, [r3, #1348]	; 0x544
    3a40:	e3530003 	cmp	r3, #3
    3a44:	1afff9dc 	bne	21bc <isr+0x294>
    3a48:	eafffbcc 	b	2980 <isr+0xa58>
    3a4c:	e3a0002c 	mov	r0, #44	; 0x2c
    3a50:	e3a0e901 	mov	lr, #16384	; 0x4000
    3a54:	e3a0a001 	mov	sl, #1
    3a58:	e3a0b003 	mov	fp, #3
    3a5c:	e0237091 	mla	r3, r1, r0, r7
    3a60:	e51f0ae4 	ldr	r0, [pc, #-2788]	; 2f84 <isr+0x105c>
    3a64:	e780ea01 	str	lr, [r0, r1, lsl #20]
    3a68:	e2800008 	add	r0, r0, #8
    3a6c:	e59de008 	ldr	lr, [sp, #8]
    3a70:	e7c09a01 	strb	r9, [r0, r1, lsl #20]
    3a74:	e2800008 	add	r0, r0, #8
    3a78:	e59d9014 	ldr	r9, [sp, #20]
    3a7c:	e7c0ea01 	strb	lr, [r0, r1, lsl #20]
    3a80:	e2800008 	add	r0, r0, #8
    3a84:	e7c09a01 	strb	r9, [r0, r1, lsl #20]
    3a88:	e51feb08 	ldr	lr, [pc, #-2824]	; 2f88 <isr+0x1060>
    3a8c:	e51f9b08 	ldr	r9, [pc, #-2824]	; 2f8c <isr+0x1064>
    3a90:	e78e2a01 	str	r2, [lr, r1, lsl #20]
    3a94:	e789ca01 	str	ip, [r9, r1, lsl #20]
    3a98:	e51f2b10 	ldr	r2, [pc, #-2832]	; 2f90 <isr+0x1068>
    3a9c:	e59dc010 	ldr	ip, [sp, #16]
    3aa0:	e2800018 	add	r0, r0, #24
    3aa4:	e780ca01 	str	ip, [r0, r1, lsl #20]
    3aa8:	e7c2aa01 	strb	sl, [r2, r1, lsl #20]
    3aac:	e5c3b544 	strb	fp, [r3, #1348]	; 0x544
    3ab0:	eaffffde 	b	3a30 <isr+0x1b08>
    3ab4:	e3a0b02c 	mov	fp, #44	; 0x2c
    3ab8:	e3a0e002 	mov	lr, #2
    3abc:	e0237b91 	mla	r3, r1, fp, r7
    3ac0:	e35a0000 	cmp	sl, #0
    3ac4:	e5c3e544 	strb	lr, [r3, #1348]	; 0x544
    3ac8:	0affffbf 	beq	39cc <isr+0x1aa4>
    3acc:	e3a03000 	mov	r3, #0
    3ad0:	e1a0200c 	mov	r2, ip
    3ad4:	e3a0b000 	mov	fp, #0
    3ad8:	e59dc008 	ldr	ip, [sp, #8]
    3adc:	e35c0000 	cmp	ip, #0
    3ae0:	e580a008 	str	sl, [r0, #8]
    3ae4:	e580b00c 	str	fp, [r0, #12]
    3ae8:	e5802010 	str	r2, [r0, #16]
    3aec:	e5803014 	str	r3, [r0, #20]
    3af0:	13a03004 	movne	r3, #4
    3af4:	03a03801 	moveq	r3, #65536	; 0x10000
    3af8:	e5803018 	str	r3, [r0, #24]
    3afc:	e3a03001 	mov	r3, #1
    3b00:	e5c03007 	strb	r3, [r0, #7]
    3b04:	eaffffc9 	b	3a30 <isr+0x1b08>
    3b08:	e3a0902c 	mov	r9, #44	; 0x2c
    3b0c:	e3a02080 	mov	r2, #128	; 0x80
    3b10:	e3a0c003 	mov	ip, #3
    3b14:	e0207991 	mla	r0, r1, r9, r7
    3b18:	e51f9b8c 	ldr	r9, [pc, #-2956]	; 2f94 <isr+0x106c>
    3b1c:	e7892a01 	str	r2, [r9, r1, lsl #20]
    3b20:	e2899008 	add	r9, r9, #8
    3b24:	e7892a01 	str	r2, [r9, r1, lsl #20]
    3b28:	e51f2b98 	ldr	r2, [pc, #-2968]	; 2f98 <isr+0x1070>
    3b2c:	e782ea01 	str	lr, [r2, r1, lsl #20]
    3b30:	e2422011 	sub	r2, r2, #17
    3b34:	e7c23a01 	strb	r3, [r2, r1, lsl #20]
    3b38:	e5c0c8b4 	strb	ip, [r0, #2228]	; 0x8b4
    3b3c:	eafffa92 	b	258c <isr+0x664>
    3b40:	e1a0a003 	mov	sl, r3
    3b44:	e3a0b000 	mov	fp, #0
    3b48:	e3a03000 	mov	r3, #0
    3b4c:	e3a0c801 	mov	ip, #65536	; 0x10000
    3b50:	e580a008 	str	sl, [r0, #8]
    3b54:	e580b00c 	str	fp, [r0, #12]
    3b58:	e5802010 	str	r2, [r0, #16]
    3b5c:	e5803014 	str	r3, [r0, #20]
    3b60:	e580c018 	str	ip, [r0, #24]
    3b64:	e5c0e007 	strb	lr, [r0, #7]
    3b68:	eaffffb0 	b	3a30 <isr+0x1b08>
    3b6c:	e1a00005 	mov	r0, r5
    3b70:	eaffff77 	b	3954 <isr+0x1a2c>
    3b74:	e1a0000b 	mov	r0, fp
    3b78:	eaffff75 	b	3954 <isr+0x1a2c>
    3b7c:	e3a00001 	mov	r0, #1
    3b80:	eaffff73 	b	3954 <isr+0x1a2c>
    3b84:	e3a0c02c 	mov	ip, #44	; 0x2c
    3b88:	e3a09901 	mov	r9, #16384	; 0x4000
    3b8c:	e3a02003 	mov	r2, #3
    3b90:	e0207c91 	mla	r0, r1, ip, r7
    3b94:	e51fcc00 	ldr	ip, [pc, #-3072]	; 2f9c <isr+0x1074>
    3b98:	e78c9a01 	str	r9, [ip, r1, lsl #20]
    3b9c:	e28cc008 	add	ip, ip, #8
    3ba0:	e78cea01 	str	lr, [ip, r1, lsl #20]
    3ba4:	e24cc009 	sub	ip, ip, #9
    3ba8:	e7cc3a01 	strb	r3, [ip, r1, lsl #20]
    3bac:	e5c026fc 	strb	r2, [r0, #1788]	; 0x6fc
    3bb0:	eafffab0 	b	2678 <isr+0x750>
    3bb4:	00000000 	andeq	r0, r0, r0

00003bb8 <add_canny_non_max>:
    3bb8:	e92d4ff0 	push	{r4, r5, r6, r7, r8, r9, sl, fp, lr}
    3bbc:	e3a0000c 	mov	r0, #12
    3bc0:	e24dd02c 	sub	sp, sp, #44	; 0x2c
    3bc4:	ebfff210 	bl	40c <get_memory>
    3bc8:	e1a04000 	mov	r4, r0
    3bcc:	e3a00f4b 	mov	r0, #300	; 0x12c
    3bd0:	ebfff20d 	bl	40c <get_memory>
    3bd4:	e1a03000 	mov	r3, r0
    3bd8:	e3a00801 	mov	r0, #65536	; 0x10000
    3bdc:	e58d3010 	str	r3, [sp, #16]
    3be0:	ebfff209 	bl	40c <get_memory>
    3be4:	e5840000 	str	r0, [r4]
    3be8:	e3a00801 	mov	r0, #65536	; 0x10000
    3bec:	ebfff206 	bl	40c <get_memory>
    3bf0:	e5840004 	str	r0, [r4, #4]
    3bf4:	e3a00801 	mov	r0, #65536	; 0x10000
    3bf8:	ebfff203 	bl	40c <get_memory>
    3bfc:	e3a03000 	mov	r3, #0
    3c00:	e1a05000 	mov	r5, r0
    3c04:	e3a01001 	mov	r1, #1
    3c08:	e3e08000 	mvn	r8, #0
    3c0c:	e59d6010 	ldr	r6, [sp, #16]
    3c10:	e59d0010 	ldr	r0, [sp, #16]
    3c14:	e59d2010 	ldr	r2, [sp, #16]
    3c18:	e5845008 	str	r5, [r4, #8]
    3c1c:	e59dc010 	ldr	ip, [sp, #16]
    3c20:	e5863000 	str	r3, [r6]
    3c24:	e5804004 	str	r4, [r0, #4]
    3c28:	e59d0010 	ldr	r0, [sp, #16]
    3c2c:	e5823008 	str	r3, [r2, #8]
    3c30:	e59d2010 	ldr	r2, [sp, #16]
    3c34:	e58c300c 	str	r3, [ip, #12]
    3c38:	e59dc010 	ldr	ip, [sp, #16]
    3c3c:	e58030d8 	str	r3, [r0, #216]	; 0xd8
    3c40:	e59d0010 	ldr	r0, [sp, #16]
    3c44:	e58230ec 	str	r3, [r2, #236]	; 0xec
    3c48:	e59d2010 	ldr	r2, [sp, #16]
    3c4c:	e58c30dc 	str	r3, [ip, #220]	; 0xdc
    3c50:	e59dc010 	ldr	ip, [sp, #16]
    3c54:	e58030f0 	str	r3, [r0, #240]	; 0xf0
    3c58:	e59d0010 	ldr	r0, [sp, #16]
    3c5c:	e58230e0 	str	r3, [r2, #224]	; 0xe0
    3c60:	e59d2010 	ldr	r2, [sp, #16]
    3c64:	e58c30f4 	str	r3, [ip, #244]	; 0xf4
    3c68:	e59fe11c 	ldr	lr, [pc, #284]	; 3d8c <add_canny_non_max+0x1d4>
    3c6c:	e59dc010 	ldr	ip, [sp, #16]
    3c70:	e58030e4 	str	r3, [r0, #228]	; 0xe4
    3c74:	e58230f8 	str	r3, [r2, #248]	; 0xf8
    3c78:	e59d0010 	ldr	r0, [sp, #16]
    3c7c:	e59d2010 	ldr	r2, [sp, #16]
    3c80:	e58c30e8 	str	r3, [ip, #232]	; 0xe8
    3c84:	e58d3004 	str	r3, [sp, #4]
    3c88:	e58030fc 	str	r3, [r0, #252]	; 0xfc
    3c8c:	e5821100 	str	r1, [r2, #256]	; 0x100
    3c90:	e8be000f 	ldm	lr!, {r0, r1, r2, r3}
    3c94:	e28dc014 	add	ip, sp, #20
    3c98:	e8ac000f 	stmia	ip!, {r0, r1, r2, r3}
    3c9c:	e8940840 	ldm	r4, {r6, fp}
    3ca0:	e59e3000 	ldr	r3, [lr]
    3ca4:	e24bbc02 	sub	fp, fp, #512	; 0x200
    3ca8:	e2455c02 	sub	r5, r5, #512	; 0x200
    3cac:	e58c3000 	str	r3, [ip]
    3cb0:	e04b3006 	sub	r3, fp, r6
    3cb4:	e58d3008 	str	r3, [sp, #8]
    3cb8:	e0453006 	sub	r3, r5, r6
    3cbc:	e59f70cc 	ldr	r7, [pc, #204]	; 3d90 <add_canny_non_max+0x1d8>
    3cc0:	e58d300c 	str	r3, [sp, #12]
    3cc4:	e2866f7f 	add	r6, r6, #508	; 0x1fc
    3cc8:	e59d3004 	ldr	r3, [sp, #4]
    3ccc:	e1a04003 	mov	r4, r3
    3cd0:	e0842497 	umull	r2, r4, r7, r4
    3cd4:	e1a04124 	lsr	r4, r4, #2
    3cd8:	e0844104 	add	r4, r4, r4, lsl #2
    3cdc:	e1a05003 	mov	r5, r3
    3ce0:	e0434004 	sub	r4, r3, r4
    3ce4:	e59d3008 	ldr	r3, [sp, #8]
    3ce8:	e0839006 	add	r9, r3, r6
    3cec:	e59d300c 	ldr	r3, [sp, #12]
    3cf0:	e246ac02 	sub	sl, r6, #512	; 0x200
    3cf4:	e083b006 	add	fp, r3, r6
    3cf8:	e1a00005 	mov	r0, r5
    3cfc:	eb000929 	bl	61a8 <__aeabi_i2f>
    3d00:	e284c001 	add	ip, r4, #1
    3d04:	e08e3c97 	umull	r3, lr, r7, ip
    3d08:	e28d3028 	add	r3, sp, #40	; 0x28
    3d0c:	e5aa0004 	str	r0, [sl, #4]!
    3d10:	e0834104 	add	r4, r3, r4, lsl #2
    3d14:	e5140014 	ldr	r0, [r4, #-20]	; 0xffffffec
    3d18:	e1a0412e 	lsr	r4, lr, #2
    3d1c:	e2855001 	add	r5, r5, #1
    3d20:	e0844104 	add	r4, r4, r4, lsl #2
    3d24:	e15a0006 	cmp	sl, r6
    3d28:	e5a90004 	str	r0, [r9, #4]!
    3d2c:	e205507f 	and	r5, r5, #127	; 0x7f
    3d30:	e04c4004 	sub	r4, ip, r4
    3d34:	e5ab8004 	str	r8, [fp, #4]!
    3d38:	1affffee 	bne	3cf8 <add_canny_non_max+0x140>
    3d3c:	e59d3004 	ldr	r3, [sp, #4]
    3d40:	e2833001 	add	r3, r3, #1
    3d44:	e3530080 	cmp	r3, #128	; 0x80
    3d48:	e58d3004 	str	r3, [sp, #4]
    3d4c:	e28a6c02 	add	r6, sl, #512	; 0x200
    3d50:	1affffdc 	bne	3cc8 <add_canny_non_max+0x110>
    3d54:	e3a02001 	mov	r2, #1
    3d58:	e59f1034 	ldr	r1, [pc, #52]	; 3d94 <add_canny_non_max+0x1dc>
    3d5c:	e59f3034 	ldr	r3, [pc, #52]	; 3d98 <add_canny_non_max+0x1e0>
    3d60:	e5911000 	ldr	r1, [r1]
    3d64:	e5933000 	ldr	r3, [r3]
    3d68:	e5911000 	ldr	r1, [r1]
    3d6c:	e5933000 	ldr	r3, [r3]
    3d70:	e5911000 	ldr	r1, [r1]
    3d74:	e59d0010 	ldr	r0, [sp, #16]
    3d78:	e5810000 	str	r0, [r1]
    3d7c:	e5832000 	str	r2, [r3]
    3d80:	e28dd02c 	add	sp, sp, #44	; 0x2c
    3d84:	e8bd4ff0 	pop	{r4, r5, r6, r7, r8, r9, sl, fp, lr}
    3d88:	e12fff1e 	bx	lr
    3d8c:	00006ddc 	ldrdeq	r6, [r0], -ip
    3d90:	cccccccd 	stclgt	12, cr12, [ip], {205}	; 0xcd
    3d94:	800016a0 	andhi	r1, r0, r0, lsr #13
    3d98:	800016a4 	andhi	r1, r0, r4, lsr #13

00003d9c <canny_non_max_check_output>:
    3d9c:	e92d4ff0 	push	{r4, r5, r6, r7, r8, r9, sl, fp, lr}
    3da0:	e1a04000 	mov	r4, r0
    3da4:	e3a0b000 	mov	fp, #0
    3da8:	e24dd01c 	sub	sp, sp, #28
    3dac:	e59f0254 	ldr	r0, [pc, #596]	; 4008 <canny_non_max_check_output+0x26c>
    3db0:	e58db00c 	str	fp, [sp, #12]
    3db4:	eb000e99 	bl	7820 <puts>
    3db8:	e5943008 	ldr	r3, [r4, #8]
    3dbc:	e2433004 	sub	r3, r3, #4
    3dc0:	e58d3010 	str	r3, [sp, #16]
    3dc4:	e5943004 	ldr	r3, [r4, #4]
    3dc8:	e594a000 	ldr	sl, [r4]
    3dcc:	e58d3008 	str	r3, [sp, #8]
    3dd0:	e59d200c 	ldr	r2, [sp, #12]
    3dd4:	e242107f 	sub	r1, r2, #127	; 0x7f
    3dd8:	e2713000 	rsbs	r3, r1, #0
    3ddc:	e0a33001 	adc	r3, r3, r1
    3de0:	e28a6c02 	add	r6, sl, #512	; 0x200
    3de4:	e3520000 	cmp	r2, #0
    3de8:	e58d6014 	str	r6, [sp, #20]
    3dec:	11a09003 	movne	r9, r3
    3df0:	03a09001 	moveq	r9, #1
    3df4:	e24a5c02 	sub	r5, sl, #512	; 0x200
    3df8:	e59d7010 	ldr	r7, [sp, #16]
    3dfc:	e3a04000 	mov	r4, #0
    3e00:	ea00001b 	b	3e74 <canny_non_max_check_output+0xd8>
    3e04:	e59f1200 	ldr	r1, [pc, #512]	; 400c <canny_non_max_check_output+0x270>
    3e08:	e1a00008 	mov	r0, r8
    3e0c:	eb000a07 	bl	6630 <__aeabi_fcmplt>
    3e10:	e3500000 	cmp	r0, #0
    3e14:	0a000032 	beq	3ee4 <canny_non_max_check_output+0x148>
    3e18:	e51a3004 	ldr	r3, [sl, #-4]
    3e1c:	e59a1004 	ldr	r1, [sl, #4]
    3e20:	e58d3004 	str	r3, [sp, #4]
    3e24:	e59a8000 	ldr	r8, [sl]
    3e28:	e1a00008 	mov	r0, r8
    3e2c:	eb000a0b 	bl	6660 <__aeabi_fcmpge>
    3e30:	e3500000 	cmp	r0, #0
    3e34:	0a000005 	beq	3e50 <canny_non_max_check_output+0xb4>
    3e38:	e59d1004 	ldr	r1, [sp, #4]
    3e3c:	e1a00008 	mov	r0, r8
    3e40:	eb000a06 	bl	6660 <__aeabi_fcmpge>
    3e44:	e3500000 	cmp	r0, #0
    3e48:	11a00008 	movne	r0, r8
    3e4c:	1b000a0f 	blne	6690 <__aeabi_f2uiz>
    3e50:	e5b73004 	ldr	r3, [r7, #4]!
    3e54:	e2844001 	add	r4, r4, #1
    3e58:	e1530000 	cmp	r3, r0
    3e5c:	128bb001 	addne	fp, fp, #1
    3e60:	e3540080 	cmp	r4, #128	; 0x80
    3e64:	e28aa004 	add	sl, sl, #4
    3e68:	e2866004 	add	r6, r6, #4
    3e6c:	e2855004 	add	r5, r5, #4
    3e70:	0a000050 	beq	3fb8 <canny_non_max_check_output+0x21c>
    3e74:	e3590000 	cmp	r9, #0
    3e78:	13a00000 	movne	r0, #0
    3e7c:	1afffff3 	bne	3e50 <canny_non_max_check_output+0xb4>
    3e80:	e354007f 	cmp	r4, #127	; 0x7f
    3e84:	13540000 	cmpne	r4, #0
    3e88:	01a00009 	moveq	r0, r9
    3e8c:	0affffef 	beq	3e50 <canny_non_max_check_output+0xb4>
    3e90:	e59d3008 	ldr	r3, [sp, #8]
    3e94:	e7930104 	ldr	r0, [r3, r4, lsl #2]
    3e98:	eb00066a 	bl	5848 <__aeabi_f2d>
    3e9c:	e28f3f57 	add	r3, pc, #348	; 0x15c
    3ea0:	e893000c 	ldm	r3, {r2, r3}
    3ea4:	eb000696 	bl	5904 <__aeabi_dmul>
    3ea8:	eb000822 	bl	5f38 <__aeabi_d2f>
    3eac:	e3a01000 	mov	r1, #0
    3eb0:	e1a08000 	mov	r8, r0
    3eb4:	eb0009dd 	bl	6630 <__aeabi_fcmplt>
    3eb8:	e3500000 	cmp	r0, #0
    3ebc:	0a000003 	beq	3ed0 <canny_non_max_check_output+0x134>
    3ec0:	e1a00008 	mov	r0, r8
    3ec4:	e59f1144 	ldr	r1, [pc, #324]	; 4010 <canny_non_max_check_output+0x274>
    3ec8:	eb000845 	bl	5fe4 <__addsf3>
    3ecc:	e1a08000 	mov	r8, r0
    3ed0:	e3a01000 	mov	r1, #0
    3ed4:	e1a00008 	mov	r0, r8
    3ed8:	eb0009e0 	bl	6660 <__aeabi_fcmpge>
    3edc:	e3500000 	cmp	r0, #0
    3ee0:	1affffc7 	bne	3e04 <canny_non_max_check_output+0x68>
    3ee4:	e59f1128 	ldr	r1, [pc, #296]	; 4014 <canny_non_max_check_output+0x278>
    3ee8:	e1a00008 	mov	r0, r8
    3eec:	eb0009db 	bl	6660 <__aeabi_fcmpge>
    3ef0:	e3500000 	cmp	r0, #0
    3ef4:	0a000004 	beq	3f0c <canny_non_max_check_output+0x170>
    3ef8:	e59f1110 	ldr	r1, [pc, #272]	; 4010 <canny_non_max_check_output+0x274>
    3efc:	e1a00008 	mov	r0, r8
    3f00:	eb0009d0 	bl	6648 <__aeabi_fcmple>
    3f04:	e3500000 	cmp	r0, #0
    3f08:	1affffc2 	bne	3e18 <canny_non_max_check_output+0x7c>
    3f0c:	e59f10f8 	ldr	r1, [pc, #248]	; 400c <canny_non_max_check_output+0x270>
    3f10:	e1a00008 	mov	r0, r8
    3f14:	eb0009d1 	bl	6660 <__aeabi_fcmpge>
    3f18:	e3500000 	cmp	r0, #0
    3f1c:	0a000007 	beq	3f40 <canny_non_max_check_output+0x1a4>
    3f20:	e59f10f0 	ldr	r1, [pc, #240]	; 4018 <canny_non_max_check_output+0x27c>
    3f24:	e1a00008 	mov	r0, r8
    3f28:	eb0009c0 	bl	6630 <__aeabi_fcmplt>
    3f2c:	e3500000 	cmp	r0, #0
    3f30:	15953004 	ldrne	r3, [r5, #4]
    3f34:	15161004 	ldrne	r1, [r6, #-4]
    3f38:	158d3004 	strne	r3, [sp, #4]
    3f3c:	1affffb8 	bne	3e24 <canny_non_max_check_output+0x88>
    3f40:	e59f10d0 	ldr	r1, [pc, #208]	; 4018 <canny_non_max_check_output+0x27c>
    3f44:	e1a00008 	mov	r0, r8
    3f48:	eb0009c4 	bl	6660 <__aeabi_fcmpge>
    3f4c:	e3500000 	cmp	r0, #0
    3f50:	0a000007 	beq	3f74 <canny_non_max_check_output+0x1d8>
    3f54:	e59f10c0 	ldr	r1, [pc, #192]	; 401c <canny_non_max_check_output+0x280>
    3f58:	e1a00008 	mov	r0, r8
    3f5c:	eb0009b3 	bl	6630 <__aeabi_fcmplt>
    3f60:	e3500000 	cmp	r0, #0
    3f64:	15953000 	ldrne	r3, [r5]
    3f68:	15961000 	ldrne	r1, [r6]
    3f6c:	158d3004 	strne	r3, [sp, #4]
    3f70:	1affffab 	bne	3e24 <canny_non_max_check_output+0x88>
    3f74:	e59f10a0 	ldr	r1, [pc, #160]	; 401c <canny_non_max_check_output+0x280>
    3f78:	e1a00008 	mov	r0, r8
    3f7c:	eb0009b7 	bl	6660 <__aeabi_fcmpge>
    3f80:	e3500000 	cmp	r0, #0
    3f84:	0a000007 	beq	3fa8 <canny_non_max_check_output+0x20c>
    3f88:	e1a00008 	mov	r0, r8
    3f8c:	e59f1080 	ldr	r1, [pc, #128]	; 4014 <canny_non_max_check_output+0x278>
    3f90:	eb0009a6 	bl	6630 <__aeabi_fcmplt>
    3f94:	e3500000 	cmp	r0, #0
    3f98:	15963004 	ldrne	r3, [r6, #4]
    3f9c:	15151004 	ldrne	r1, [r5, #-4]
    3fa0:	158d3004 	strne	r3, [sp, #4]
    3fa4:	1affff9e 	bne	3e24 <canny_non_max_check_output+0x88>
    3fa8:	e59f3070 	ldr	r3, [pc, #112]	; 4020 <canny_non_max_check_output+0x284>
    3fac:	e58d3004 	str	r3, [sp, #4]
    3fb0:	e1a01003 	mov	r1, r3
    3fb4:	eaffff9a 	b	3e24 <canny_non_max_check_output+0x88>
    3fb8:	e59d300c 	ldr	r3, [sp, #12]
    3fbc:	e2833001 	add	r3, r3, #1
    3fc0:	e58d300c 	str	r3, [sp, #12]
    3fc4:	e3530080 	cmp	r3, #128	; 0x80
    3fc8:	e59d3010 	ldr	r3, [sp, #16]
    3fcc:	e2833c02 	add	r3, r3, #512	; 0x200
    3fd0:	e58d3010 	str	r3, [sp, #16]
    3fd4:	e59d3008 	ldr	r3, [sp, #8]
    3fd8:	e2833c02 	add	r3, r3, #512	; 0x200
    3fdc:	e58d3008 	str	r3, [sp, #8]
    3fe0:	e59da014 	ldr	sl, [sp, #20]
    3fe4:	1affff79 	bne	3dd0 <canny_non_max_check_output+0x34>
    3fe8:	e1a0100b 	mov	r1, fp
    3fec:	e59f0030 	ldr	r0, [pc, #48]	; 4024 <canny_non_max_check_output+0x288>
    3ff0:	eb000db5 	bl	76cc <printf>
    3ff4:	e28dd01c 	add	sp, sp, #28
    3ff8:	e8bd4ff0 	pop	{r4, r5, r6, r7, r8, r9, sl, fp, lr}
    3ffc:	e12fff1e 	bx	lr
    4000:	1a63c1f8 	bne	18f47e8 <__ascii_wctomb+0x18e3b50>
    4004:	404ca5dc 	ldrdmi	sl, [ip], #-92	; 0xffffffa4
    4008:	00006e18 	andeq	r6, r0, r8, lsl lr
    400c:	41b40000 			; <UNDEFINED> instruction: 0x41b40000
    4010:	43340000 	teqmi	r4, #0
    4014:	431d8000 	tstmi	sp, #0
    4018:	42870000 	addmi	r0, r7, #0
    401c:	42e10000 	rscmi	r0, r1, #0
    4020:	437f0000 	cmnmi	pc, #0
    4024:	00006e30 	andeq	r6, r0, r0, lsr lr

00004028 <add_convolution>:
    4028:	e92d41f0 	push	{r4, r5, r6, r7, r8, lr}
    402c:	e3a00018 	mov	r0, #24
    4030:	e24dd008 	sub	sp, sp, #8
    4034:	ebfff0f4 	bl	40c <get_memory>
    4038:	e1a05000 	mov	r5, r0
    403c:	e3a00f4b 	mov	r0, #300	; 0x12c
    4040:	ebfff0f1 	bl	40c <get_memory>
    4044:	e1a03000 	mov	r3, r0
    4048:	e3a00801 	mov	r0, #65536	; 0x10000
    404c:	e58d3004 	str	r3, [sp, #4]
    4050:	ebfff0ed 	bl	40c <get_memory>
    4054:	e5850000 	str	r0, [r5]
    4058:	e3a00801 	mov	r0, #65536	; 0x10000
    405c:	ebfff0ea 	bl	40c <get_memory>
    4060:	e5850014 	str	r0, [r5, #20]
    4064:	e3a00064 	mov	r0, #100	; 0x64
    4068:	ebfff0e7 	bl	40c <get_memory>
    406c:	e3a01005 	mov	r1, #5
    4070:	e3a03000 	mov	r3, #0
    4074:	e1a08000 	mov	r8, r0
    4078:	e3a02001 	mov	r2, #1
    407c:	e5851008 	str	r1, [r5, #8]
    4080:	e585100c 	str	r1, [r5, #12]
    4084:	e59d0004 	ldr	r0, [sp, #4]
    4088:	e59d1004 	ldr	r1, [sp, #4]
    408c:	e5858004 	str	r8, [r5, #4]
    4090:	e5c53010 	strb	r3, [r5, #16]
    4094:	e5802000 	str	r2, [r0]
    4098:	e5815004 	str	r5, [r1, #4]
    409c:	e59d1004 	ldr	r1, [sp, #4]
    40a0:	e5813008 	str	r3, [r1, #8]
    40a4:	e59d1004 	ldr	r1, [sp, #4]
    40a8:	e581300c 	str	r3, [r1, #12]
    40ac:	e59d1004 	ldr	r1, [sp, #4]
    40b0:	e58130d8 	str	r3, [r1, #216]	; 0xd8
    40b4:	e59d1004 	ldr	r1, [sp, #4]
    40b8:	e58130ec 	str	r3, [r1, #236]	; 0xec
    40bc:	e59d1004 	ldr	r1, [sp, #4]
    40c0:	e58130dc 	str	r3, [r1, #220]	; 0xdc
    40c4:	e59d1004 	ldr	r1, [sp, #4]
    40c8:	e58130f0 	str	r3, [r1, #240]	; 0xf0
    40cc:	e59d1004 	ldr	r1, [sp, #4]
    40d0:	e58130e0 	str	r3, [r1, #224]	; 0xe0
    40d4:	e59d1004 	ldr	r1, [sp, #4]
    40d8:	e58130f4 	str	r3, [r1, #244]	; 0xf4
    40dc:	e59d1004 	ldr	r1, [sp, #4]
    40e0:	e58130e4 	str	r3, [r1, #228]	; 0xe4
    40e4:	e59d1004 	ldr	r1, [sp, #4]
    40e8:	e58130f8 	str	r3, [r1, #248]	; 0xf8
    40ec:	e59d1004 	ldr	r1, [sp, #4]
    40f0:	e58130e8 	str	r3, [r1, #232]	; 0xe8
    40f4:	e59d1004 	ldr	r1, [sp, #4]
    40f8:	e1a04003 	mov	r4, r3
    40fc:	e58130fc 	str	r3, [r1, #252]	; 0xfc
    4100:	e59d3004 	ldr	r3, [sp, #4]
    4104:	e5956000 	ldr	r6, [r5]
    4108:	e5955014 	ldr	r5, [r5, #20]
    410c:	e59f7128 	ldr	r7, [pc, #296]	; 423c <add_convolution+0x214>
    4110:	e5832100 	str	r2, [r3, #256]	; 0x100
    4114:	e2466004 	sub	r6, r6, #4
    4118:	e2455004 	sub	r5, r5, #4
    411c:	e20400ff 	and	r0, r4, #255	; 0xff
    4120:	e2800001 	add	r0, r0, #1
    4124:	eb00081f 	bl	61a8 <__aeabi_i2f>
    4128:	e2844001 	add	r4, r4, #1
    412c:	e3540901 	cmp	r4, #16384	; 0x4000
    4130:	e5a60004 	str	r0, [r6, #4]!
    4134:	e5a57004 	str	r7, [r5, #4]!
    4138:	1afffff7 	bne	411c <add_convolution+0xf4>
    413c:	e3a00101 	mov	r0, #1073741824	; 0x40000000
    4140:	e59f10f8 	ldr	r1, [pc, #248]	; 4240 <add_convolution+0x218>
    4144:	e59f30f8 	ldr	r3, [pc, #248]	; 4244 <add_convolution+0x21c>
    4148:	e5911000 	ldr	r1, [r1]
    414c:	e5933000 	ldr	r3, [r3]
    4150:	e5911004 	ldr	r1, [r1, #4]
    4154:	e3a0c5fe 	mov	ip, #1065353216	; 0x3f800000
    4158:	e5911000 	ldr	r1, [r1]
    415c:	e5933004 	ldr	r3, [r3, #4]
    4160:	e5880004 	str	r0, [r8, #4]
    4164:	e59f00dc 	ldr	r0, [pc, #220]	; 4248 <add_convolution+0x220>
    4168:	e588000c 	str	r0, [r8, #12]
    416c:	e59f00d8 	ldr	r0, [pc, #216]	; 424c <add_convolution+0x224>
    4170:	e5880014 	str	r0, [r8, #20]
    4174:	e3a00441 	mov	r0, #1090519040	; 0x41000000
    4178:	e3a02001 	mov	r2, #1
    417c:	e588c000 	str	ip, [r8]
    4180:	e59fc0c8 	ldr	ip, [pc, #200]	; 4250 <add_convolution+0x228>
    4184:	e588c008 	str	ip, [r8, #8]
    4188:	e59fc0c4 	ldr	ip, [pc, #196]	; 4254 <add_convolution+0x22c>
    418c:	e588c010 	str	ip, [r8, #16]
    4190:	e59fc0c0 	ldr	ip, [pc, #192]	; 4258 <add_convolution+0x230>
    4194:	e588001c 	str	r0, [r8, #28]
    4198:	e588c018 	str	ip, [r8, #24]
    419c:	e59f00b8 	ldr	r0, [pc, #184]	; 425c <add_convolution+0x234>
    41a0:	e59fc0b8 	ldr	ip, [pc, #184]	; 4260 <add_convolution+0x238>
    41a4:	e5880024 	str	r0, [r8, #36]	; 0x24
    41a8:	e588c020 	str	ip, [r8, #32]
    41ac:	e59f00b0 	ldr	r0, [pc, #176]	; 4264 <add_convolution+0x23c>
    41b0:	e59fc0b0 	ldr	ip, [pc, #176]	; 4268 <add_convolution+0x240>
    41b4:	e588002c 	str	r0, [r8, #44]	; 0x2c
    41b8:	e588c028 	str	ip, [r8, #40]	; 0x28
    41bc:	e59f00a8 	ldr	r0, [pc, #168]	; 426c <add_convolution+0x244>
    41c0:	e59fc0a8 	ldr	ip, [pc, #168]	; 4270 <add_convolution+0x248>
    41c4:	e5880034 	str	r0, [r8, #52]	; 0x34
    41c8:	e588c030 	str	ip, [r8, #48]	; 0x30
    41cc:	e59f00a0 	ldr	r0, [pc, #160]	; 4274 <add_convolution+0x24c>
    41d0:	e59fc0a0 	ldr	ip, [pc, #160]	; 4278 <add_convolution+0x250>
    41d4:	e588003c 	str	r0, [r8, #60]	; 0x3c
    41d8:	e588c038 	str	ip, [r8, #56]	; 0x38
    41dc:	e59f0098 	ldr	r0, [pc, #152]	; 427c <add_convolution+0x254>
    41e0:	e59fc098 	ldr	ip, [pc, #152]	; 4280 <add_convolution+0x258>
    41e4:	e5880044 	str	r0, [r8, #68]	; 0x44
    41e8:	e588c040 	str	ip, [r8, #64]	; 0x40
    41ec:	e59f0090 	ldr	r0, [pc, #144]	; 4284 <add_convolution+0x25c>
    41f0:	e59fc090 	ldr	ip, [pc, #144]	; 4288 <add_convolution+0x260>
    41f4:	e588004c 	str	r0, [r8, #76]	; 0x4c
    41f8:	e588c048 	str	ip, [r8, #72]	; 0x48
    41fc:	e59f0088 	ldr	r0, [pc, #136]	; 428c <add_convolution+0x264>
    4200:	e59fc088 	ldr	ip, [pc, #136]	; 4290 <add_convolution+0x268>
    4204:	e5880054 	str	r0, [r8, #84]	; 0x54
    4208:	e588c050 	str	ip, [r8, #80]	; 0x50
    420c:	e59f0080 	ldr	r0, [pc, #128]	; 4294 <add_convolution+0x26c>
    4210:	e59fc080 	ldr	ip, [pc, #128]	; 4298 <add_convolution+0x270>
    4214:	e588005c 	str	r0, [r8, #92]	; 0x5c
    4218:	e588c058 	str	ip, [r8, #88]	; 0x58
    421c:	e59d0004 	ldr	r0, [sp, #4]
    4220:	e59fc074 	ldr	ip, [pc, #116]	; 429c <add_convolution+0x274>
    4224:	e588c060 	str	ip, [r8, #96]	; 0x60
    4228:	e5810000 	str	r0, [r1]
    422c:	e5832000 	str	r2, [r3]
    4230:	e28dd008 	add	sp, sp, #8
    4234:	e8bd41f0 	pop	{r4, r5, r6, r7, r8, lr}
    4238:	e12fff1e 	bx	lr
    423c:	bf800000 	svclt	0x00800000
    4240:	800016a0 	andhi	r1, r0, r0, lsr #13
    4244:	800016a4 	andhi	r1, r0, r4, lsr #13
    4248:	40800000 	addmi	r0, r0, r0
    424c:	40c00000 	sbcmi	r0, r0, r0
    4250:	40400000 	submi	r0, r0, r0
    4254:	40a00000 	adcmi	r0, r0, r0
    4258:	40e00000 	rscmi	r0, r0, r0
    425c:	41200000 			; <UNDEFINED> instruction: 0x41200000
    4260:	41100000 	tstmi	r0, r0
    4264:	41400000 	mrsmi	r0, (UNDEF: 64)
    4268:	41300000 	teqmi	r0, r0
    426c:	41600000 	cmnmi	r0, r0
    4270:	41500000 	cmpmi	r0, r0
    4274:	41800000 	orrmi	r0, r0, r0
    4278:	41700000 	cmnmi	r0, r0
    427c:	41900000 	orrsmi	r0, r0, r0
    4280:	41880000 	orrmi	r0, r8, r0
    4284:	41a00000 	movmi	r0, r0
    4288:	41980000 	orrsmi	r0, r8, r0
    428c:	41b00000 	movsmi	r0, r0
    4290:	41a80000 			; <UNDEFINED> instruction: 0x41a80000
    4294:	41c00000 	bicmi	r0, r0, r0
    4298:	41b80000 			; <UNDEFINED> instruction: 0x41b80000
    429c:	41c80000 	bicmi	r0, r8, r0

000042a0 <convolution_check_output>:
    42a0:	e92d4ff0 	push	{r4, r5, r6, r7, r8, r9, sl, fp, lr}
    42a4:	e1a04000 	mov	r4, r0
    42a8:	e24dd044 	sub	sp, sp, #68	; 0x44
    42ac:	e59f024c 	ldr	r0, [pc, #588]	; 4500 <convolution_check_output+0x260>
    42b0:	eb000d5a 	bl	7820 <puts>
    42b4:	e5946008 	ldr	r6, [r4, #8]
    42b8:	e2463001 	sub	r3, r6, #1
    42bc:	e0833fa3 	add	r3, r3, r3, lsr #31
    42c0:	e594500c 	ldr	r5, [r4, #12]
    42c4:	e1a030c3 	asr	r3, r3, #1
    42c8:	e594c000 	ldr	ip, [r4]
    42cc:	e063eb83 	rsb	lr, r3, r3, lsl #23
    42d0:	e08cc48e 	add	ip, ip, lr, lsl #9
    42d4:	e2452001 	sub	r2, r5, #1
    42d8:	e0822fa2 	add	r2, r2, r2, lsr #31
    42dc:	e5940004 	ldr	r0, [r4, #4]
    42e0:	e58dc014 	str	ip, [sp, #20]
    42e4:	e046c003 	sub	ip, r6, r3
    42e8:	e1a020c2 	asr	r2, r2, #1
    42ec:	e58dc000 	str	ip, [sp]
    42f0:	e263c000 	rsb	ip, r3, #0
    42f4:	e2633080 	rsb	r3, r3, #128	; 0x80
    42f8:	e58d3034 	str	r3, [sp, #52]	; 0x34
    42fc:	e0803102 	add	r3, r0, r2, lsl #2
    4300:	e58d3030 	str	r3, [sp, #48]	; 0x30
    4304:	e0453002 	sub	r3, r5, r2
    4308:	e58d303c 	str	r3, [sp, #60]	; 0x3c
    430c:	e2623000 	rsb	r3, r2, #0
    4310:	e5941014 	ldr	r1, [r4, #20]
    4314:	e58d3038 	str	r3, [sp, #56]	; 0x38
    4318:	e2623080 	rsb	r3, r2, #128	; 0x80
    431c:	e58d3024 	str	r3, [sp, #36]	; 0x24
    4320:	e1a03105 	lsl	r3, r5, #2
    4324:	e58d3008 	str	r3, [sp, #8]
    4328:	e2413004 	sub	r3, r1, #4
    432c:	e58d302c 	str	r3, [sp, #44]	; 0x2c
    4330:	e5d43010 	ldrb	r3, [r4, #16]
    4334:	e58d3028 	str	r3, [sp, #40]	; 0x28
    4338:	e3a03000 	mov	r3, #0
    433c:	e58d6020 	str	r6, [sp, #32]
    4340:	e58d5004 	str	r5, [sp, #4]
    4344:	e58dc018 	str	ip, [sp, #24]
    4348:	e58d301c 	str	r3, [sp, #28]
    434c:	e59d3030 	ldr	r3, [sp, #48]	; 0x30
    4350:	e58d300c 	str	r3, [sp, #12]
    4354:	e59d302c 	ldr	r3, [sp, #44]	; 0x2c
    4358:	e59d603c 	ldr	r6, [sp, #60]	; 0x3c
    435c:	e59d9038 	ldr	r9, [sp, #56]	; 0x38
    4360:	e58d3010 	str	r3, [sp, #16]
    4364:	e59d3020 	ldr	r3, [sp, #32]
    4368:	e3530000 	cmp	r3, #0
    436c:	da00005f 	ble	44f0 <convolution_check_output+0x250>
    4370:	e59da014 	ldr	sl, [sp, #20]
    4374:	e1a0300a 	mov	r3, sl
    4378:	e59db00c 	ldr	fp, [sp, #12]
    437c:	e3a07000 	mov	r7, #0
    4380:	e1a0a00b 	mov	sl, fp
    4384:	e1a0b003 	mov	fp, r3
    4388:	e59d8018 	ldr	r8, [sp, #24]
    438c:	e59d3004 	ldr	r3, [sp, #4]
    4390:	e3530000 	cmp	r3, #0
    4394:	da000016 	ble	43f4 <convolution_check_output+0x154>
    4398:	e358007f 	cmp	r8, #127	; 0x7f
    439c:	83a05000 	movhi	r5, #0
    43a0:	93a05001 	movls	r5, #1
    43a4:	e1a04009 	mov	r4, r9
    43a8:	ea000002 	b	43b8 <convolution_check_output+0x118>
    43ac:	e2844001 	add	r4, r4, #1
    43b0:	e1540006 	cmp	r4, r6
    43b4:	0a00000e 	beq	43f4 <convolution_check_output+0x154>
    43b8:	e354007f 	cmp	r4, #127	; 0x7f
    43bc:	83a03000 	movhi	r3, #0
    43c0:	92053001 	andls	r3, r5, #1
    43c4:	e3530000 	cmp	r3, #0
    43c8:	0afffff7 	beq	43ac <convolution_check_output+0x10c>
    43cc:	e79a1104 	ldr	r1, [sl, r4, lsl #2]
    43d0:	e79b0104 	ldr	r0, [fp, r4, lsl #2]
    43d4:	eb0007aa 	bl	6284 <__aeabi_fmul>
    43d8:	e1a01000 	mov	r1, r0
    43dc:	e1a00007 	mov	r0, r7
    43e0:	eb0006ff 	bl	5fe4 <__addsf3>
    43e4:	e2844001 	add	r4, r4, #1
    43e8:	e1540006 	cmp	r4, r6
    43ec:	e1a07000 	mov	r7, r0
    43f0:	1afffff0 	bne	43b8 <convolution_check_output+0x118>
    43f4:	e59d3000 	ldr	r3, [sp]
    43f8:	e2888001 	add	r8, r8, #1
    43fc:	e1530008 	cmp	r3, r8
    4400:	e59d3008 	ldr	r3, [sp, #8]
    4404:	e28bbc02 	add	fp, fp, #512	; 0x200
    4408:	e08aa003 	add	sl, sl, r3
    440c:	1affffde 	bne	438c <convolution_check_output+0xec>
    4410:	e59d3028 	ldr	r3, [sp, #40]	; 0x28
    4414:	e3530000 	cmp	r3, #0
    4418:	0a000009 	beq	4444 <convolution_check_output+0x1a4>
    441c:	e3a01000 	mov	r1, #0
    4420:	e1a00007 	mov	r0, r7
    4424:	eb000881 	bl	6630 <__aeabi_fcmplt>
    4428:	e3500000 	cmp	r0, #0
    442c:	01a00007 	moveq	r0, r7
    4430:	12870102 	addne	r0, r7, #-2147483648	; 0x80000000
    4434:	eb000895 	bl	6690 <__aeabi_f2uiz>
    4438:	e20000ff 	and	r0, r0, #255	; 0xff
    443c:	eb000757 	bl	61a0 <__aeabi_ui2f>
    4440:	e1a07000 	mov	r7, r0
    4444:	e59d3010 	ldr	r3, [sp, #16]
    4448:	e5b31004 	ldr	r1, [r3, #4]!
    444c:	e1a00007 	mov	r0, r7
    4450:	e58d3010 	str	r3, [sp, #16]
    4454:	eb0006e1 	bl	5fe0 <__aeabi_fsub>
    4458:	e3c00102 	bic	r0, r0, #-2147483648	; 0x80000000
    445c:	eb0004f9 	bl	5848 <__aeabi_f2d>
    4460:	e28f3090 	add	r3, pc, #144	; 0x90
    4464:	e893000c 	ldm	r3, {r2, r3}
    4468:	eb000697 	bl	5ecc <__aeabi_dcmpgt>
    446c:	e3500000 	cmp	r0, #0
    4470:	159d301c 	ldrne	r3, [sp, #28]
    4474:	12833001 	addne	r3, r3, #1
    4478:	158d301c 	strne	r3, [sp, #28]
    447c:	e59d3024 	ldr	r3, [sp, #36]	; 0x24
    4480:	e2899001 	add	r9, r9, #1
    4484:	e1530009 	cmp	r3, r9
    4488:	e59d300c 	ldr	r3, [sp, #12]
    448c:	e2433004 	sub	r3, r3, #4
    4490:	e58d300c 	str	r3, [sp, #12]
    4494:	e2866001 	add	r6, r6, #1
    4498:	1affffb1 	bne	4364 <convolution_check_output+0xc4>
    449c:	e59d3018 	ldr	r3, [sp, #24]
    44a0:	e59d2034 	ldr	r2, [sp, #52]	; 0x34
    44a4:	e2833001 	add	r3, r3, #1
    44a8:	e58d3018 	str	r3, [sp, #24]
    44ac:	e1530002 	cmp	r3, r2
    44b0:	e59d302c 	ldr	r3, [sp, #44]	; 0x2c
    44b4:	e2833c02 	add	r3, r3, #512	; 0x200
    44b8:	e58d302c 	str	r3, [sp, #44]	; 0x2c
    44bc:	e59d3000 	ldr	r3, [sp]
    44c0:	e2833001 	add	r3, r3, #1
    44c4:	e58d3000 	str	r3, [sp]
    44c8:	e59d3014 	ldr	r3, [sp, #20]
    44cc:	e2833c02 	add	r3, r3, #512	; 0x200
    44d0:	e58d3014 	str	r3, [sp, #20]
    44d4:	1affff9c 	bne	434c <convolution_check_output+0xac>
    44d8:	e59d101c 	ldr	r1, [sp, #28]
    44dc:	e59f0020 	ldr	r0, [pc, #32]	; 4504 <convolution_check_output+0x264>
    44e0:	eb000c79 	bl	76cc <printf>
    44e4:	e28dd044 	add	sp, sp, #68	; 0x44
    44e8:	e8bd4ff0 	pop	{r4, r5, r6, r7, r8, r9, sl, fp, lr}
    44ec:	e12fff1e 	bx	lr
    44f0:	e3a07000 	mov	r7, #0
    44f4:	eaffffd2 	b	4444 <convolution_check_output+0x1a4>
    44f8:	eb1c432d 	bl	7151b4 <__ascii_wctomb+0x70451c>
    44fc:	3f1a36e2 	svccc	0x001a36e2
    4500:	00006e50 	andeq	r6, r0, r0, asr lr
    4504:	00006e70 	andeq	r6, r0, r0, ror lr

00004508 <add_edge_tracking>:
    4508:	e92d4030 	push	{r4, r5, lr}
    450c:	e3a00010 	mov	r0, #16
    4510:	e24dd00c 	sub	sp, sp, #12
    4514:	ebffefbc 	bl	40c <get_memory>
    4518:	e1a04000 	mov	r4, r0
    451c:	e3a00f4b 	mov	r0, #300	; 0x12c
    4520:	ebffefb9 	bl	40c <get_memory>
    4524:	e1a03000 	mov	r3, r0
    4528:	e3a00801 	mov	r0, #65536	; 0x10000
    452c:	e58d3004 	str	r3, [sp, #4]
    4530:	ebffefb5 	bl	40c <get_memory>
    4534:	e5840000 	str	r0, [r4]
    4538:	e3a00901 	mov	r0, #16384	; 0x4000
    453c:	ebffefb2 	bl	40c <get_memory>
    4540:	e3a0343f 	mov	r3, #1056964608	; 0x3f000000
    4544:	e3a01002 	mov	r1, #2
    4548:	e3a0c000 	mov	ip, #0
    454c:	e3a02001 	mov	r2, #1
    4550:	e3a0e080 	mov	lr, #128	; 0x80
    4554:	e3e05000 	mvn	r5, #0
    4558:	e5843004 	str	r3, [r4, #4]
    455c:	e59f30f4 	ldr	r3, [pc, #244]	; 4658 <add_edge_tracking+0x150>
    4560:	e5843008 	str	r3, [r4, #8]
    4564:	e59d3004 	ldr	r3, [sp, #4]
    4568:	e584000c 	str	r0, [r4, #12]
    456c:	e5831000 	str	r1, [r3]
    4570:	e59d1004 	ldr	r1, [sp, #4]
    4574:	e59d3004 	ldr	r3, [sp, #4]
    4578:	e5814004 	str	r4, [r1, #4]
    457c:	e59d1004 	ldr	r1, [sp, #4]
    4580:	e583c008 	str	ip, [r3, #8]
    4584:	e59d3004 	ldr	r3, [sp, #4]
    4588:	e581c00c 	str	ip, [r1, #12]
    458c:	e59d1004 	ldr	r1, [sp, #4]
    4590:	e583c0d8 	str	ip, [r3, #216]	; 0xd8
    4594:	e59d3004 	ldr	r3, [sp, #4]
    4598:	e581c0ec 	str	ip, [r1, #236]	; 0xec
    459c:	e59d1004 	ldr	r1, [sp, #4]
    45a0:	e583c0dc 	str	ip, [r3, #220]	; 0xdc
    45a4:	e59d3004 	ldr	r3, [sp, #4]
    45a8:	e581c0f0 	str	ip, [r1, #240]	; 0xf0
    45ac:	e59d1004 	ldr	r1, [sp, #4]
    45b0:	e583c0e0 	str	ip, [r3, #224]	; 0xe0
    45b4:	e59d3004 	ldr	r3, [sp, #4]
    45b8:	e581c0f4 	str	ip, [r1, #244]	; 0xf4
    45bc:	e59d1004 	ldr	r1, [sp, #4]
    45c0:	e583c0e4 	str	ip, [r3, #228]	; 0xe4
    45c4:	e59d3004 	ldr	r3, [sp, #4]
    45c8:	e581c0f8 	str	ip, [r1, #248]	; 0xf8
    45cc:	e59d1004 	ldr	r1, [sp, #4]
    45d0:	e583c0e8 	str	ip, [r3, #232]	; 0xe8
    45d4:	e59d3004 	ldr	r3, [sp, #4]
    45d8:	e581c0fc 	str	ip, [r1, #252]	; 0xfc
    45dc:	e5832100 	str	r2, [r3, #256]	; 0x100
    45e0:	e5942000 	ldr	r2, [r4]
    45e4:	e782c48c 	str	ip, [r2, ip, lsl #9]
    45e8:	e7c0538c 	strb	r5, [r0, ip, lsl #7]
    45ec:	e24e307f 	sub	r3, lr, #127	; 0x7f
    45f0:	e594200c 	ldr	r2, [r4, #12]
    45f4:	e5941000 	ldr	r1, [r4]
    45f8:	e781c103 	str	ip, [r1, r3, lsl #2]
    45fc:	e7c25003 	strb	r5, [r2, r3]
    4600:	e2833001 	add	r3, r3, #1
    4604:	e153000e 	cmp	r3, lr
    4608:	1afffff8 	bne	45f0 <add_edge_tracking+0xe8>
    460c:	e28cc001 	add	ip, ip, #1
    4610:	e35c0080 	cmp	ip, #128	; 0x80
    4614:	e28ee080 	add	lr, lr, #128	; 0x80
    4618:	1594000c 	ldrne	r0, [r4, #12]
    461c:	1affffef 	bne	45e0 <add_edge_tracking+0xd8>
    4620:	e3a02001 	mov	r2, #1
    4624:	e59f1030 	ldr	r1, [pc, #48]	; 465c <add_edge_tracking+0x154>
    4628:	e59f3030 	ldr	r3, [pc, #48]	; 4660 <add_edge_tracking+0x158>
    462c:	e5911000 	ldr	r1, [r1]
    4630:	e5933000 	ldr	r3, [r3]
    4634:	e5911008 	ldr	r1, [r1, #8]
    4638:	e5933008 	ldr	r3, [r3, #8]
    463c:	e5911000 	ldr	r1, [r1]
    4640:	e59d0004 	ldr	r0, [sp, #4]
    4644:	e5810000 	str	r0, [r1]
    4648:	e5832000 	str	r2, [r3]
    464c:	e28dd00c 	add	sp, sp, #12
    4650:	e8bd4030 	pop	{r4, r5, lr}
    4654:	e12fff1e 	bx	lr
    4658:	3f00c49c 	svccc	0x0000c49c
    465c:	800016a0 	andhi	r1, r0, r0, lsr #13
    4660:	800016a4 	andhi	r1, r0, r4, lsr #13

00004664 <edge_tracking_check_output>:
    4664:	e92d4070 	push	{r4, r5, r6, lr}
    4668:	e1a04000 	mov	r4, r0
    466c:	e59f00b4 	ldr	r0, [pc, #180]	; 4728 <edge_tracking_check_output+0xc4>
    4670:	eb000c6a 	bl	7820 <puts>
    4674:	e3a0e000 	mov	lr, #0
    4678:	e1a0500e 	mov	r5, lr
    467c:	e1a0100e 	mov	r1, lr
    4680:	e594c00c 	ldr	ip, [r4, #12]
    4684:	e59f40a0 	ldr	r4, [pc, #160]	; 472c <edge_tracking_check_output+0xc8>
    4688:	e28cc07f 	add	ip, ip, #127	; 0x7f
    468c:	e245007f 	sub	r0, r5, #127	; 0x7f
    4690:	e2702000 	rsbs	r2, r0, #0
    4694:	e0a22000 	adc	r2, r2, r0
    4698:	e3550000 	cmp	r5, #0
    469c:	03a02001 	moveq	r2, #1
    46a0:	e3520000 	cmp	r2, #0
    46a4:	124c3080 	subne	r3, ip, #128	; 0x80
    46a8:	1a000018 	bne	4710 <edge_tracking_check_output+0xac>
    46ac:	e24c0080 	sub	r0, ip, #128	; 0x80
    46b0:	e3520000 	cmp	r2, #0
    46b4:	1352007f 	cmpne	r2, #127	; 0x7f
    46b8:	03a03001 	moveq	r3, #1
    46bc:	13a03000 	movne	r3, #0
    46c0:	e082600e 	add	r6, r2, lr
    46c4:	e1560004 	cmp	r6, r4
    46c8:	d3833001 	orrle	r3, r3, #1
    46cc:	e5f06001 	ldrb	r6, [r0, #1]!
    46d0:	e2433001 	sub	r3, r3, #1
    46d4:	e20330ff 	and	r3, r3, #255	; 0xff
    46d8:	e1560003 	cmp	r6, r3
    46dc:	e2822001 	add	r2, r2, #1
    46e0:	12811001 	addne	r1, r1, #1
    46e4:	e3520080 	cmp	r2, #128	; 0x80
    46e8:	1afffff0 	bne	46b0 <edge_tracking_check_output+0x4c>
    46ec:	e2855001 	add	r5, r5, #1
    46f0:	e3550080 	cmp	r5, #128	; 0x80
    46f4:	e28cc080 	add	ip, ip, #128	; 0x80
    46f8:	e28ee080 	add	lr, lr, #128	; 0x80
    46fc:	1affffe2 	bne	468c <edge_tracking_check_output+0x28>
    4700:	e59f0028 	ldr	r0, [pc, #40]	; 4730 <edge_tracking_check_output+0xcc>
    4704:	eb000bf0 	bl	76cc <printf>
    4708:	e8bd4070 	pop	{r4, r5, r6, lr}
    470c:	e12fff1e 	bx	lr
    4710:	e5f32001 	ldrb	r2, [r3, #1]!
    4714:	e3520000 	cmp	r2, #0
    4718:	12811001 	addne	r1, r1, #1
    471c:	e153000c 	cmp	r3, ip
    4720:	1afffffa 	bne	4710 <edge_tracking_check_output+0xac>
    4724:	eafffff0 	b	46ec <edge_tracking_check_output+0x88>
    4728:	00006e98 	muleq	r0, r8, lr
    472c:	00001f7f 	andeq	r1, r0, pc, ror pc
    4730:	00006eac 	andeq	r6, r0, ip, lsr #29

00004734 <add_elem_matrix>:
    4734:	e92d41f0 	push	{r4, r5, r6, r7, r8, lr}
    4738:	e3a00010 	mov	r0, #16
    473c:	e24dd008 	sub	sp, sp, #8
    4740:	ebffef31 	bl	40c <get_memory>
    4744:	e1a05000 	mov	r5, r0
    4748:	e3a00f4b 	mov	r0, #300	; 0x12c
    474c:	ebffef2e 	bl	40c <get_memory>
    4750:	e1a03000 	mov	r3, r0
    4754:	e3a00801 	mov	r0, #65536	; 0x10000
    4758:	e58d3004 	str	r3, [sp, #4]
    475c:	ebffef2a 	bl	40c <get_memory>
    4760:	e5850000 	str	r0, [r5]
    4764:	e3a00801 	mov	r0, #65536	; 0x10000
    4768:	ebffef27 	bl	40c <get_memory>
    476c:	e5850004 	str	r0, [r5, #4]
    4770:	e3a00801 	mov	r0, #65536	; 0x10000
    4774:	ebffef24 	bl	40c <get_memory>
    4778:	e3a03000 	mov	r3, #0
    477c:	e3a02001 	mov	r2, #1
    4780:	e3a0e003 	mov	lr, #3
    4784:	e1a04003 	mov	r4, r3
    4788:	e59d1004 	ldr	r1, [sp, #4]
    478c:	e585000c 	str	r0, [r5, #12]
    4790:	e1c530b8 	strh	r3, [r5, #8]
    4794:	e5c5200a 	strb	r2, [r5, #10]
    4798:	e59dc004 	ldr	ip, [sp, #4]
    479c:	e581e000 	str	lr, [r1]
    47a0:	e59d1004 	ldr	r1, [sp, #4]
    47a4:	e58c5004 	str	r5, [ip, #4]
    47a8:	e59dc004 	ldr	ip, [sp, #4]
    47ac:	e5813008 	str	r3, [r1, #8]
    47b0:	e59d1004 	ldr	r1, [sp, #4]
    47b4:	e58c300c 	str	r3, [ip, #12]
    47b8:	e59dc004 	ldr	ip, [sp, #4]
    47bc:	e58130d8 	str	r3, [r1, #216]	; 0xd8
    47c0:	e59d1004 	ldr	r1, [sp, #4]
    47c4:	e58c30ec 	str	r3, [ip, #236]	; 0xec
    47c8:	e59dc004 	ldr	ip, [sp, #4]
    47cc:	e58130dc 	str	r3, [r1, #220]	; 0xdc
    47d0:	e59d1004 	ldr	r1, [sp, #4]
    47d4:	e58c30f0 	str	r3, [ip, #240]	; 0xf0
    47d8:	e59dc004 	ldr	ip, [sp, #4]
    47dc:	e58130e0 	str	r3, [r1, #224]	; 0xe0
    47e0:	e59d1004 	ldr	r1, [sp, #4]
    47e4:	e58c30f4 	str	r3, [ip, #244]	; 0xf4
    47e8:	e59dc004 	ldr	ip, [sp, #4]
    47ec:	e58130e4 	str	r3, [r1, #228]	; 0xe4
    47f0:	e59d1004 	ldr	r1, [sp, #4]
    47f4:	e58c30f8 	str	r3, [ip, #248]	; 0xf8
    47f8:	e59dc004 	ldr	ip, [sp, #4]
    47fc:	e58130e8 	str	r3, [r1, #232]	; 0xe8
    4800:	e59d1004 	ldr	r1, [sp, #4]
    4804:	e58c30fc 	str	r3, [ip, #252]	; 0xfc
    4808:	e5812100 	str	r2, [r1, #256]	; 0x100
    480c:	e5957000 	ldr	r7, [r5]
    4810:	e5956004 	ldr	r6, [r5, #4]
    4814:	e59f806c 	ldr	r8, [pc, #108]	; 4888 <add_elem_matrix+0x154>
    4818:	e2405004 	sub	r5, r0, #4
    481c:	e2477004 	sub	r7, r7, #4
    4820:	e2466004 	sub	r6, r6, #4
    4824:	e204007f 	and	r0, r4, #127	; 0x7f
    4828:	e2800001 	add	r0, r0, #1
    482c:	eb00065d 	bl	61a8 <__aeabi_i2f>
    4830:	e5a70004 	str	r0, [r7, #4]!
    4834:	e2640901 	rsb	r0, r4, #16384	; 0x4000
    4838:	eb00065a 	bl	61a8 <__aeabi_i2f>
    483c:	e2844001 	add	r4, r4, #1
    4840:	e3540901 	cmp	r4, #16384	; 0x4000
    4844:	e5a60004 	str	r0, [r6, #4]!
    4848:	e5a58004 	str	r8, [r5, #4]!
    484c:	1afffff4 	bne	4824 <add_elem_matrix+0xf0>
    4850:	e3a02001 	mov	r2, #1
    4854:	e59f1030 	ldr	r1, [pc, #48]	; 488c <add_elem_matrix+0x158>
    4858:	e59f3030 	ldr	r3, [pc, #48]	; 4890 <add_elem_matrix+0x15c>
    485c:	e5911000 	ldr	r1, [r1]
    4860:	e5933000 	ldr	r3, [r3]
    4864:	e591100c 	ldr	r1, [r1, #12]
    4868:	e593300c 	ldr	r3, [r3, #12]
    486c:	e5911000 	ldr	r1, [r1]
    4870:	e59d0004 	ldr	r0, [sp, #4]
    4874:	e5810000 	str	r0, [r1]
    4878:	e5832000 	str	r2, [r3]
    487c:	e28dd008 	add	sp, sp, #8
    4880:	e8bd41f0 	pop	{r4, r5, r6, r7, r8, lr}
    4884:	e12fff1e 	bx	lr
    4888:	bf800000 	svclt	0x00800000
    488c:	800016a0 	andhi	r1, r0, r0, lsr #13
    4890:	800016a4 	andhi	r1, r0, r4, lsr #13

00004894 <elem_matrix_check_output>:
    4894:	e92d4ff8 	push	{r3, r4, r5, r6, r7, r8, r9, sl, fp, lr}
    4898:	e1a05000 	mov	r5, r0
    489c:	e3a0a000 	mov	sl, #0
    48a0:	e3a0b5fe 	mov	fp, #1065353216	; 0x3f800000
    48a4:	e59f0084 	ldr	r0, [pc, #132]	; 4930 <elem_matrix_check_output+0x9c>
    48a8:	eb000bdc 	bl	7820 <puts>
    48ac:	e8950050 	ldm	r5, {r4, r6}
    48b0:	e595500c 	ldr	r5, [r5, #12]
    48b4:	e2847cff 	add	r7, r4, #65280	; 0xff00
    48b8:	e28f9068 	add	r9, pc, #104	; 0x68
    48bc:	e8990300 	ldm	r9, {r8, r9}
    48c0:	e28770fc 	add	r7, r7, #252	; 0xfc
    48c4:	e2444004 	sub	r4, r4, #4
    48c8:	e2466004 	sub	r6, r6, #4
    48cc:	e2455004 	sub	r5, r5, #4
    48d0:	e5b61004 	ldr	r1, [r6, #4]!
    48d4:	e1a0000b 	mov	r0, fp
    48d8:	eb0005c0 	bl	5fe0 <__aeabi_fsub>
    48dc:	e5b41004 	ldr	r1, [r4, #4]!
    48e0:	eb0005bf 	bl	5fe4 <__addsf3>
    48e4:	e5b51004 	ldr	r1, [r5, #4]!
    48e8:	eb0005bc 	bl	5fe0 <__aeabi_fsub>
    48ec:	e3c00102 	bic	r0, r0, #-2147483648	; 0x80000000
    48f0:	eb0003d4 	bl	5848 <__aeabi_f2d>
    48f4:	e1a02008 	mov	r2, r8
    48f8:	e1a03009 	mov	r3, r9
    48fc:	eb000572 	bl	5ecc <__aeabi_dcmpgt>
    4900:	e3500000 	cmp	r0, #0
    4904:	128aa001 	addne	sl, sl, #1
    4908:	e1570004 	cmp	r7, r4
    490c:	1affffef 	bne	48d0 <elem_matrix_check_output+0x3c>
    4910:	e1a0100a 	mov	r1, sl
    4914:	e59f0018 	ldr	r0, [pc, #24]	; 4934 <elem_matrix_check_output+0xa0>
    4918:	eb000b6b 	bl	76cc <printf>
    491c:	e8bd4ff8 	pop	{r3, r4, r5, r6, r7, r8, r9, sl, fp, lr}
    4920:	e12fff1e 	bx	lr
    4924:	e1a00000 	nop			; (mov r0, r0)
    4928:	eb1c432d 	bl	7155e4 <__ascii_wctomb+0x70494c>
    492c:	3f1a36e2 	svccc	0x001a36e2
    4930:	00006ecc 	andeq	r6, r0, ip, asr #29
    4934:	00006ee0 	andeq	r6, r0, r0, ror #29

00004938 <add_grayscale>:
    4938:	e92d4070 	push	{r4, r5, r6, lr}
    493c:	e3a00008 	mov	r0, #8
    4940:	e24dd008 	sub	sp, sp, #8
    4944:	ebffeeb0 	bl	40c <get_memory>
    4948:	e1a04000 	mov	r4, r0
    494c:	e3a00f4b 	mov	r0, #300	; 0x12c
    4950:	ebffeead 	bl	40c <get_memory>
    4954:	e1a03000 	mov	r3, r0
    4958:	e3a00903 	mov	r0, #49152	; 0xc000
    495c:	e58d3004 	str	r3, [sp, #4]
    4960:	ebffeea9 	bl	40c <get_memory>
    4964:	e5840000 	str	r0, [r4]
    4968:	e3a00801 	mov	r0, #65536	; 0x10000
    496c:	ebffeea6 	bl	40c <get_memory>
    4970:	e3a05001 	mov	r5, #1
    4974:	e3a06004 	mov	r6, #4
    4978:	e3a0e000 	mov	lr, #0
    497c:	e5840004 	str	r0, [r4, #4]
    4980:	e1a01005 	mov	r1, r5
    4984:	e59d0004 	ldr	r0, [sp, #4]
    4988:	e3a02002 	mov	r2, #2
    498c:	e5806000 	str	r6, [r0]
    4990:	e59d0004 	ldr	r0, [sp, #4]
    4994:	e5804004 	str	r4, [r0, #4]
    4998:	e59d0004 	ldr	r0, [sp, #4]
    499c:	e580e008 	str	lr, [r0, #8]
    49a0:	e59d0004 	ldr	r0, [sp, #4]
    49a4:	e580e00c 	str	lr, [r0, #12]
    49a8:	e59d0004 	ldr	r0, [sp, #4]
    49ac:	e580e0d8 	str	lr, [r0, #216]	; 0xd8
    49b0:	e59d0004 	ldr	r0, [sp, #4]
    49b4:	e580e0ec 	str	lr, [r0, #236]	; 0xec
    49b8:	e59d0004 	ldr	r0, [sp, #4]
    49bc:	e580e0dc 	str	lr, [r0, #220]	; 0xdc
    49c0:	e59d0004 	ldr	r0, [sp, #4]
    49c4:	e580e0f0 	str	lr, [r0, #240]	; 0xf0
    49c8:	e59d0004 	ldr	r0, [sp, #4]
    49cc:	e580e0e0 	str	lr, [r0, #224]	; 0xe0
    49d0:	e59d0004 	ldr	r0, [sp, #4]
    49d4:	e580e0f4 	str	lr, [r0, #244]	; 0xf4
    49d8:	e59d0004 	ldr	r0, [sp, #4]
    49dc:	e580e0e4 	str	lr, [r0, #228]	; 0xe4
    49e0:	e59d0004 	ldr	r0, [sp, #4]
    49e4:	e580e0f8 	str	lr, [r0, #248]	; 0xf8
    49e8:	e59d0004 	ldr	r0, [sp, #4]
    49ec:	e580e0e8 	str	lr, [r0, #232]	; 0xe8
    49f0:	e59d0004 	ldr	r0, [sp, #4]
    49f4:	e580e0fc 	str	lr, [r0, #252]	; 0xfc
    49f8:	e59d0004 	ldr	r0, [sp, #4]
    49fc:	e1a0c00e 	mov	ip, lr
    4a00:	e1a0300e 	mov	r3, lr
    4a04:	e5805100 	str	r5, [r0, #256]	; 0x100
    4a08:	e59fe06c 	ldr	lr, [pc, #108]	; 4a7c <add_grayscale+0x144>
    4a0c:	e5940000 	ldr	r0, [r4]
    4a10:	e7c03003 	strb	r3, [r0, r3]
    4a14:	e5940000 	ldr	r0, [r4]
    4a18:	e7c01001 	strb	r1, [r0, r1]
    4a1c:	e5940000 	ldr	r0, [r4]
    4a20:	e7c02002 	strb	r2, [r0, r2]
    4a24:	e2833003 	add	r3, r3, #3
    4a28:	e5940004 	ldr	r0, [r4, #4]
    4a2c:	e3530903 	cmp	r3, #49152	; 0xc000
    4a30:	e780e00c 	str	lr, [r0, ip]
    4a34:	e2811003 	add	r1, r1, #3
    4a38:	e2822003 	add	r2, r2, #3
    4a3c:	e28cc004 	add	ip, ip, #4
    4a40:	1afffff1 	bne	4a0c <add_grayscale+0xd4>
    4a44:	e3a02001 	mov	r2, #1
    4a48:	e59f1030 	ldr	r1, [pc, #48]	; 4a80 <add_grayscale+0x148>
    4a4c:	e59f3030 	ldr	r3, [pc, #48]	; 4a84 <add_grayscale+0x14c>
    4a50:	e5911000 	ldr	r1, [r1]
    4a54:	e5933000 	ldr	r3, [r3]
    4a58:	e5911010 	ldr	r1, [r1, #16]
    4a5c:	e5933010 	ldr	r3, [r3, #16]
    4a60:	e5911000 	ldr	r1, [r1]
    4a64:	e59d0004 	ldr	r0, [sp, #4]
    4a68:	e5810000 	str	r0, [r1]
    4a6c:	e5832000 	str	r2, [r3]
    4a70:	e28dd008 	add	sp, sp, #8
    4a74:	e8bd4070 	pop	{r4, r5, r6, lr}
    4a78:	e12fff1e 	bx	lr
    4a7c:	bf800000 	svclt	0x00800000
    4a80:	800016a0 	andhi	r1, r0, r0, lsr #13
    4a84:	800016a4 	andhi	r1, r0, r4, lsr #13

00004a88 <grayscale_check_output>:
    4a88:	e92d4ff8 	push	{r3, r4, r5, r6, r7, r8, r9, sl, fp, lr}
    4a8c:	e1a05000 	mov	r5, r0
    4a90:	e3a08000 	mov	r8, #0
    4a94:	e59f00fc 	ldr	r0, [pc, #252]	; 4b98 <grayscale_check_output+0x110>
    4a98:	eb000b60 	bl	7820 <puts>
    4a9c:	e8950030 	ldm	r5, {r4, r5}
    4aa0:	e28fb0d0 	add	fp, pc, #208	; 0xd0
    4aa4:	e89b0c00 	ldm	fp, {sl, fp}
    4aa8:	e2455004 	sub	r5, r5, #4
    4aac:	e2849903 	add	r9, r4, #49152	; 0xc000
    4ab0:	e5d40001 	ldrb	r0, [r4, #1]
    4ab4:	eb000359 	bl	5820 <__aeabi_i2d>
    4ab8:	e1a0200a 	mov	r2, sl
    4abc:	e1a0300b 	mov	r3, fp
    4ac0:	eb00038f 	bl	5904 <__aeabi_dmul>
    4ac4:	e1a06000 	mov	r6, r0
    4ac8:	e5d40000 	ldrb	r0, [r4]
    4acc:	e1a07001 	mov	r7, r1
    4ad0:	eb000352 	bl	5820 <__aeabi_i2d>
    4ad4:	e28f30a4 	add	r3, pc, #164	; 0xa4
    4ad8:	e893000c 	ldm	r3, {r2, r3}
    4adc:	eb000388 	bl	5904 <__aeabi_dmul>
    4ae0:	e1a02000 	mov	r2, r0
    4ae4:	e1a03001 	mov	r3, r1
    4ae8:	e1a00006 	mov	r0, r6
    4aec:	e1a01007 	mov	r1, r7
    4af0:	eb00027d 	bl	54ec <__adddf3>
    4af4:	e1a06000 	mov	r6, r0
    4af8:	e5d40002 	ldrb	r0, [r4, #2]
    4afc:	e1a07001 	mov	r7, r1
    4b00:	eb000346 	bl	5820 <__aeabi_i2d>
    4b04:	e28f307c 	add	r3, pc, #124	; 0x7c
    4b08:	e893000c 	ldm	r3, {r2, r3}
    4b0c:	eb00037c 	bl	5904 <__aeabi_dmul>
    4b10:	e1a02000 	mov	r2, r0
    4b14:	e1a03001 	mov	r3, r1
    4b18:	e1a00006 	mov	r0, r6
    4b1c:	e1a01007 	mov	r1, r7
    4b20:	eb000271 	bl	54ec <__adddf3>
    4b24:	eb0004ee 	bl	5ee4 <__aeabi_d2uiz>
    4b28:	e20000ff 	and	r0, r0, #255	; 0xff
    4b2c:	eb00059b 	bl	61a0 <__aeabi_ui2f>
    4b30:	e1a01000 	mov	r1, r0
    4b34:	e5b50004 	ldr	r0, [r5, #4]!
    4b38:	eb000528 	bl	5fe0 <__aeabi_fsub>
    4b3c:	e3c00102 	bic	r0, r0, #-2147483648	; 0x80000000
    4b40:	eb000340 	bl	5848 <__aeabi_f2d>
    4b44:	e28f3044 	add	r3, pc, #68	; 0x44
    4b48:	e893000c 	ldm	r3, {r2, r3}
    4b4c:	eb0004de 	bl	5ecc <__aeabi_dcmpgt>
    4b50:	e2844003 	add	r4, r4, #3
    4b54:	e3500000 	cmp	r0, #0
    4b58:	12888001 	addne	r8, r8, #1
    4b5c:	e1590004 	cmp	r9, r4
    4b60:	1affffd2 	bne	4ab0 <grayscale_check_output+0x28>
    4b64:	e1a01008 	mov	r1, r8
    4b68:	e59f002c 	ldr	r0, [pc, #44]	; 4b9c <grayscale_check_output+0x114>
    4b6c:	eb000ad6 	bl	76cc <printf>
    4b70:	e8bd4ff8 	pop	{r3, r4, r5, r6, r7, r8, r9, sl, fp, lr}
    4b74:	e12fff1e 	bx	lr
    4b78:	1c432ca5 	mcrrne	12, 10, r2, r3, cr5
    4b7c:	3fe6e2eb 	svccc	0x00e6e2eb
    4b80:	0f9096bc 	svceq	0x009096bc
    4b84:	3fcb367a 	svccc	0x00cb367a
    4b88:	fec56d5d 	vudot.u8	q11, <illegal reg q2.5>, d13[0]
    4b8c:	3fb27bb2 	svccc	0x00b27bb2
    4b90:	eb1c432d 	bl	71584c <__ascii_wctomb+0x704bb4>
    4b94:	3f1a36e2 	svccc	0x001a36e2
    4b98:	00006f00 	andeq	r6, r0, r0, lsl #30
    4b9c:	00006f1c 	andeq	r6, r0, ip, lsl pc

00004ba0 <add_harris_non_max>:
    4ba0:	e92d4ff0 	push	{r4, r5, r6, r7, r8, r9, sl, fp, lr}
    4ba4:	e3a00008 	mov	r0, #8
    4ba8:	e24dd05c 	sub	sp, sp, #92	; 0x5c
    4bac:	ebffee16 	bl	40c <get_memory>
    4bb0:	e1a0a000 	mov	sl, r0
    4bb4:	e3a00f4b 	mov	r0, #300	; 0x12c
    4bb8:	ebffee13 	bl	40c <get_memory>
    4bbc:	e1a03000 	mov	r3, r0
    4bc0:	e3a00801 	mov	r0, #65536	; 0x10000
    4bc4:	e58d3054 	str	r3, [sp, #84]	; 0x54
    4bc8:	ebffee0f 	bl	40c <get_memory>
    4bcc:	e58a0000 	str	r0, [sl]
    4bd0:	e3a00901 	mov	r0, #16384	; 0x4000
    4bd4:	ebffee0c 	bl	40c <get_memory>
    4bd8:	e58a0004 	str	r0, [sl, #4]
    4bdc:	e3a00901 	mov	r0, #16384	; 0x4000
    4be0:	ebffee09 	bl	40c <get_memory>
    4be4:	e3a05005 	mov	r5, #5
    4be8:	e3a03000 	mov	r3, #0
    4bec:	e59d4054 	ldr	r4, [sp, #84]	; 0x54
    4bf0:	e58d001c 	str	r0, [sp, #28]
    4bf4:	e59de054 	ldr	lr, [sp, #84]	; 0x54
    4bf8:	e59dc054 	ldr	ip, [sp, #84]	; 0x54
    4bfc:	e59d0054 	ldr	r0, [sp, #84]	; 0x54
    4c00:	e59d1054 	ldr	r1, [sp, #84]	; 0x54
    4c04:	e59d9054 	ldr	r9, [sp, #84]	; 0x54
    4c08:	e59d8054 	ldr	r8, [sp, #84]	; 0x54
    4c0c:	e59db054 	ldr	fp, [sp, #84]	; 0x54
    4c10:	e59d6054 	ldr	r6, [sp, #84]	; 0x54
    4c14:	e5845000 	str	r5, [r4]
    4c18:	e58ea004 	str	sl, [lr, #4]
    4c1c:	e59d5054 	ldr	r5, [sp, #84]	; 0x54
    4c20:	e58c3008 	str	r3, [ip, #8]
    4c24:	e580300c 	str	r3, [r0, #12]
    4c28:	e58130d8 	str	r3, [r1, #216]	; 0xd8
    4c2c:	e58930ec 	str	r3, [r9, #236]	; 0xec
    4c30:	e58830dc 	str	r3, [r8, #220]	; 0xdc
    4c34:	e58b30f0 	str	r3, [fp, #240]	; 0xf0
    4c38:	e58630e0 	str	r3, [r6, #224]	; 0xe0
    4c3c:	e59d601c 	ldr	r6, [sp, #28]
    4c40:	e58530f4 	str	r3, [r5, #244]	; 0xf4
    4c44:	e1a05006 	mov	r5, r6
    4c48:	e59d4054 	ldr	r4, [sp, #84]	; 0x54
    4c4c:	e59de054 	ldr	lr, [sp, #84]	; 0x54
    4c50:	e59dc054 	ldr	ip, [sp, #84]	; 0x54
    4c54:	e2868c01 	add	r8, r6, #256	; 0x100
    4c58:	e58430e4 	str	r3, [r4, #228]	; 0xe4
    4c5c:	e2866080 	add	r6, r6, #128	; 0x80
    4c60:	e2454001 	sub	r4, r5, #1
    4c64:	e59d0054 	ldr	r0, [sp, #84]	; 0x54
    4c68:	e3a02001 	mov	r2, #1
    4c6c:	e59d1054 	ldr	r1, [sp, #84]	; 0x54
    4c70:	e58d8038 	str	r8, [sp, #56]	; 0x38
    4c74:	e58d3034 	str	r3, [sp, #52]	; 0x34
    4c78:	e58d6048 	str	r6, [sp, #72]	; 0x48
    4c7c:	e58d400c 	str	r4, [sp, #12]
    4c80:	e58e30f8 	str	r3, [lr, #248]	; 0xf8
    4c84:	e58c30e8 	str	r3, [ip, #232]	; 0xe8
    4c88:	e3a0c002 	mov	ip, #2
    4c8c:	e3e0807f 	mvn	r8, #127	; 0x7f
    4c90:	e1a09003 	mov	r9, r3
    4c94:	e58030fc 	str	r3, [r0, #252]	; 0xfc
    4c98:	e58d204c 	str	r2, [sp, #76]	; 0x4c
    4c9c:	e58dc024 	str	ip, [sp, #36]	; 0x24
    4ca0:	e5812100 	str	r2, [r1, #256]	; 0x100
    4ca4:	e59d3038 	ldr	r3, [sp, #56]	; 0x38
    4ca8:	e59d2034 	ldr	r2, [sp, #52]	; 0x34
    4cac:	e2833001 	add	r3, r3, #1
    4cb0:	e0433002 	sub	r3, r3, r2
    4cb4:	e58d3044 	str	r3, [sp, #68]	; 0x44
    4cb8:	e59d3024 	ldr	r3, [sp, #36]	; 0x24
    4cbc:	e353007f 	cmp	r3, #127	; 0x7f
    4cc0:	c3a03000 	movgt	r3, #0
    4cc4:	d3a03001 	movle	r3, #1
    4cc8:	e58d3040 	str	r3, [sp, #64]	; 0x40
    4ccc:	e3a03002 	mov	r3, #2
    4cd0:	e58d3008 	str	r3, [sp, #8]
    4cd4:	e59d3048 	ldr	r3, [sp, #72]	; 0x48
    4cd8:	e0433002 	sub	r3, r3, r2
    4cdc:	e58d303c 	str	r3, [sp, #60]	; 0x3c
    4ce0:	e59d301c 	ldr	r3, [sp, #28]
    4ce4:	e2821c01 	add	r1, r2, #256	; 0x100
    4ce8:	e2811001 	add	r1, r1, #1
    4cec:	e2833001 	add	r3, r3, #1
    4cf0:	e58d1004 	str	r1, [sp, #4]
    4cf4:	e282b001 	add	fp, r2, #1
    4cf8:	e2826081 	add	r6, r2, #129	; 0x81
    4cfc:	e58d3020 	str	r3, [sp, #32]
    4d00:	ea000042 	b	4e10 <add_harris_non_max+0x270>
    4d04:	e59d0004 	ldr	r0, [sp, #4]
    4d08:	e59a1000 	ldr	r1, [sl]
    4d0c:	e1a02100 	lsl	r2, r0, #2
    4d10:	e2425004 	sub	r5, r2, #4
    4d14:	e3590006 	cmp	r9, #6
    4d18:	e0813005 	add	r3, r1, r5
    4d1c:	e2407001 	sub	r7, r0, #1
    4d20:	0a0000b0 	beq	4fe8 <add_harris_non_max+0x448>
    4d24:	e59d0004 	ldr	r0, [sp, #4]
    4d28:	e58d3028 	str	r3, [sp, #40]	; 0x28
    4d2c:	eb00051d 	bl	61a8 <__aeabi_i2f>
    4d30:	e3a01000 	mov	r1, #0
    4d34:	e59d3028 	ldr	r3, [sp, #40]	; 0x28
    4d38:	e59d2004 	ldr	r2, [sp, #4]
    4d3c:	e5830000 	str	r0, [r3]
    4d40:	e59d300c 	ldr	r3, [sp, #12]
    4d44:	e7c31002 	strb	r1, [r3, r2]
    4d48:	e59a3004 	ldr	r3, [sl, #4]
    4d4c:	e28d0034 	add	r0, sp, #52	; 0x34
    4d50:	e7c38007 	strb	r8, [r3, r7]
    4d54:	e8900009 	ldm	r0, {r0, r3}
    4d58:	e59a1000 	ldr	r1, [sl]
    4d5c:	e2855004 	add	r5, r5, #4
    4d60:	e3590007 	cmp	r9, #7
    4d64:	e0433000 	sub	r3, r3, r0
    4d68:	e0817005 	add	r7, r1, r5
    4d6c:	e083300b 	add	r3, r3, fp
    4d70:	158d202c 	strne	r2, [sp, #44]	; 0x2c
    4d74:	128b5c01 	addne	r5, fp, #256	; 0x100
    4d78:	1a0000ab 	bne	502c <add_harris_non_max+0x48c>
    4d7c:	e3a03447 	mov	r3, #1191182336	; 0x47000000
    4d80:	e7813005 	str	r3, [r1, r5]
    4d84:	e3e01000 	mvn	r1, #0
    4d88:	e59d301c 	ldr	r3, [sp, #28]
    4d8c:	e7c31002 	strb	r1, [r3, r2]
    4d90:	e59d1010 	ldr	r1, [sp, #16]
    4d94:	e59a3004 	ldr	r3, [sl, #4]
    4d98:	e3510000 	cmp	r1, #0
    4d9c:	e7c38002 	strb	r8, [r3, r2]
    4da0:	0a00000a 	beq	4dd0 <add_harris_non_max+0x230>
    4da4:	e59a3000 	ldr	r3, [sl]
    4da8:	e2820002 	add	r0, r2, #2
    4dac:	e0834004 	add	r4, r3, r4
    4db0:	eb0004fc 	bl	61a8 <__aeabi_i2f>
    4db4:	e3a02000 	mov	r2, #0
    4db8:	e59d3044 	ldr	r3, [sp, #68]	; 0x44
    4dbc:	e5840404 	str	r0, [r4, #1028]	; 0x404
    4dc0:	e7c3200b 	strb	r2, [r3, fp]
    4dc4:	e59a3004 	ldr	r3, [sl, #4]
    4dc8:	e083300b 	add	r3, r3, fp
    4dcc:	e5c38101 	strb	r8, [r3, #257]	; 0x101
    4dd0:	e2893001 	add	r3, r9, #1
    4dd4:	e59f94f4 	ldr	r9, [pc, #1268]	; 52d0 <add_harris_non_max+0x730>
    4dd8:	e0892993 	umull	r2, r9, r3, r9
    4ddc:	e59d2008 	ldr	r2, [sp, #8]
    4de0:	e2822003 	add	r2, r2, #3
    4de4:	e58d2008 	str	r2, [sp, #8]
    4de8:	e3520083 	cmp	r2, #131	; 0x83
    4dec:	e59d2004 	ldr	r2, [sp, #4]
    4df0:	e1a090a9 	lsr	r9, r9, #1
    4df4:	e0899189 	add	r9, r9, r9, lsl #3
    4df8:	e2822003 	add	r2, r2, #3
    4dfc:	e58d2004 	str	r2, [sp, #4]
    4e00:	e28bb003 	add	fp, fp, #3
    4e04:	e2866003 	add	r6, r6, #3
    4e08:	e0439009 	sub	r9, r3, r9
    4e0c:	0a000109 	beq	5238 <add_harris_non_max+0x698>
    4e10:	e1a0410b 	lsl	r4, fp, #2
    4e14:	e2443004 	sub	r3, r4, #4
    4e18:	e3590000 	cmp	r9, #0
    4e1c:	e58d3018 	str	r3, [sp, #24]
    4e20:	e24b5001 	sub	r5, fp, #1
    4e24:	e59a7000 	ldr	r7, [sl]
    4e28:	0a0000d3 	beq	517c <add_harris_non_max+0x5dc>
    4e2c:	e1a0000b 	mov	r0, fp
    4e30:	eb0004dc 	bl	61a8 <__aeabi_i2f>
    4e34:	e3a02000 	mov	r2, #0
    4e38:	e2443004 	sub	r3, r4, #4
    4e3c:	e7870003 	str	r0, [r7, r3]
    4e40:	e59d300c 	ldr	r3, [sp, #12]
    4e44:	e7c3200b 	strb	r2, [r3, fp]
    4e48:	e59a3004 	ldr	r3, [sl, #4]
    4e4c:	e7c38005 	strb	r8, [r3, r5]
    4e50:	e59a3000 	ldr	r3, [sl]
    4e54:	e3590001 	cmp	r9, #1
    4e58:	e0835004 	add	r5, r3, r4
    4e5c:	13a03000 	movne	r3, #0
    4e60:	e59d201c 	ldr	r2, [sp, #28]
    4e64:	158d3014 	strne	r3, [sp, #20]
    4e68:	e082700b 	add	r7, r2, fp
    4e6c:	0a0000d8 	beq	51d4 <add_harris_non_max+0x634>
    4e70:	e28b0001 	add	r0, fp, #1
    4e74:	eb0004cb 	bl	61a8 <__aeabi_i2f>
    4e78:	e3a03000 	mov	r3, #0
    4e7c:	e5850000 	str	r0, [r5]
    4e80:	e5c73000 	strb	r3, [r7]
    4e84:	e59d2008 	ldr	r2, [sp, #8]
    4e88:	e59a3004 	ldr	r3, [sl, #4]
    4e8c:	e352007f 	cmp	r2, #127	; 0x7f
    4e90:	e7c3800b 	strb	r8, [r3, fp]
    4e94:	c3a03000 	movgt	r3, #0
    4e98:	c58d3010 	strgt	r3, [sp, #16]
    4e9c:	ca000010 	bgt	4ee4 <add_harris_non_max+0x344>
    4ea0:	e3590002 	cmp	r9, #2
    4ea4:	e28b5001 	add	r5, fp, #1
    4ea8:	e2847004 	add	r7, r4, #4
    4eac:	e59a3000 	ldr	r3, [sl]
    4eb0:	0a0000bf 	beq	51b4 <add_harris_non_max+0x614>
    4eb4:	e28b0002 	add	r0, fp, #2
    4eb8:	e58d3010 	str	r3, [sp, #16]
    4ebc:	eb0004b9 	bl	61a8 <__aeabi_i2f>
    4ec0:	e3a02000 	mov	r2, #0
    4ec4:	e59d3010 	ldr	r3, [sp, #16]
    4ec8:	e7830007 	str	r0, [r3, r7]
    4ecc:	e59d3020 	ldr	r3, [sp, #32]
    4ed0:	e7c3200b 	strb	r2, [r3, fp]
    4ed4:	e59a3004 	ldr	r3, [sl, #4]
    4ed8:	e7c38005 	strb	r8, [r3, r5]
    4edc:	e3a03001 	mov	r3, #1
    4ee0:	e58d3010 	str	r3, [sp, #16]
    4ee4:	e1a05106 	lsl	r5, r6, #2
    4ee8:	e3590003 	cmp	r9, #3
    4eec:	e2453004 	sub	r3, r5, #4
    4ef0:	e2467001 	sub	r7, r6, #1
    4ef4:	e59a2000 	ldr	r2, [sl]
    4ef8:	0a000069 	beq	50a4 <add_harris_non_max+0x504>
    4efc:	e1a00006 	mov	r0, r6
    4f00:	e58d202c 	str	r2, [sp, #44]	; 0x2c
    4f04:	e58d3028 	str	r3, [sp, #40]	; 0x28
    4f08:	eb0004a6 	bl	61a8 <__aeabi_i2f>
    4f0c:	e59d3028 	ldr	r3, [sp, #40]	; 0x28
    4f10:	e59d202c 	ldr	r2, [sp, #44]	; 0x2c
    4f14:	e7820003 	str	r0, [r2, r3]
    4f18:	e3a02000 	mov	r2, #0
    4f1c:	e59d300c 	ldr	r3, [sp, #12]
    4f20:	e7c32006 	strb	r2, [r3, r6]
    4f24:	e59a3004 	ldr	r3, [sl, #4]
    4f28:	e7c38007 	strb	r8, [r3, r7]
    4f2c:	e59d203c 	ldr	r2, [sp, #60]	; 0x3c
    4f30:	e59a1000 	ldr	r1, [sl]
    4f34:	e3590004 	cmp	r9, #4
    4f38:	e0813005 	add	r3, r1, r5
    4f3c:	e082200b 	add	r2, r2, fp
    4f40:	1a0000ba 	bne	5230 <add_harris_non_max+0x690>
    4f44:	e3a03447 	mov	r3, #1191182336	; 0x47000000
    4f48:	e3e02000 	mvn	r2, #0
    4f4c:	e7813005 	str	r3, [r1, r5]
    4f50:	e59d301c 	ldr	r3, [sp, #28]
    4f54:	e7c32006 	strb	r2, [r3, r6]
    4f58:	e59d2010 	ldr	r2, [sp, #16]
    4f5c:	e59a3004 	ldr	r3, [sl, #4]
    4f60:	e3520000 	cmp	r2, #0
    4f64:	e7c38006 	strb	r8, [r3, r6]
    4f68:	11a03002 	movne	r3, r2
    4f6c:	12867001 	addne	r7, r6, #1
    4f70:	158d3014 	strne	r3, [sp, #20]
    4f74:	0a0000cf 	beq	52b8 <add_harris_non_max+0x718>
    4f78:	e3590005 	cmp	r9, #5
    4f7c:	e2855004 	add	r5, r5, #4
    4f80:	e59a3000 	ldr	r3, [sl]
    4f84:	0a000069 	beq	5130 <add_harris_non_max+0x590>
    4f88:	e2860002 	add	r0, r6, #2
    4f8c:	e58d3028 	str	r3, [sp, #40]	; 0x28
    4f90:	eb000484 	bl	61a8 <__aeabi_i2f>
    4f94:	e3a02000 	mov	r2, #0
    4f98:	e59d3028 	ldr	r3, [sp, #40]	; 0x28
    4f9c:	e7830005 	str	r0, [r3, r5]
    4fa0:	e59d3020 	ldr	r3, [sp, #32]
    4fa4:	e7c32006 	strb	r2, [r3, r6]
    4fa8:	e59a3004 	ldr	r3, [sl, #4]
    4fac:	e7c38007 	strb	r8, [r3, r7]
    4fb0:	e59d3024 	ldr	r3, [sp, #36]	; 0x24
    4fb4:	e353007f 	cmp	r3, #127	; 0x7f
    4fb8:	daffff51 	ble	4d04 <add_harris_non_max+0x164>
    4fbc:	e59d3014 	ldr	r3, [sp, #20]
    4fc0:	e3530000 	cmp	r3, #0
    4fc4:	1affff81 	bne	4dd0 <add_harris_non_max+0x230>
    4fc8:	e3a01447 	mov	r1, #1191182336	; 0x47000000
    4fcc:	e59a3000 	ldr	r3, [sl]
    4fd0:	e59d2018 	ldr	r2, [sp, #24]
    4fd4:	e7831002 	str	r1, [r3, r2]
    4fd8:	e3e02000 	mvn	r2, #0
    4fdc:	e59d300c 	ldr	r3, [sp, #12]
    4fe0:	e7c3200b 	strb	r2, [r3, fp]
    4fe4:	eaffff79 	b	4dd0 <add_harris_non_max+0x230>
    4fe8:	e3a03447 	mov	r3, #1191182336	; 0x47000000
    4fec:	e7813005 	str	r3, [r1, r5]
    4ff0:	e3e01000 	mvn	r1, #0
    4ff4:	e59d300c 	ldr	r3, [sp, #12]
    4ff8:	e7c31000 	strb	r1, [r3, r0]
    4ffc:	e59a3004 	ldr	r3, [sl, #4]
    5000:	e7c38007 	strb	r8, [r3, r7]
    5004:	e59a1000 	ldr	r1, [sl]
    5008:	e0817002 	add	r7, r1, r2
    500c:	e3a02001 	mov	r2, #1
    5010:	e28d0034 	add	r0, sp, #52	; 0x34
    5014:	e8900009 	ldm	r0, {r0, r3}
    5018:	e28b5c01 	add	r5, fp, #256	; 0x100
    501c:	e0433000 	sub	r3, r3, r0
    5020:	e58d502c 	str	r5, [sp, #44]	; 0x2c
    5024:	e58d2014 	str	r2, [sp, #20]
    5028:	e083300b 	add	r3, r3, fp
    502c:	e2855001 	add	r5, r5, #1
    5030:	e1a00005 	mov	r0, r5
    5034:	e58d3028 	str	r3, [sp, #40]	; 0x28
    5038:	eb00045a 	bl	61a8 <__aeabi_i2f>
    503c:	e3a02000 	mov	r2, #0
    5040:	e59d3028 	ldr	r3, [sp, #40]	; 0x28
    5044:	e5870000 	str	r0, [r7]
    5048:	e59d1010 	ldr	r1, [sp, #16]
    504c:	e5c32000 	strb	r2, [r3]
    5050:	e59d2040 	ldr	r2, [sp, #64]	; 0x40
    5054:	e59a3004 	ldr	r3, [sl, #4]
    5058:	e1120001 	tst	r2, r1
    505c:	e59d202c 	ldr	r2, [sp, #44]	; 0x2c
    5060:	e7c38002 	strb	r8, [r3, r2]
    5064:	0affffd4 	beq	4fbc <add_harris_non_max+0x41c>
    5068:	e2844b01 	add	r4, r4, #1024	; 0x400
    506c:	e3590008 	cmp	r9, #8
    5070:	e2844004 	add	r4, r4, #4
    5074:	e59a7000 	ldr	r7, [sl]
    5078:	0a00005b 	beq	51ec <add_harris_non_max+0x64c>
    507c:	e59d3004 	ldr	r3, [sp, #4]
    5080:	e2830002 	add	r0, r3, #2
    5084:	eb000447 	bl	61a8 <__aeabi_i2f>
    5088:	e3a02000 	mov	r2, #0
    508c:	e59d3044 	ldr	r3, [sp, #68]	; 0x44
    5090:	e7870004 	str	r0, [r7, r4]
    5094:	e7c3200b 	strb	r2, [r3, fp]
    5098:	e59a3004 	ldr	r3, [sl, #4]
    509c:	e7c38005 	strb	r8, [r3, r5]
    50a0:	eaffffc5 	b	4fbc <add_harris_non_max+0x41c>
    50a4:	e3a01447 	mov	r1, #1191182336	; 0x47000000
    50a8:	e7821003 	str	r1, [r2, r3]
    50ac:	e3e02000 	mvn	r2, #0
    50b0:	e3a00001 	mov	r0, #1
    50b4:	e59d300c 	ldr	r3, [sp, #12]
    50b8:	e7c32006 	strb	r2, [r3, r6]
    50bc:	e59a3004 	ldr	r3, [sl, #4]
    50c0:	e7c38007 	strb	r8, [r3, r7]
    50c4:	e59d203c 	ldr	r2, [sp, #60]	; 0x3c
    50c8:	e59a3000 	ldr	r3, [sl]
    50cc:	e58d0014 	str	r0, [sp, #20]
    50d0:	e28b1080 	add	r1, fp, #128	; 0x80
    50d4:	e0833005 	add	r3, r3, r5
    50d8:	e082200b 	add	r2, r2, fp
    50dc:	e2867001 	add	r7, r6, #1
    50e0:	e1a00007 	mov	r0, r7
    50e4:	e58d2030 	str	r2, [sp, #48]	; 0x30
    50e8:	e58d102c 	str	r1, [sp, #44]	; 0x2c
    50ec:	e58d3028 	str	r3, [sp, #40]	; 0x28
    50f0:	eb00042c 	bl	61a8 <__aeabi_i2f>
    50f4:	e59d3028 	ldr	r3, [sp, #40]	; 0x28
    50f8:	e5830000 	str	r0, [r3]
    50fc:	e3a03000 	mov	r3, #0
    5100:	e59d2030 	ldr	r2, [sp, #48]	; 0x30
    5104:	e5c23000 	strb	r3, [r2]
    5108:	e59d2010 	ldr	r2, [sp, #16]
    510c:	e59a3004 	ldr	r3, [sl, #4]
    5110:	e59d102c 	ldr	r1, [sp, #44]	; 0x2c
    5114:	e3520000 	cmp	r2, #0
    5118:	e7c38001 	strb	r8, [r3, r1]
    511c:	0affffa3 	beq	4fb0 <add_harris_non_max+0x410>
    5120:	e3590005 	cmp	r9, #5
    5124:	e2855004 	add	r5, r5, #4
    5128:	e59a3000 	ldr	r3, [sl]
    512c:	1affff95 	bne	4f88 <add_harris_non_max+0x3e8>
    5130:	e3a02447 	mov	r2, #1191182336	; 0x47000000
    5134:	e7832005 	str	r2, [r3, r5]
    5138:	e3e02000 	mvn	r2, #0
    513c:	e59d3020 	ldr	r3, [sp, #32]
    5140:	e7c32006 	strb	r2, [r3, r6]
    5144:	e59d2024 	ldr	r2, [sp, #36]	; 0x24
    5148:	e59a3004 	ldr	r3, [sl, #4]
    514c:	e352007f 	cmp	r2, #127	; 0x7f
    5150:	e7c38007 	strb	r8, [r3, r7]
    5154:	caffff1d 	bgt	4dd0 <add_harris_non_max+0x230>
    5158:	e3a03001 	mov	r3, #1
    515c:	e59d2004 	ldr	r2, [sp, #4]
    5160:	e58d3014 	str	r3, [sp, #20]
    5164:	e1a05102 	lsl	r5, r2, #2
    5168:	e59a3000 	ldr	r3, [sl]
    516c:	e2455004 	sub	r5, r5, #4
    5170:	e0833005 	add	r3, r3, r5
    5174:	e2427001 	sub	r7, r2, #1
    5178:	eafffee9 	b	4d24 <add_harris_non_max+0x184>
    517c:	e3a02447 	mov	r2, #1191182336	; 0x47000000
    5180:	e7872003 	str	r2, [r7, r3]
    5184:	e3e02000 	mvn	r2, #0
    5188:	e59d300c 	ldr	r3, [sp, #12]
    518c:	e7c3200b 	strb	r2, [r3, fp]
    5190:	e59a3004 	ldr	r3, [sl, #4]
    5194:	e7c38005 	strb	r8, [r3, r5]
    5198:	e59d301c 	ldr	r3, [sp, #28]
    519c:	e083700b 	add	r7, r3, fp
    51a0:	e3a03001 	mov	r3, #1
    51a4:	e59a5000 	ldr	r5, [sl]
    51a8:	e58d3014 	str	r3, [sp, #20]
    51ac:	e0855004 	add	r5, r5, r4
    51b0:	eaffff2e 	b	4e70 <add_harris_non_max+0x2d0>
    51b4:	e3a02447 	mov	r2, #1191182336	; 0x47000000
    51b8:	e7832007 	str	r2, [r3, r7]
    51bc:	e3a03001 	mov	r3, #1
    51c0:	e3e02000 	mvn	r2, #0
    51c4:	e58d3014 	str	r3, [sp, #20]
    51c8:	e59d3020 	ldr	r3, [sp, #32]
    51cc:	e7c3200b 	strb	r2, [r3, fp]
    51d0:	eaffff3f 	b	4ed4 <add_harris_non_max+0x334>
    51d4:	e3a01447 	mov	r1, #1191182336	; 0x47000000
    51d8:	e7831004 	str	r1, [r3, r4]
    51dc:	e3e03000 	mvn	r3, #0
    51e0:	e58d9014 	str	r9, [sp, #20]
    51e4:	e7c2300b 	strb	r3, [r2, fp]
    51e8:	eaffff25 	b	4e84 <add_harris_non_max+0x2e4>
    51ec:	e3a03447 	mov	r3, #1191182336	; 0x47000000
    51f0:	e3e01000 	mvn	r1, #0
    51f4:	e7873004 	str	r3, [r7, r4]
    51f8:	e59d2004 	ldr	r2, [sp, #4]
    51fc:	e59d3020 	ldr	r3, [sp, #32]
    5200:	e7c31002 	strb	r1, [r3, r2]
    5204:	e2822003 	add	r2, r2, #3
    5208:	e58d2004 	str	r2, [sp, #4]
    520c:	e59d2008 	ldr	r2, [sp, #8]
    5210:	e59a3004 	ldr	r3, [sl, #4]
    5214:	e2822003 	add	r2, r2, #3
    5218:	e58d2008 	str	r2, [sp, #8]
    521c:	e28bb003 	add	fp, fp, #3
    5220:	e2866003 	add	r6, r6, #3
    5224:	e7c38005 	strb	r8, [r3, r5]
    5228:	e3a09000 	mov	r9, #0
    522c:	eafffef7 	b	4e10 <add_harris_non_max+0x270>
    5230:	e1a01006 	mov	r1, r6
    5234:	eaffffa8 	b	50dc <add_harris_non_max+0x53c>
    5238:	e59d304c 	ldr	r3, [sp, #76]	; 0x4c
    523c:	e2833003 	add	r3, r3, #3
    5240:	e58d304c 	str	r3, [sp, #76]	; 0x4c
    5244:	e3530082 	cmp	r3, #130	; 0x82
    5248:	e59d3024 	ldr	r3, [sp, #36]	; 0x24
    524c:	e2833003 	add	r3, r3, #3
    5250:	e58d3024 	str	r3, [sp, #36]	; 0x24
    5254:	e59d3034 	ldr	r3, [sp, #52]	; 0x34
    5258:	e2833d06 	add	r3, r3, #384	; 0x180
    525c:	e58d3034 	str	r3, [sp, #52]	; 0x34
    5260:	e59d3038 	ldr	r3, [sp, #56]	; 0x38
    5264:	e2833d06 	add	r3, r3, #384	; 0x180
    5268:	e58d3038 	str	r3, [sp, #56]	; 0x38
    526c:	e59d3048 	ldr	r3, [sp, #72]	; 0x48
    5270:	e2833d06 	add	r3, r3, #384	; 0x180
    5274:	e58d3048 	str	r3, [sp, #72]	; 0x48
    5278:	1afffe89 	bne	4ca4 <add_harris_non_max+0x104>
    527c:	e3a02001 	mov	r2, #1
    5280:	e59f104c 	ldr	r1, [pc, #76]	; 52d4 <add_harris_non_max+0x734>
    5284:	e5911000 	ldr	r1, [r1]
    5288:	e59f3048 	ldr	r3, [pc, #72]	; 52d8 <add_harris_non_max+0x738>
    528c:	e5911014 	ldr	r1, [r1, #20]
    5290:	e5933000 	ldr	r3, [r3]
    5294:	e59d0054 	ldr	r0, [sp, #84]	; 0x54
    5298:	e5911000 	ldr	r1, [r1]
    529c:	e5933014 	ldr	r3, [r3, #20]
    52a0:	e5810000 	str	r0, [r1]
    52a4:	e59d001c 	ldr	r0, [sp, #28]
    52a8:	e5832000 	str	r2, [r3]
    52ac:	e28dd05c 	add	sp, sp, #92	; 0x5c
    52b0:	e8bd4ff0 	pop	{r4, r5, r6, r7, r8, r9, sl, fp, lr}
    52b4:	e12fff1e 	bx	lr
    52b8:	e59d3024 	ldr	r3, [sp, #36]	; 0x24
    52bc:	e353007f 	cmp	r3, #127	; 0x7f
    52c0:	cafffec2 	bgt	4dd0 <add_harris_non_max+0x230>
    52c4:	e3a03001 	mov	r3, #1
    52c8:	e58d3014 	str	r3, [sp, #20]
    52cc:	eafffe8c 	b	4d04 <add_harris_non_max+0x164>
    52d0:	38e38e39 	stmiacc	r3!, {r0, r3, r4, r5, r9, sl, fp, pc}^
    52d4:	800016a0 	andhi	r1, r0, r0, lsr #13
    52d8:	800016a4 	andhi	r1, r0, r4, lsr #13

000052dc <harris_non_max_check_output>:
    52dc:	e92d4070 	push	{r4, r5, r6, lr}
    52e0:	e1a05000 	mov	r5, r0
    52e4:	e1a04001 	mov	r4, r1
    52e8:	e59f0058 	ldr	r0, [pc, #88]	; 5348 <harris_non_max_check_output+0x6c>
    52ec:	eb00094b 	bl	7820 <puts>
    52f0:	e3a01000 	mov	r1, #0
    52f4:	e595e004 	ldr	lr, [r5, #4]
    52f8:	e2444080 	sub	r4, r4, #128	; 0x80
    52fc:	e28e5901 	add	r5, lr, #16384	; 0x4000
    5300:	e044400e 	sub	r4, r4, lr
    5304:	e285507f 	add	r5, r5, #127	; 0x7f
    5308:	e28ee07f 	add	lr, lr, #127	; 0x7f
    530c:	e24e3080 	sub	r3, lr, #128	; 0x80
    5310:	e084200e 	add	r2, r4, lr
    5314:	e5f3c001 	ldrb	ip, [r3, #1]!
    5318:	e5f20001 	ldrb	r0, [r2, #1]!
    531c:	e15c0000 	cmp	ip, r0
    5320:	12811001 	addne	r1, r1, #1
    5324:	e15e0003 	cmp	lr, r3
    5328:	1afffff9 	bne	5314 <harris_non_max_check_output+0x38>
    532c:	e28ee080 	add	lr, lr, #128	; 0x80
    5330:	e155000e 	cmp	r5, lr
    5334:	1afffff4 	bne	530c <harris_non_max_check_output+0x30>
    5338:	e59f000c 	ldr	r0, [pc, #12]	; 534c <harris_non_max_check_output+0x70>
    533c:	eb0008e2 	bl	76cc <printf>
    5340:	e8bd4070 	pop	{r4, r5, r6, lr}
    5344:	e12fff1e 	bx	lr
    5348:	00006f40 	andeq	r6, r0, r0, asr #30
    534c:	00006f58 	andeq	r6, r0, r8, asr pc

00005350 <add_isp>:
    5350:	e92d4070 	push	{r4, r5, r6, lr}
    5354:	e3a00008 	mov	r0, #8
    5358:	e24dd008 	sub	sp, sp, #8
    535c:	ebffec2a 	bl	40c <get_memory>
    5360:	e1a04000 	mov	r4, r0
    5364:	e3a00f4b 	mov	r0, #300	; 0x12c
    5368:	ebffec27 	bl	40c <get_memory>
    536c:	e1a03000 	mov	r3, r0
    5370:	e59f60e0 	ldr	r6, [pc, #224]	; 5458 <add_isp+0x108>
    5374:	e1a00006 	mov	r0, r6
    5378:	e58d3004 	str	r3, [sp, #4]
    537c:	ebffec22 	bl	40c <get_memory>
    5380:	e5840000 	str	r0, [r4]
    5384:	e3a00903 	mov	r0, #49152	; 0xc000
    5388:	ebffec1f 	bl	40c <get_memory>
    538c:	e3a0c006 	mov	ip, #6
    5390:	e3a03000 	mov	r3, #0
    5394:	e3a05001 	mov	r5, #1
    5398:	e59d1004 	ldr	r1, [sp, #4]
    539c:	e5840004 	str	r0, [r4, #4]
    53a0:	e581c000 	str	ip, [r1]
    53a4:	e59d1004 	ldr	r1, [sp, #4]
    53a8:	e59dc004 	ldr	ip, [sp, #4]
    53ac:	e5940000 	ldr	r0, [r4]
    53b0:	e5814004 	str	r4, [r1, #4]
    53b4:	e59d1004 	ldr	r1, [sp, #4]
    53b8:	e58c3008 	str	r3, [ip, #8]
    53bc:	e59dc004 	ldr	ip, [sp, #4]
    53c0:	e581300c 	str	r3, [r1, #12]
    53c4:	e59d1004 	ldr	r1, [sp, #4]
    53c8:	e58c30d8 	str	r3, [ip, #216]	; 0xd8
    53cc:	e59dc004 	ldr	ip, [sp, #4]
    53d0:	e58130ec 	str	r3, [r1, #236]	; 0xec
    53d4:	e59d1004 	ldr	r1, [sp, #4]
    53d8:	e58c30dc 	str	r3, [ip, #220]	; 0xdc
    53dc:	e59dc004 	ldr	ip, [sp, #4]
    53e0:	e58130f0 	str	r3, [r1, #240]	; 0xf0
    53e4:	e59d1004 	ldr	r1, [sp, #4]
    53e8:	e58c30e0 	str	r3, [ip, #224]	; 0xe0
    53ec:	e59dc004 	ldr	ip, [sp, #4]
    53f0:	e58130f4 	str	r3, [r1, #244]	; 0xf4
    53f4:	e59d1004 	ldr	r1, [sp, #4]
    53f8:	e58c30e4 	str	r3, [ip, #228]	; 0xe4
    53fc:	e59dc004 	ldr	ip, [sp, #4]
    5400:	e58130f8 	str	r3, [r1, #248]	; 0xf8
    5404:	e59d1004 	ldr	r1, [sp, #4]
    5408:	e58c30e8 	str	r3, [ip, #232]	; 0xe8
    540c:	e59dc004 	ldr	ip, [sp, #4]
    5410:	e58130fc 	str	r3, [r1, #252]	; 0xfc
    5414:	e1a02006 	mov	r2, r6
    5418:	e3a01080 	mov	r1, #128	; 0x80
    541c:	e58c5100 	str	r5, [ip, #256]	; 0x100
    5420:	eb000856 	bl	7580 <memset>
    5424:	e59f2030 	ldr	r2, [pc, #48]	; 545c <add_isp+0x10c>
    5428:	e59f3030 	ldr	r3, [pc, #48]	; 5460 <add_isp+0x110>
    542c:	e5922000 	ldr	r2, [r2]
    5430:	e5933000 	ldr	r3, [r3]
    5434:	e5922018 	ldr	r2, [r2, #24]
    5438:	e5933018 	ldr	r3, [r3, #24]
    543c:	e5922000 	ldr	r2, [r2]
    5440:	e59d1004 	ldr	r1, [sp, #4]
    5444:	e5821000 	str	r1, [r2]
    5448:	e5835000 	str	r5, [r3]
    544c:	e28dd008 	add	sp, sp, #8
    5450:	e8bd4070 	pop	{r4, r5, r6, lr}
    5454:	e12fff1e 	bx	lr
    5458:	00004204 	andeq	r4, r0, r4, lsl #4
    545c:	800016a0 	andhi	r1, r0, r0, lsr #13
    5460:	800016a4 	andhi	r1, r0, r4, lsr #13

00005464 <isp_check_output>:
    5464:	e92d4010 	push	{r4, lr}
    5468:	e1a04000 	mov	r4, r0
    546c:	e59f0064 	ldr	r0, [pc, #100]	; 54d8 <isp_check_output+0x74>
    5470:	eb0008ea 	bl	7820 <puts>
    5474:	e3a01000 	mov	r1, #0
    5478:	e5940004 	ldr	r0, [r4, #4]
    547c:	e280ccc1 	add	ip, r0, #49408	; 0xc100
    5480:	e28cc080 	add	ip, ip, #128	; 0x80
    5484:	e2800d06 	add	r0, r0, #384	; 0x180
    5488:	e2403d06 	sub	r3, r0, #384	; 0x180
    548c:	e5d32000 	ldrb	r2, [r3]
    5490:	e35200b4 	cmp	r2, #180	; 0xb4
    5494:	e5d32001 	ldrb	r2, [r3, #1]
    5498:	12811001 	addne	r1, r1, #1
    549c:	e3520000 	cmp	r2, #0
    54a0:	e5d32002 	ldrb	r2, [r3, #2]
    54a4:	12811001 	addne	r1, r1, #1
    54a8:	e2833003 	add	r3, r3, #3
    54ac:	e35200b4 	cmp	r2, #180	; 0xb4
    54b0:	12811001 	addne	r1, r1, #1
    54b4:	e1500003 	cmp	r0, r3
    54b8:	1afffff3 	bne	548c <isp_check_output+0x28>
    54bc:	e2800d06 	add	r0, r0, #384	; 0x180
    54c0:	e15c0000 	cmp	ip, r0
    54c4:	1affffef 	bne	5488 <isp_check_output+0x24>
    54c8:	e59f000c 	ldr	r0, [pc, #12]	; 54dc <isp_check_output+0x78>
    54cc:	eb00087e 	bl	76cc <printf>
    54d0:	e8bd4010 	pop	{r4, lr}
    54d4:	e12fff1e 	bx	lr
    54d8:	00006f84 	andeq	r6, r0, r4, lsl #31
    54dc:	00006f9c 	muleq	r0, ip, pc	; <UNPREDICTABLE>

000054e0 <__aeabi_drsub>:
    54e0:	e2211102 	eor	r1, r1, #-2147483648	; 0x80000000
    54e4:	ea000000 	b	54ec <__adddf3>

000054e8 <__aeabi_dsub>:
    54e8:	e2233102 	eor	r3, r3, #-2147483648	; 0x80000000

000054ec <__adddf3>:
    54ec:	e92d4030 	push	{r4, r5, lr}
    54f0:	e1a04081 	lsl	r4, r1, #1
    54f4:	e1a05083 	lsl	r5, r3, #1
    54f8:	e1340005 	teq	r4, r5
    54fc:	01300002 	teqeq	r0, r2
    5500:	1194c000 	orrsne	ip, r4, r0
    5504:	1195c002 	orrsne	ip, r5, r2
    5508:	11f0cac4 	mvnsne	ip, r4, asr #21
    550c:	11f0cac5 	mvnsne	ip, r5, asr #21
    5510:	0a00008c 	beq	5748 <__adddf3+0x25c>
    5514:	e1a04aa4 	lsr	r4, r4, #21
    5518:	e0745aa5 	rsbs	r5, r4, r5, lsr #21
    551c:	b2655000 	rsblt	r5, r5, #0
    5520:	da000006 	ble	5540 <__adddf3+0x54>
    5524:	e0844005 	add	r4, r4, r5
    5528:	e0202002 	eor	r2, r0, r2
    552c:	e0213003 	eor	r3, r1, r3
    5530:	e0220000 	eor	r0, r2, r0
    5534:	e0231001 	eor	r1, r3, r1
    5538:	e0202002 	eor	r2, r0, r2
    553c:	e0213003 	eor	r3, r1, r3
    5540:	e3550036 	cmp	r5, #54	; 0x36
    5544:	88bd4030 	pophi	{r4, r5, lr}
    5548:	812fff1e 	bxhi	lr
    554c:	e3110102 	tst	r1, #-2147483648	; 0x80000000
    5550:	e1a01601 	lsl	r1, r1, #12
    5554:	e3a0c601 	mov	ip, #1048576	; 0x100000
    5558:	e18c1621 	orr	r1, ip, r1, lsr #12
    555c:	0a000001 	beq	5568 <__adddf3+0x7c>
    5560:	e2700000 	rsbs	r0, r0, #0
    5564:	e2e11000 	rsc	r1, r1, #0
    5568:	e3130102 	tst	r3, #-2147483648	; 0x80000000
    556c:	e1a03603 	lsl	r3, r3, #12
    5570:	e18c3623 	orr	r3, ip, r3, lsr #12
    5574:	0a000001 	beq	5580 <__adddf3+0x94>
    5578:	e2722000 	rsbs	r2, r2, #0
    557c:	e2e33000 	rsc	r3, r3, #0
    5580:	e1340005 	teq	r4, r5
    5584:	0a000069 	beq	5730 <__adddf3+0x244>
    5588:	e2444001 	sub	r4, r4, #1
    558c:	e275e020 	rsbs	lr, r5, #32
    5590:	ba000005 	blt	55ac <__adddf3+0xc0>
    5594:	e1a0ce12 	lsl	ip, r2, lr
    5598:	e0900532 	adds	r0, r0, r2, lsr r5
    559c:	e2a11000 	adc	r1, r1, #0
    55a0:	e0900e13 	adds	r0, r0, r3, lsl lr
    55a4:	e0b11553 	adcs	r1, r1, r3, asr r5
    55a8:	ea000006 	b	55c8 <__adddf3+0xdc>
    55ac:	e2455020 	sub	r5, r5, #32
    55b0:	e28ee020 	add	lr, lr, #32
    55b4:	e3520001 	cmp	r2, #1
    55b8:	e1a0ce13 	lsl	ip, r3, lr
    55bc:	238cc002 	orrcs	ip, ip, #2
    55c0:	e0900553 	adds	r0, r0, r3, asr r5
    55c4:	e0b11fc3 	adcs	r1, r1, r3, asr #31
    55c8:	e2015102 	and	r5, r1, #-2147483648	; 0x80000000
    55cc:	5a000002 	bpl	55dc <__adddf3+0xf0>
    55d0:	e27cc000 	rsbs	ip, ip, #0
    55d4:	e2f00000 	rscs	r0, r0, #0
    55d8:	e2e11000 	rsc	r1, r1, #0
    55dc:	e3510601 	cmp	r1, #1048576	; 0x100000
    55e0:	3a00000f 	bcc	5624 <__adddf3+0x138>
    55e4:	e3510602 	cmp	r1, #2097152	; 0x200000
    55e8:	3a000006 	bcc	5608 <__adddf3+0x11c>
    55ec:	e1b010a1 	lsrs	r1, r1, #1
    55f0:	e1b00060 	rrxs	r0, r0
    55f4:	e1a0c06c 	rrx	ip, ip
    55f8:	e2844001 	add	r4, r4, #1
    55fc:	e1a02a84 	lsl	r2, r4, #21
    5600:	e3720501 	cmn	r2, #4194304	; 0x400000
    5604:	2a00006b 	bcs	57b8 <__adddf3+0x2cc>
    5608:	e35c0102 	cmp	ip, #-2147483648	; 0x80000000
    560c:	01b0c0a0 	lsrseq	ip, r0, #1
    5610:	e2b00000 	adcs	r0, r0, #0
    5614:	e0a11a04 	adc	r1, r1, r4, lsl #20
    5618:	e1811005 	orr	r1, r1, r5
    561c:	e8bd4030 	pop	{r4, r5, lr}
    5620:	e12fff1e 	bx	lr
    5624:	e1b0c08c 	lsls	ip, ip, #1
    5628:	e0b00000 	adcs	r0, r0, r0
    562c:	e0a11001 	adc	r1, r1, r1
    5630:	e3110601 	tst	r1, #1048576	; 0x100000
    5634:	e2444001 	sub	r4, r4, #1
    5638:	1afffff2 	bne	5608 <__adddf3+0x11c>
    563c:	e3310000 	teq	r1, #0
    5640:	13a03014 	movne	r3, #20
    5644:	03a03034 	moveq	r3, #52	; 0x34
    5648:	01a01000 	moveq	r1, r0
    564c:	03a00000 	moveq	r0, #0
    5650:	e1a02001 	mov	r2, r1
    5654:	e3520801 	cmp	r2, #65536	; 0x10000
    5658:	21a02822 	lsrcs	r2, r2, #16
    565c:	22433010 	subcs	r3, r3, #16
    5660:	e3520c01 	cmp	r2, #256	; 0x100
    5664:	21a02422 	lsrcs	r2, r2, #8
    5668:	22433008 	subcs	r3, r3, #8
    566c:	e3520010 	cmp	r2, #16
    5670:	21a02222 	lsrcs	r2, r2, #4
    5674:	22433004 	subcs	r3, r3, #4
    5678:	e3520004 	cmp	r2, #4
    567c:	22433002 	subcs	r3, r3, #2
    5680:	304330a2 	subcc	r3, r3, r2, lsr #1
    5684:	e04331a2 	sub	r3, r3, r2, lsr #3
    5688:	e2532020 	subs	r2, r3, #32
    568c:	aa000007 	bge	56b0 <__adddf3+0x1c4>
    5690:	e292200c 	adds	r2, r2, #12
    5694:	da000004 	ble	56ac <__adddf3+0x1c0>
    5698:	e282c014 	add	ip, r2, #20
    569c:	e262200c 	rsb	r2, r2, #12
    56a0:	e1a00c11 	lsl	r0, r1, ip
    56a4:	e1a01231 	lsr	r1, r1, r2
    56a8:	ea000004 	b	56c0 <__adddf3+0x1d4>
    56ac:	e2822014 	add	r2, r2, #20
    56b0:	d262c020 	rsble	ip, r2, #32
    56b4:	e1a01211 	lsl	r1, r1, r2
    56b8:	d1811c30 	orrle	r1, r1, r0, lsr ip
    56bc:	d1a00210 	lslle	r0, r0, r2
    56c0:	e0544003 	subs	r4, r4, r3
    56c4:	a0811a04 	addge	r1, r1, r4, lsl #20
    56c8:	a1811005 	orrge	r1, r1, r5
    56cc:	a8bd4030 	popge	{r4, r5, lr}
    56d0:	a12fff1e 	bxge	lr
    56d4:	e1e04004 	mvn	r4, r4
    56d8:	e254401f 	subs	r4, r4, #31
    56dc:	aa00000f 	bge	5720 <__adddf3+0x234>
    56e0:	e294400c 	adds	r4, r4, #12
    56e4:	ca000006 	bgt	5704 <__adddf3+0x218>
    56e8:	e2844014 	add	r4, r4, #20
    56ec:	e2642020 	rsb	r2, r4, #32
    56f0:	e1a00430 	lsr	r0, r0, r4
    56f4:	e1800211 	orr	r0, r0, r1, lsl r2
    56f8:	e1851431 	orr	r1, r5, r1, lsr r4
    56fc:	e8bd4030 	pop	{r4, r5, lr}
    5700:	e12fff1e 	bx	lr
    5704:	e264400c 	rsb	r4, r4, #12
    5708:	e2642020 	rsb	r2, r4, #32
    570c:	e1a00230 	lsr	r0, r0, r2
    5710:	e1800411 	orr	r0, r0, r1, lsl r4
    5714:	e1a01005 	mov	r1, r5
    5718:	e8bd4030 	pop	{r4, r5, lr}
    571c:	e12fff1e 	bx	lr
    5720:	e1a00431 	lsr	r0, r1, r4
    5724:	e1a01005 	mov	r1, r5
    5728:	e8bd4030 	pop	{r4, r5, lr}
    572c:	e12fff1e 	bx	lr
    5730:	e3340000 	teq	r4, #0
    5734:	e2233601 	eor	r3, r3, #1048576	; 0x100000
    5738:	02211601 	eoreq	r1, r1, #1048576	; 0x100000
    573c:	02844001 	addeq	r4, r4, #1
    5740:	12455001 	subne	r5, r5, #1
    5744:	eaffff8f 	b	5588 <__adddf3+0x9c>
    5748:	e1f0cac4 	mvns	ip, r4, asr #21
    574c:	11f0cac5 	mvnsne	ip, r5, asr #21
    5750:	0a00001d 	beq	57cc <__adddf3+0x2e0>
    5754:	e1340005 	teq	r4, r5
    5758:	01300002 	teqeq	r0, r2
    575c:	0a000004 	beq	5774 <__adddf3+0x288>
    5760:	e194c000 	orrs	ip, r4, r0
    5764:	01a01003 	moveq	r1, r3
    5768:	01a00002 	moveq	r0, r2
    576c:	e8bd4030 	pop	{r4, r5, lr}
    5770:	e12fff1e 	bx	lr
    5774:	e1310003 	teq	r1, r3
    5778:	13a01000 	movne	r1, #0
    577c:	13a00000 	movne	r0, #0
    5780:	18bd4030 	popne	{r4, r5, lr}
    5784:	112fff1e 	bxne	lr
    5788:	e1b0caa4 	lsrs	ip, r4, #21
    578c:	1a000004 	bne	57a4 <__adddf3+0x2b8>
    5790:	e1b00080 	lsls	r0, r0, #1
    5794:	e0b11001 	adcs	r1, r1, r1
    5798:	23811102 	orrcs	r1, r1, #-2147483648	; 0x80000000
    579c:	e8bd4030 	pop	{r4, r5, lr}
    57a0:	e12fff1e 	bx	lr
    57a4:	e2944501 	adds	r4, r4, #4194304	; 0x400000
    57a8:	32811601 	addcc	r1, r1, #1048576	; 0x100000
    57ac:	38bd4030 	popcc	{r4, r5, lr}
    57b0:	312fff1e 	bxcc	lr
    57b4:	e2015102 	and	r5, r1, #-2147483648	; 0x80000000
    57b8:	e385147f 	orr	r1, r5, #2130706432	; 0x7f000000
    57bc:	e381160f 	orr	r1, r1, #15728640	; 0xf00000
    57c0:	e3a00000 	mov	r0, #0
    57c4:	e8bd4030 	pop	{r4, r5, lr}
    57c8:	e12fff1e 	bx	lr
    57cc:	e1f0cac4 	mvns	ip, r4, asr #21
    57d0:	11a01003 	movne	r1, r3
    57d4:	11a00002 	movne	r0, r2
    57d8:	01f0cac5 	mvnseq	ip, r5, asr #21
    57dc:	11a03001 	movne	r3, r1
    57e0:	11a02000 	movne	r2, r0
    57e4:	e1904601 	orrs	r4, r0, r1, lsl #12
    57e8:	01925603 	orrseq	r5, r2, r3, lsl #12
    57ec:	01310003 	teqeq	r1, r3
    57f0:	13811702 	orrne	r1, r1, #524288	; 0x80000
    57f4:	e8bd4030 	pop	{r4, r5, lr}
    57f8:	e12fff1e 	bx	lr

000057fc <__aeabi_ui2d>:
    57fc:	e3300000 	teq	r0, #0
    5800:	03a01000 	moveq	r1, #0
    5804:	012fff1e 	bxeq	lr
    5808:	e92d4030 	push	{r4, r5, lr}
    580c:	e3a04b01 	mov	r4, #1024	; 0x400
    5810:	e2844032 	add	r4, r4, #50	; 0x32
    5814:	e3a05000 	mov	r5, #0
    5818:	e3a01000 	mov	r1, #0
    581c:	eaffff86 	b	563c <__adddf3+0x150>

00005820 <__aeabi_i2d>:
    5820:	e3300000 	teq	r0, #0
    5824:	03a01000 	moveq	r1, #0
    5828:	012fff1e 	bxeq	lr
    582c:	e92d4030 	push	{r4, r5, lr}
    5830:	e3a04b01 	mov	r4, #1024	; 0x400
    5834:	e2844032 	add	r4, r4, #50	; 0x32
    5838:	e2105102 	ands	r5, r0, #-2147483648	; 0x80000000
    583c:	42600000 	rsbmi	r0, r0, #0
    5840:	e3a01000 	mov	r1, #0
    5844:	eaffff7c 	b	563c <__adddf3+0x150>

00005848 <__aeabi_f2d>:
    5848:	e1b02080 	lsls	r2, r0, #1
    584c:	e1a011c2 	asr	r1, r2, #3
    5850:	e1a01061 	rrx	r1, r1
    5854:	e1a00e02 	lsl	r0, r2, #28
    5858:	121234ff 	andsne	r3, r2, #-16777216	; 0xff000000
    585c:	133304ff 	teqne	r3, #-16777216	; 0xff000000
    5860:	1221130e 	eorne	r1, r1, #939524096	; 0x38000000
    5864:	112fff1e 	bxne	lr
    5868:	e3d224ff 	bics	r2, r2, #-16777216	; 0xff000000
    586c:	012fff1e 	bxeq	lr
    5870:	e33304ff 	teq	r3, #-16777216	; 0xff000000
    5874:	03811702 	orreq	r1, r1, #524288	; 0x80000
    5878:	012fff1e 	bxeq	lr
    587c:	e92d4030 	push	{r4, r5, lr}
    5880:	e3a04d0e 	mov	r4, #896	; 0x380
    5884:	e2015102 	and	r5, r1, #-2147483648	; 0x80000000
    5888:	e3c11102 	bic	r1, r1, #-2147483648	; 0x80000000
    588c:	eaffff6a 	b	563c <__adddf3+0x150>

00005890 <__aeabi_ul2d>:
    5890:	e1902001 	orrs	r2, r0, r1
    5894:	012fff1e 	bxeq	lr
    5898:	e92d4030 	push	{r4, r5, lr}
    589c:	e3a05000 	mov	r5, #0
    58a0:	ea000006 	b	58c0 <__aeabi_l2d+0x1c>

000058a4 <__aeabi_l2d>:
    58a4:	e1902001 	orrs	r2, r0, r1
    58a8:	012fff1e 	bxeq	lr
    58ac:	e92d4030 	push	{r4, r5, lr}
    58b0:	e2115102 	ands	r5, r1, #-2147483648	; 0x80000000
    58b4:	5a000001 	bpl	58c0 <__aeabi_l2d+0x1c>
    58b8:	e2700000 	rsbs	r0, r0, #0
    58bc:	e2e11000 	rsc	r1, r1, #0
    58c0:	e3a04b01 	mov	r4, #1024	; 0x400
    58c4:	e2844032 	add	r4, r4, #50	; 0x32
    58c8:	e1b0cb21 	lsrs	ip, r1, #22
    58cc:	0affff42 	beq	55dc <__adddf3+0xf0>
    58d0:	e3a02003 	mov	r2, #3
    58d4:	e1b0c1ac 	lsrs	ip, ip, #3
    58d8:	12822003 	addne	r2, r2, #3
    58dc:	e1b0c1ac 	lsrs	ip, ip, #3
    58e0:	12822003 	addne	r2, r2, #3
    58e4:	e08221ac 	add	r2, r2, ip, lsr #3
    58e8:	e2623020 	rsb	r3, r2, #32
    58ec:	e1a0c310 	lsl	ip, r0, r3
    58f0:	e1a00230 	lsr	r0, r0, r2
    58f4:	e1800311 	orr	r0, r0, r1, lsl r3
    58f8:	e1a01231 	lsr	r1, r1, r2
    58fc:	e0844002 	add	r4, r4, r2
    5900:	eaffff35 	b	55dc <__adddf3+0xf0>

00005904 <__aeabi_dmul>:
    5904:	e92d4070 	push	{r4, r5, r6, lr}
    5908:	e3a0c0ff 	mov	ip, #255	; 0xff
    590c:	e38ccc07 	orr	ip, ip, #1792	; 0x700
    5910:	e01c4a21 	ands	r4, ip, r1, lsr #20
    5914:	101c5a23 	andsne	r5, ip, r3, lsr #20
    5918:	1134000c 	teqne	r4, ip
    591c:	1135000c 	teqne	r5, ip
    5920:	0b000075 	bleq	5afc <__aeabi_dmul+0x1f8>
    5924:	e0844005 	add	r4, r4, r5
    5928:	e0216003 	eor	r6, r1, r3
    592c:	e1c11a8c 	bic	r1, r1, ip, lsl #21
    5930:	e1c33a8c 	bic	r3, r3, ip, lsl #21
    5934:	e1905601 	orrs	r5, r0, r1, lsl #12
    5938:	11925603 	orrsne	r5, r2, r3, lsl #12
    593c:	e3811601 	orr	r1, r1, #1048576	; 0x100000
    5940:	e3833601 	orr	r3, r3, #1048576	; 0x100000
    5944:	0a00001d 	beq	59c0 <__aeabi_dmul+0xbc>
    5948:	e08ec290 	umull	ip, lr, r0, r2
    594c:	e3a05000 	mov	r5, #0
    5950:	e0a5e291 	umlal	lr, r5, r1, r2
    5954:	e2062102 	and	r2, r6, #-2147483648	; 0x80000000
    5958:	e0a5e390 	umlal	lr, r5, r0, r3
    595c:	e3a06000 	mov	r6, #0
    5960:	e0a65391 	umlal	r5, r6, r1, r3
    5964:	e33c0000 	teq	ip, #0
    5968:	138ee001 	orrne	lr, lr, #1
    596c:	e24440ff 	sub	r4, r4, #255	; 0xff
    5970:	e3560c02 	cmp	r6, #512	; 0x200
    5974:	e2c44c03 	sbc	r4, r4, #768	; 0x300
    5978:	2a000002 	bcs	5988 <__aeabi_dmul+0x84>
    597c:	e1b0e08e 	lsls	lr, lr, #1
    5980:	e0b55005 	adcs	r5, r5, r5
    5984:	e0a66006 	adc	r6, r6, r6
    5988:	e1821586 	orr	r1, r2, r6, lsl #11
    598c:	e1811aa5 	orr	r1, r1, r5, lsr #21
    5990:	e1a00585 	lsl	r0, r5, #11
    5994:	e1800aae 	orr	r0, r0, lr, lsr #21
    5998:	e1a0e58e 	lsl	lr, lr, #11
    599c:	e254c0fd 	subs	ip, r4, #253	; 0xfd
    59a0:	835c0c07 	cmphi	ip, #1792	; 0x700
    59a4:	8a000011 	bhi	59f0 <__aeabi_dmul+0xec>
    59a8:	e35e0102 	cmp	lr, #-2147483648	; 0x80000000
    59ac:	01b0e0a0 	lsrseq	lr, r0, #1
    59b0:	e2b00000 	adcs	r0, r0, #0
    59b4:	e0a11a04 	adc	r1, r1, r4, lsl #20
    59b8:	e8bd4070 	pop	{r4, r5, r6, lr}
    59bc:	e12fff1e 	bx	lr
    59c0:	e2066102 	and	r6, r6, #-2147483648	; 0x80000000
    59c4:	e1861001 	orr	r1, r6, r1
    59c8:	e1800002 	orr	r0, r0, r2
    59cc:	e0211003 	eor	r1, r1, r3
    59d0:	e05440ac 	subs	r4, r4, ip, lsr #1
    59d4:	c074500c 	rsbsgt	r5, r4, ip
    59d8:	c1811a04 	orrgt	r1, r1, r4, lsl #20
    59dc:	c8bd4070 	popgt	{r4, r5, r6, lr}
    59e0:	c12fff1e 	bxgt	lr
    59e4:	e3811601 	orr	r1, r1, #1048576	; 0x100000
    59e8:	e3a0e000 	mov	lr, #0
    59ec:	e2544001 	subs	r4, r4, #1
    59f0:	ca00005d 	bgt	5b6c <__aeabi_dmul+0x268>
    59f4:	e3740036 	cmn	r4, #54	; 0x36
    59f8:	d3a00000 	movle	r0, #0
    59fc:	d2011102 	andle	r1, r1, #-2147483648	; 0x80000000
    5a00:	d8bd4070 	pople	{r4, r5, r6, lr}
    5a04:	d12fff1e 	bxle	lr
    5a08:	e2644000 	rsb	r4, r4, #0
    5a0c:	e2544020 	subs	r4, r4, #32
    5a10:	aa00001a 	bge	5a80 <__aeabi_dmul+0x17c>
    5a14:	e294400c 	adds	r4, r4, #12
    5a18:	ca00000c 	bgt	5a50 <__aeabi_dmul+0x14c>
    5a1c:	e2844014 	add	r4, r4, #20
    5a20:	e2645020 	rsb	r5, r4, #32
    5a24:	e1a03510 	lsl	r3, r0, r5
    5a28:	e1a00430 	lsr	r0, r0, r4
    5a2c:	e1800511 	orr	r0, r0, r1, lsl r5
    5a30:	e2012102 	and	r2, r1, #-2147483648	; 0x80000000
    5a34:	e3c11102 	bic	r1, r1, #-2147483648	; 0x80000000
    5a38:	e0900fa3 	adds	r0, r0, r3, lsr #31
    5a3c:	e0a21431 	adc	r1, r2, r1, lsr r4
    5a40:	e19ee083 	orrs	lr, lr, r3, lsl #1
    5a44:	01c00fa3 	biceq	r0, r0, r3, lsr #31
    5a48:	e8bd4070 	pop	{r4, r5, r6, lr}
    5a4c:	e12fff1e 	bx	lr
    5a50:	e264400c 	rsb	r4, r4, #12
    5a54:	e2645020 	rsb	r5, r4, #32
    5a58:	e1a03410 	lsl	r3, r0, r4
    5a5c:	e1a00530 	lsr	r0, r0, r5
    5a60:	e1800411 	orr	r0, r0, r1, lsl r4
    5a64:	e2011102 	and	r1, r1, #-2147483648	; 0x80000000
    5a68:	e0900fa3 	adds	r0, r0, r3, lsr #31
    5a6c:	e2a11000 	adc	r1, r1, #0
    5a70:	e19ee083 	orrs	lr, lr, r3, lsl #1
    5a74:	01c00fa3 	biceq	r0, r0, r3, lsr #31
    5a78:	e8bd4070 	pop	{r4, r5, r6, lr}
    5a7c:	e12fff1e 	bx	lr
    5a80:	e2645020 	rsb	r5, r4, #32
    5a84:	e18ee510 	orr	lr, lr, r0, lsl r5
    5a88:	e1a03430 	lsr	r3, r0, r4
    5a8c:	e1833511 	orr	r3, r3, r1, lsl r5
    5a90:	e1a00431 	lsr	r0, r1, r4
    5a94:	e2011102 	and	r1, r1, #-2147483648	; 0x80000000
    5a98:	e1c00431 	bic	r0, r0, r1, lsr r4
    5a9c:	e0800fa3 	add	r0, r0, r3, lsr #31
    5aa0:	e19ee083 	orrs	lr, lr, r3, lsl #1
    5aa4:	01c00fa3 	biceq	r0, r0, r3, lsr #31
    5aa8:	e8bd4070 	pop	{r4, r5, r6, lr}
    5aac:	e12fff1e 	bx	lr
    5ab0:	e3340000 	teq	r4, #0
    5ab4:	1a000008 	bne	5adc <__aeabi_dmul+0x1d8>
    5ab8:	e2016102 	and	r6, r1, #-2147483648	; 0x80000000
    5abc:	e1b00080 	lsls	r0, r0, #1
    5ac0:	e0a11001 	adc	r1, r1, r1
    5ac4:	e3110601 	tst	r1, #1048576	; 0x100000
    5ac8:	02444001 	subeq	r4, r4, #1
    5acc:	0afffffa 	beq	5abc <__aeabi_dmul+0x1b8>
    5ad0:	e1811006 	orr	r1, r1, r6
    5ad4:	e3350000 	teq	r5, #0
    5ad8:	112fff1e 	bxne	lr
    5adc:	e2036102 	and	r6, r3, #-2147483648	; 0x80000000
    5ae0:	e1b02082 	lsls	r2, r2, #1
    5ae4:	e0a33003 	adc	r3, r3, r3
    5ae8:	e3130601 	tst	r3, #1048576	; 0x100000
    5aec:	02455001 	subeq	r5, r5, #1
    5af0:	0afffffa 	beq	5ae0 <__aeabi_dmul+0x1dc>
    5af4:	e1833006 	orr	r3, r3, r6
    5af8:	e12fff1e 	bx	lr
    5afc:	e134000c 	teq	r4, ip
    5b00:	e00c5a23 	and	r5, ip, r3, lsr #20
    5b04:	1135000c 	teqne	r5, ip
    5b08:	0a000007 	beq	5b2c <__aeabi_dmul+0x228>
    5b0c:	e1906081 	orrs	r6, r0, r1, lsl #1
    5b10:	11926083 	orrsne	r6, r2, r3, lsl #1
    5b14:	1affffe5 	bne	5ab0 <__aeabi_dmul+0x1ac>
    5b18:	e0211003 	eor	r1, r1, r3
    5b1c:	e2011102 	and	r1, r1, #-2147483648	; 0x80000000
    5b20:	e3a00000 	mov	r0, #0
    5b24:	e8bd4070 	pop	{r4, r5, r6, lr}
    5b28:	e12fff1e 	bx	lr
    5b2c:	e1906081 	orrs	r6, r0, r1, lsl #1
    5b30:	01a00002 	moveq	r0, r2
    5b34:	01a01003 	moveq	r1, r3
    5b38:	11926083 	orrsne	r6, r2, r3, lsl #1
    5b3c:	0a000010 	beq	5b84 <__aeabi_dmul+0x280>
    5b40:	e134000c 	teq	r4, ip
    5b44:	1a000001 	bne	5b50 <__aeabi_dmul+0x24c>
    5b48:	e1906601 	orrs	r6, r0, r1, lsl #12
    5b4c:	1a00000c 	bne	5b84 <__aeabi_dmul+0x280>
    5b50:	e135000c 	teq	r5, ip
    5b54:	1a000003 	bne	5b68 <__aeabi_dmul+0x264>
    5b58:	e1926603 	orrs	r6, r2, r3, lsl #12
    5b5c:	11a00002 	movne	r0, r2
    5b60:	11a01003 	movne	r1, r3
    5b64:	1a000006 	bne	5b84 <__aeabi_dmul+0x280>
    5b68:	e0211003 	eor	r1, r1, r3
    5b6c:	e2011102 	and	r1, r1, #-2147483648	; 0x80000000
    5b70:	e381147f 	orr	r1, r1, #2130706432	; 0x7f000000
    5b74:	e381160f 	orr	r1, r1, #15728640	; 0xf00000
    5b78:	e3a00000 	mov	r0, #0
    5b7c:	e8bd4070 	pop	{r4, r5, r6, lr}
    5b80:	e12fff1e 	bx	lr
    5b84:	e381147f 	orr	r1, r1, #2130706432	; 0x7f000000
    5b88:	e381173e 	orr	r1, r1, #16252928	; 0xf80000
    5b8c:	e8bd4070 	pop	{r4, r5, r6, lr}
    5b90:	e12fff1e 	bx	lr

00005b94 <__aeabi_ddiv>:
    5b94:	e92d4070 	push	{r4, r5, r6, lr}
    5b98:	e3a0c0ff 	mov	ip, #255	; 0xff
    5b9c:	e38ccc07 	orr	ip, ip, #1792	; 0x700
    5ba0:	e01c4a21 	ands	r4, ip, r1, lsr #20
    5ba4:	101c5a23 	andsne	r5, ip, r3, lsr #20
    5ba8:	1134000c 	teqne	r4, ip
    5bac:	1135000c 	teqne	r5, ip
    5bb0:	0b00005e 	bleq	5d30 <__aeabi_ddiv+0x19c>
    5bb4:	e0444005 	sub	r4, r4, r5
    5bb8:	e021e003 	eor	lr, r1, r3
    5bbc:	e1925603 	orrs	r5, r2, r3, lsl #12
    5bc0:	e1a01601 	lsl	r1, r1, #12
    5bc4:	0a00004c 	beq	5cfc <__aeabi_ddiv+0x168>
    5bc8:	e1a03603 	lsl	r3, r3, #12
    5bcc:	e3a05201 	mov	r5, #268435456	; 0x10000000
    5bd0:	e1853223 	orr	r3, r5, r3, lsr #4
    5bd4:	e1833c22 	orr	r3, r3, r2, lsr #24
    5bd8:	e1a02402 	lsl	r2, r2, #8
    5bdc:	e1855221 	orr	r5, r5, r1, lsr #4
    5be0:	e1855c20 	orr	r5, r5, r0, lsr #24
    5be4:	e1a06400 	lsl	r6, r0, #8
    5be8:	e20e1102 	and	r1, lr, #-2147483648	; 0x80000000
    5bec:	e1550003 	cmp	r5, r3
    5bf0:	01560002 	cmpeq	r6, r2
    5bf4:	e2a440fd 	adc	r4, r4, #253	; 0xfd
    5bf8:	e2844c03 	add	r4, r4, #768	; 0x300
    5bfc:	2a000001 	bcs	5c08 <__aeabi_ddiv+0x74>
    5c00:	e1b030a3 	lsrs	r3, r3, #1
    5c04:	e1a02062 	rrx	r2, r2
    5c08:	e0566002 	subs	r6, r6, r2
    5c0c:	e0c55003 	sbc	r5, r5, r3
    5c10:	e1b030a3 	lsrs	r3, r3, #1
    5c14:	e1a02062 	rrx	r2, r2
    5c18:	e3a00601 	mov	r0, #1048576	; 0x100000
    5c1c:	e3a0c702 	mov	ip, #524288	; 0x80000
    5c20:	e056e002 	subs	lr, r6, r2
    5c24:	e0d5e003 	sbcs	lr, r5, r3
    5c28:	20466002 	subcs	r6, r6, r2
    5c2c:	21a0500e 	movcs	r5, lr
    5c30:	2180000c 	orrcs	r0, r0, ip
    5c34:	e1b030a3 	lsrs	r3, r3, #1
    5c38:	e1a02062 	rrx	r2, r2
    5c3c:	e056e002 	subs	lr, r6, r2
    5c40:	e0d5e003 	sbcs	lr, r5, r3
    5c44:	20466002 	subcs	r6, r6, r2
    5c48:	21a0500e 	movcs	r5, lr
    5c4c:	218000ac 	orrcs	r0, r0, ip, lsr #1
    5c50:	e1b030a3 	lsrs	r3, r3, #1
    5c54:	e1a02062 	rrx	r2, r2
    5c58:	e056e002 	subs	lr, r6, r2
    5c5c:	e0d5e003 	sbcs	lr, r5, r3
    5c60:	20466002 	subcs	r6, r6, r2
    5c64:	21a0500e 	movcs	r5, lr
    5c68:	2180012c 	orrcs	r0, r0, ip, lsr #2
    5c6c:	e1b030a3 	lsrs	r3, r3, #1
    5c70:	e1a02062 	rrx	r2, r2
    5c74:	e056e002 	subs	lr, r6, r2
    5c78:	e0d5e003 	sbcs	lr, r5, r3
    5c7c:	20466002 	subcs	r6, r6, r2
    5c80:	21a0500e 	movcs	r5, lr
    5c84:	218001ac 	orrcs	r0, r0, ip, lsr #3
    5c88:	e195e006 	orrs	lr, r5, r6
    5c8c:	0a00000d 	beq	5cc8 <__aeabi_ddiv+0x134>
    5c90:	e1a05205 	lsl	r5, r5, #4
    5c94:	e1855e26 	orr	r5, r5, r6, lsr #28
    5c98:	e1a06206 	lsl	r6, r6, #4
    5c9c:	e1a03183 	lsl	r3, r3, #3
    5ca0:	e1833ea2 	orr	r3, r3, r2, lsr #29
    5ca4:	e1a02182 	lsl	r2, r2, #3
    5ca8:	e1b0c22c 	lsrs	ip, ip, #4
    5cac:	1affffdb 	bne	5c20 <__aeabi_ddiv+0x8c>
    5cb0:	e3110601 	tst	r1, #1048576	; 0x100000
    5cb4:	1a000006 	bne	5cd4 <__aeabi_ddiv+0x140>
    5cb8:	e1811000 	orr	r1, r1, r0
    5cbc:	e3a00000 	mov	r0, #0
    5cc0:	e3a0c102 	mov	ip, #-2147483648	; 0x80000000
    5cc4:	eaffffd5 	b	5c20 <__aeabi_ddiv+0x8c>
    5cc8:	e3110601 	tst	r1, #1048576	; 0x100000
    5ccc:	01811000 	orreq	r1, r1, r0
    5cd0:	03a00000 	moveq	r0, #0
    5cd4:	e254c0fd 	subs	ip, r4, #253	; 0xfd
    5cd8:	835c0c07 	cmphi	ip, #1792	; 0x700
    5cdc:	8affff43 	bhi	59f0 <__aeabi_dmul+0xec>
    5ce0:	e055c003 	subs	ip, r5, r3
    5ce4:	0056c002 	subseq	ip, r6, r2
    5ce8:	01b0c0a0 	lsrseq	ip, r0, #1
    5cec:	e2b00000 	adcs	r0, r0, #0
    5cf0:	e0a11a04 	adc	r1, r1, r4, lsl #20
    5cf4:	e8bd4070 	pop	{r4, r5, r6, lr}
    5cf8:	e12fff1e 	bx	lr
    5cfc:	e20ee102 	and	lr, lr, #-2147483648	; 0x80000000
    5d00:	e18e1621 	orr	r1, lr, r1, lsr #12
    5d04:	e09440ac 	adds	r4, r4, ip, lsr #1
    5d08:	c074500c 	rsbsgt	r5, r4, ip
    5d0c:	c1811a04 	orrgt	r1, r1, r4, lsl #20
    5d10:	c8bd4070 	popgt	{r4, r5, r6, lr}
    5d14:	c12fff1e 	bxgt	lr
    5d18:	e3811601 	orr	r1, r1, #1048576	; 0x100000
    5d1c:	e3a0e000 	mov	lr, #0
    5d20:	e2544001 	subs	r4, r4, #1
    5d24:	eaffff31 	b	59f0 <__aeabi_dmul+0xec>
    5d28:	e185e006 	orr	lr, r5, r6
    5d2c:	eaffff2f 	b	59f0 <__aeabi_dmul+0xec>
    5d30:	e00c5a23 	and	r5, ip, r3, lsr #20
    5d34:	e134000c 	teq	r4, ip
    5d38:	0135000c 	teqeq	r5, ip
    5d3c:	0affff90 	beq	5b84 <__aeabi_dmul+0x280>
    5d40:	e134000c 	teq	r4, ip
    5d44:	1a000006 	bne	5d64 <__aeabi_ddiv+0x1d0>
    5d48:	e1904601 	orrs	r4, r0, r1, lsl #12
    5d4c:	1affff8c 	bne	5b84 <__aeabi_dmul+0x280>
    5d50:	e135000c 	teq	r5, ip
    5d54:	1affff83 	bne	5b68 <__aeabi_dmul+0x264>
    5d58:	e1a00002 	mov	r0, r2
    5d5c:	e1a01003 	mov	r1, r3
    5d60:	eaffff87 	b	5b84 <__aeabi_dmul+0x280>
    5d64:	e135000c 	teq	r5, ip
    5d68:	1a000004 	bne	5d80 <__aeabi_ddiv+0x1ec>
    5d6c:	e1925603 	orrs	r5, r2, r3, lsl #12
    5d70:	0affff68 	beq	5b18 <__aeabi_dmul+0x214>
    5d74:	e1a00002 	mov	r0, r2
    5d78:	e1a01003 	mov	r1, r3
    5d7c:	eaffff80 	b	5b84 <__aeabi_dmul+0x280>
    5d80:	e1906081 	orrs	r6, r0, r1, lsl #1
    5d84:	11926083 	orrsne	r6, r2, r3, lsl #1
    5d88:	1affff48 	bne	5ab0 <__aeabi_dmul+0x1ac>
    5d8c:	e1904081 	orrs	r4, r0, r1, lsl #1
    5d90:	1affff74 	bne	5b68 <__aeabi_dmul+0x264>
    5d94:	e1925083 	orrs	r5, r2, r3, lsl #1
    5d98:	1affff5e 	bne	5b18 <__aeabi_dmul+0x214>
    5d9c:	eaffff78 	b	5b84 <__aeabi_dmul+0x280>

00005da0 <__gedf2>:
    5da0:	e3e0c000 	mvn	ip, #0
    5da4:	ea000002 	b	5db4 <__cmpdf2+0x4>

00005da8 <__ledf2>:
    5da8:	e3a0c001 	mov	ip, #1
    5dac:	ea000000 	b	5db4 <__cmpdf2+0x4>

00005db0 <__cmpdf2>:
    5db0:	e3a0c001 	mov	ip, #1
    5db4:	e52dc004 	push	{ip}		; (str ip, [sp, #-4]!)
    5db8:	e1a0c081 	lsl	ip, r1, #1
    5dbc:	e1f0cacc 	mvns	ip, ip, asr #21
    5dc0:	e1a0c083 	lsl	ip, r3, #1
    5dc4:	11f0cacc 	mvnsne	ip, ip, asr #21
    5dc8:	0a00000e 	beq	5e08 <__cmpdf2+0x58>
    5dcc:	e28dd004 	add	sp, sp, #4
    5dd0:	e190c081 	orrs	ip, r0, r1, lsl #1
    5dd4:	0192c083 	orrseq	ip, r2, r3, lsl #1
    5dd8:	11310003 	teqne	r1, r3
    5ddc:	01300002 	teqeq	r0, r2
    5de0:	03a00000 	moveq	r0, #0
    5de4:	012fff1e 	bxeq	lr
    5de8:	e3700000 	cmn	r0, #0
    5dec:	e1310003 	teq	r1, r3
    5df0:	51510003 	cmppl	r1, r3
    5df4:	01500002 	cmpeq	r0, r2
    5df8:	21a00fc3 	asrcs	r0, r3, #31
    5dfc:	31e00fc3 	mvncc	r0, r3, asr #31
    5e00:	e3800001 	orr	r0, r0, #1
    5e04:	e12fff1e 	bx	lr
    5e08:	e1a0c081 	lsl	ip, r1, #1
    5e0c:	e1f0cacc 	mvns	ip, ip, asr #21
    5e10:	1a000001 	bne	5e1c <__cmpdf2+0x6c>
    5e14:	e190c601 	orrs	ip, r0, r1, lsl #12
    5e18:	1a000004 	bne	5e30 <__cmpdf2+0x80>
    5e1c:	e1a0c083 	lsl	ip, r3, #1
    5e20:	e1f0cacc 	mvns	ip, ip, asr #21
    5e24:	1affffe8 	bne	5dcc <__cmpdf2+0x1c>
    5e28:	e192c603 	orrs	ip, r2, r3, lsl #12
    5e2c:	0affffe6 	beq	5dcc <__cmpdf2+0x1c>
    5e30:	e49d0004 	pop	{r0}		; (ldr r0, [sp], #4)
    5e34:	e12fff1e 	bx	lr

00005e38 <__aeabi_cdrcmple>:
    5e38:	e1a0c000 	mov	ip, r0
    5e3c:	e1a00002 	mov	r0, r2
    5e40:	e1a0200c 	mov	r2, ip
    5e44:	e1a0c001 	mov	ip, r1
    5e48:	e1a01003 	mov	r1, r3
    5e4c:	e1a0300c 	mov	r3, ip
    5e50:	eaffffff 	b	5e54 <__aeabi_cdcmpeq>

00005e54 <__aeabi_cdcmpeq>:
    5e54:	e92d4001 	push	{r0, lr}
    5e58:	ebffffd4 	bl	5db0 <__cmpdf2>
    5e5c:	e3500000 	cmp	r0, #0
    5e60:	43700000 	cmnmi	r0, #0
    5e64:	e8bd4001 	pop	{r0, lr}
    5e68:	e12fff1e 	bx	lr

00005e6c <__aeabi_dcmpeq>:
    5e6c:	e52de008 	str	lr, [sp, #-8]!
    5e70:	ebfffff7 	bl	5e54 <__aeabi_cdcmpeq>
    5e74:	03a00001 	moveq	r0, #1
    5e78:	13a00000 	movne	r0, #0
    5e7c:	e49de008 	ldr	lr, [sp], #8
    5e80:	e12fff1e 	bx	lr

00005e84 <__aeabi_dcmplt>:
    5e84:	e52de008 	str	lr, [sp, #-8]!
    5e88:	ebfffff1 	bl	5e54 <__aeabi_cdcmpeq>
    5e8c:	33a00001 	movcc	r0, #1
    5e90:	23a00000 	movcs	r0, #0
    5e94:	e49de008 	ldr	lr, [sp], #8
    5e98:	e12fff1e 	bx	lr

00005e9c <__aeabi_dcmple>:
    5e9c:	e52de008 	str	lr, [sp, #-8]!
    5ea0:	ebffffeb 	bl	5e54 <__aeabi_cdcmpeq>
    5ea4:	93a00001 	movls	r0, #1
    5ea8:	83a00000 	movhi	r0, #0
    5eac:	e49de008 	ldr	lr, [sp], #8
    5eb0:	e12fff1e 	bx	lr

00005eb4 <__aeabi_dcmpge>:
    5eb4:	e52de008 	str	lr, [sp, #-8]!
    5eb8:	ebffffde 	bl	5e38 <__aeabi_cdrcmple>
    5ebc:	93a00001 	movls	r0, #1
    5ec0:	83a00000 	movhi	r0, #0
    5ec4:	e49de008 	ldr	lr, [sp], #8
    5ec8:	e12fff1e 	bx	lr

00005ecc <__aeabi_dcmpgt>:
    5ecc:	e52de008 	str	lr, [sp, #-8]!
    5ed0:	ebffffd8 	bl	5e38 <__aeabi_cdrcmple>
    5ed4:	33a00001 	movcc	r0, #1
    5ed8:	23a00000 	movcs	r0, #0
    5edc:	e49de008 	ldr	lr, [sp], #8
    5ee0:	e12fff1e 	bx	lr

00005ee4 <__aeabi_d2uiz>:
    5ee4:	e1b02081 	lsls	r2, r1, #1
    5ee8:	2a00000a 	bcs	5f18 <__aeabi_d2uiz+0x34>
    5eec:	e2922602 	adds	r2, r2, #2097152	; 0x200000
    5ef0:	2a00000a 	bcs	5f20 <__aeabi_d2uiz+0x3c>
    5ef4:	5a000007 	bpl	5f18 <__aeabi_d2uiz+0x34>
    5ef8:	e3e03e3e 	mvn	r3, #992	; 0x3e0
    5efc:	e0532ac2 	subs	r2, r3, r2, asr #21
    5f00:	4a000008 	bmi	5f28 <__aeabi_d2uiz+0x44>
    5f04:	e1a03581 	lsl	r3, r1, #11
    5f08:	e3833102 	orr	r3, r3, #-2147483648	; 0x80000000
    5f0c:	e1833aa0 	orr	r3, r3, r0, lsr #21
    5f10:	e1a00233 	lsr	r0, r3, r2
    5f14:	e12fff1e 	bx	lr
    5f18:	e3a00000 	mov	r0, #0
    5f1c:	e12fff1e 	bx	lr
    5f20:	e1900601 	orrs	r0, r0, r1, lsl #12
    5f24:	1a000001 	bne	5f30 <__aeabi_d2uiz+0x4c>
    5f28:	e3e00000 	mvn	r0, #0
    5f2c:	e12fff1e 	bx	lr
    5f30:	e3a00000 	mov	r0, #0
    5f34:	e12fff1e 	bx	lr

00005f38 <__aeabi_d2f>:
    5f38:	e1a02081 	lsl	r2, r1, #1
    5f3c:	e2523207 	subs	r3, r2, #1879048192	; 0x70000000
    5f40:	2253c602 	subscs	ip, r3, #2097152	; 0x200000
    5f44:	227cc57f 	rsbscs	ip, ip, #532676608	; 0x1fc00000
    5f48:	9a000006 	bls	5f68 <__aeabi_d2f+0x30>
    5f4c:	e201c102 	and	ip, r1, #-2147483648	; 0x80000000
    5f50:	e1a02180 	lsl	r2, r0, #3
    5f54:	e18c0ea0 	orr	r0, ip, r0, lsr #29
    5f58:	e3520102 	cmp	r2, #-2147483648	; 0x80000000
    5f5c:	e0a00103 	adc	r0, r0, r3, lsl #2
    5f60:	03c00001 	biceq	r0, r0, #1
    5f64:	e12fff1e 	bx	lr
    5f68:	e3110101 	tst	r1, #1073741824	; 0x40000000
    5f6c:	1a00000f 	bne	5fb0 <__aeabi_d2f+0x78>
    5f70:	e293262e 	adds	r2, r3, #48234496	; 0x2e00000
    5f74:	b2010102 	andlt	r0, r1, #-2147483648	; 0x80000000
    5f78:	b12fff1e 	bxlt	lr
    5f7c:	e3811601 	orr	r1, r1, #1048576	; 0x100000
    5f80:	e1a02aa2 	lsr	r2, r2, #21
    5f84:	e2622018 	rsb	r2, r2, #24
    5f88:	e262c020 	rsb	ip, r2, #32
    5f8c:	e1b03c10 	lsls	r3, r0, ip
    5f90:	e1a00230 	lsr	r0, r0, r2
    5f94:	13800001 	orrne	r0, r0, #1
    5f98:	e1a03581 	lsl	r3, r1, #11
    5f9c:	e1a035a3 	lsr	r3, r3, #11
    5fa0:	e1800c13 	orr	r0, r0, r3, lsl ip
    5fa4:	e1a03233 	lsr	r3, r3, r2
    5fa8:	e1a03083 	lsl	r3, r3, #1
    5fac:	eaffffe6 	b	5f4c <__aeabi_d2f+0x14>
    5fb0:	e1f03ac2 	mvns	r3, r2, asr #21
    5fb4:	1a000003 	bne	5fc8 <__aeabi_d2f+0x90>
    5fb8:	e1903601 	orrs	r3, r0, r1, lsl #12
    5fbc:	13a0047f 	movne	r0, #2130706432	; 0x7f000000
    5fc0:	13800503 	orrne	r0, r0, #12582912	; 0xc00000
    5fc4:	112fff1e 	bxne	lr
    5fc8:	e2010102 	and	r0, r1, #-2147483648	; 0x80000000
    5fcc:	e380047f 	orr	r0, r0, #2130706432	; 0x7f000000
    5fd0:	e3800502 	orr	r0, r0, #8388608	; 0x800000
    5fd4:	e12fff1e 	bx	lr

00005fd8 <__aeabi_frsub>:
