
test_all_acc.elf:     file format elf32-littlearm


Disassembly of section .text:

00000000 <_Reset>:
       0:	ea000006 	b	20 <Reset_Handler>
       4:	eafffffe 	b	4 <GIC_CPU_mask_reg_offset>
       8:	eafffffe 	b	8 <GIC_CPU_mask_reg_offset+0x4>
       c:	eafffffe 	b	c <GIC_CPU_Int_Ack_reg_offset>
      10:	eafffffe 	b	10 <GIC_CPU_End_of_int_offset>
      14:	eafffffe 	b	14 <GIC_CPU_End_of_int_offset+0x4>
      18:	ea00001c 	b	90 <irq_handler>
      1c:	eafffffe 	b	1c <GIC_CPU_End_of_int_offset+0xc>

00000020 <Reset_Handler>:
      20:	e3a010d2 	mov	r1, #210	; 0xd2
      24:	e129f001 	msr	CPSR_fc, r1
      28:	e59fd180 	ldr	sp, [pc, #384]	; 1b0 <irq_end+0x10>
      2c:	e3a010d3 	mov	r1, #211	; 0xd3
      30:	e129f001 	msr	CPSR_fc, r1
      34:	e59fd178 	ldr	sp, [pc, #376]	; 1b4 <irq_end+0x14>
      38:	eb000007 	bl	5c <config_gic_dist>
      3c:	eb00000b 	bl	70 <config_gic_cpu_interface>
      40:	e59f0170 	ldr	r0, [pc, #368]	; 1b8 <irq_end+0x18>
      44:	e3a01001 	mov	r1, #1
      48:	e5801000 	str	r1, [r0]
      4c:	e3a01053 	mov	r1, #83	; 0x53
      50:	e129f001 	msr	CPSR_fc, r1
      54:	eb001c85 	bl	7270 <main>
      58:	eafffffe 	b	58 <isp0_irq_id+0xe>

0000005c <config_gic_dist>:
      5c:	e52de004 	push	{lr}		; (str lr, [sp, #-4]!)
      60:	e59f1154 	ldr	r1, [pc, #340]	; 1bc <irq_end+0x1c>
      64:	e3e02000 	mvn	r2, #0
      68:	e5812000 	str	r2, [r1]
      6c:	e49df004 	pop	{pc}		; (ldr pc, [sp], #4)

00000070 <config_gic_cpu_interface>:
      70:	e52de004 	push	{lr}		; (str lr, [sp, #-4]!)
      74:	e59f1144 	ldr	r1, [pc, #324]	; 1c0 <irq_end+0x20>
      78:	e59f2144 	ldr	r2, [pc, #324]	; 1c4 <irq_end+0x24>
      7c:	e5812000 	str	r2, [r1]
      80:	e3a02001 	mov	r2, #1
      84:	e59f113c 	ldr	r1, [pc, #316]	; 1c8 <irq_end+0x28>
      88:	e5812000 	str	r2, [r1]
      8c:	e49df004 	pop	{pc}		; (ldr pc, [sp], #4)

00000090 <irq_handler>:
      90:	e92d40ff 	push	{r0, r1, r2, r3, r4, r5, r6, r7, lr}
      94:	e59f1130 	ldr	r1, [pc, #304]	; 1cc <irq_end+0x2c>
      98:	e5914000 	ldr	r4, [r1]

0000009c <cnm0_irq>:
      9c:	e3540040 	cmp	r4, #64	; 0x40
      a0:	1a000003 	bne	b4 <convolution0_irq>
      a4:	e3a00000 	mov	r0, #0
      a8:	e3a01000 	mov	r1, #0
      ac:	eb000795 	bl	1f08 <isr>
      b0:	ea00003a 	b	1a0 <irq_end>

000000b4 <convolution0_irq>:
      b4:	e3540041 	cmp	r4, #65	; 0x41
      b8:	1a000003 	bne	cc <convolution1_irq>
      bc:	e3a00001 	mov	r0, #1
      c0:	e3a01000 	mov	r1, #0
      c4:	eb00078f 	bl	1f08 <isr>
      c8:	ea000034 	b	1a0 <irq_end>

000000cc <convolution1_irq>:
      cc:	e3540042 	cmp	r4, #66	; 0x42
      d0:	1a000003 	bne	e4 <edge_tracking0_irq>
      d4:	e3a00001 	mov	r0, #1
      d8:	e3a01001 	mov	r1, #1
      dc:	eb000789 	bl	1f08 <isr>
      e0:	ea00002e 	b	1a0 <irq_end>

000000e4 <edge_tracking0_irq>:
      e4:	e3540043 	cmp	r4, #67	; 0x43
      e8:	1a000003 	bne	fc <elem_matrix0_irq>
      ec:	e3a00002 	mov	r0, #2
      f0:	e3a01000 	mov	r1, #0
      f4:	eb000783 	bl	1f08 <isr>
      f8:	ea000028 	b	1a0 <irq_end>

000000fc <elem_matrix0_irq>:
      fc:	e3540044 	cmp	r4, #68	; 0x44
     100:	1a000003 	bne	114 <elem_matrix1_irq>
     104:	e3a00003 	mov	r0, #3
     108:	e3a01000 	mov	r1, #0
     10c:	eb00077d 	bl	1f08 <isr>
     110:	ea000022 	b	1a0 <irq_end>

00000114 <elem_matrix1_irq>:
     114:	e3540045 	cmp	r4, #69	; 0x45
     118:	1a000003 	bne	12c <elem_matrix2_irq>
     11c:	e3a00003 	mov	r0, #3
     120:	e3a01001 	mov	r1, #1
     124:	eb000777 	bl	1f08 <isr>
     128:	ea00001c 	b	1a0 <irq_end>

0000012c <elem_matrix2_irq>:
     12c:	e3540046 	cmp	r4, #70	; 0x46
     130:	1a000003 	bne	144 <elem_matrix3_irq>
     134:	e3a00003 	mov	r0, #3
     138:	e3a01002 	mov	r1, #2
     13c:	eb000771 	bl	1f08 <isr>
     140:	ea000016 	b	1a0 <irq_end>

00000144 <elem_matrix3_irq>:
     144:	e3540047 	cmp	r4, #71	; 0x47
     148:	1a000003 	bne	15c <grayscale0_irq>
     14c:	e3a00003 	mov	r0, #3
     150:	e3a01003 	mov	r1, #3
     154:	eb00076b 	bl	1f08 <isr>
     158:	ea000010 	b	1a0 <irq_end>

0000015c <grayscale0_irq>:
     15c:	e3540048 	cmp	r4, #72	; 0x48
     160:	1a000003 	bne	174 <hnm0_irq>
     164:	e3a00004 	mov	r0, #4
     168:	e3a01000 	mov	r1, #0
     16c:	eb000765 	bl	1f08 <isr>
     170:	ea00000a 	b	1a0 <irq_end>

00000174 <hnm0_irq>:
     174:	e3540049 	cmp	r4, #73	; 0x49
     178:	1a000003 	bne	18c <isp0_irq>
     17c:	e3a00005 	mov	r0, #5
     180:	e3a01000 	mov	r1, #0
     184:	eb00075f 	bl	1f08 <isr>
     188:	ea000004 	b	1a0 <irq_end>

0000018c <isp0_irq>:
     18c:	e354004a 	cmp	r4, #74	; 0x4a
     190:	1a000002 	bne	1a0 <irq_end>
     194:	e3a00006 	mov	r0, #6
     198:	e3a01000 	mov	r1, #0
     19c:	eb000759 	bl	1f08 <isr>

000001a0 <irq_end>:
     1a0:	e59f1028 	ldr	r1, [pc, #40]	; 1d0 <irq_end+0x30>
     1a4:	e5814000 	str	r4, [r1]
     1a8:	e8bd40ff 	pop	{r0, r1, r2, r3, r4, r5, r6, r7, lr}
     1ac:	e25ef004 	subs	pc, lr, #4
     1b0:	800036d0 	ldrdhi	r3, [r0], -r0
     1b4:	800026d0 	ldrdhi	r2, [r0], -r0
     1b8:	2c001000 	stccs	0, cr1, [r0], {-0}
     1bc:	2c001108 	stfcss	f1, [r0], {8}
     1c0:	2c002004 	stccs	0, cr2, [r0], {4}
     1c4:	0000ffff 	strdeq	pc, [r0], -pc	; <UNPREDICTABLE>
     1c8:	2c002000 	stccs	0, cr2, [r0], {-0}
     1cc:	2c00200c 	stccs	0, cr2, [r0], {12}
     1d0:	2c002010 	stccs	0, cr2, [r0], {16}

000001d4 <_read_r>:
     1d4:	e92d4800 	push	{fp, lr}
     1d8:	e28db004 	add	fp, sp, #4
     1dc:	e24dd010 	sub	sp, sp, #16
     1e0:	e50b0008 	str	r0, [fp, #-8]
     1e4:	e50b100c 	str	r1, [fp, #-12]
     1e8:	e50b2010 	str	r2, [fp, #-16]
     1ec:	e50b3014 	str	r3, [fp, #-20]	; 0xffffffec
     1f0:	eb001cc6 	bl	7510 <__errno>
     1f4:	e1a02000 	mov	r2, r0
     1f8:	e3a03016 	mov	r3, #22
     1fc:	e5823000 	str	r3, [r2]
     200:	e3e03000 	mvn	r3, #0
     204:	e1a00003 	mov	r0, r3
     208:	e24bd004 	sub	sp, fp, #4
     20c:	e8bd4800 	pop	{fp, lr}
     210:	e12fff1e 	bx	lr

00000214 <_lseek_r>:
     214:	e52db004 	push	{fp}		; (str fp, [sp, #-4]!)
     218:	e28db000 	add	fp, sp, #0
     21c:	e24dd014 	sub	sp, sp, #20
     220:	e50b0008 	str	r0, [fp, #-8]
     224:	e50b100c 	str	r1, [fp, #-12]
     228:	e50b2010 	str	r2, [fp, #-16]
     22c:	e50b3014 	str	r3, [fp, #-20]	; 0xffffffec
     230:	e3a03000 	mov	r3, #0
     234:	e1a00003 	mov	r0, r3
     238:	e28bd000 	add	sp, fp, #0
     23c:	e49db004 	pop	{fp}		; (ldr fp, [sp], #4)
     240:	e12fff1e 	bx	lr

00000244 <gem5_print>:
     244:	e52db004 	push	{fp}		; (str fp, [sp, #-4]!)
     248:	e28db000 	add	fp, sp, #0
     24c:	e24dd00c 	sub	sp, sp, #12
     250:	e50b0008 	str	r0, [fp, #-8]
     254:	ea000006 	b	274 <gem5_print+0x30>
     258:	e51b3008 	ldr	r3, [fp, #-8]
     25c:	e5d32000 	ldrb	r2, [r3]
     260:	e59f302c 	ldr	r3, [pc, #44]	; 294 <gem5_print+0x50>
     264:	e5832000 	str	r2, [r3]
     268:	e51b3008 	ldr	r3, [fp, #-8]
     26c:	e2833001 	add	r3, r3, #1
     270:	e50b3008 	str	r3, [fp, #-8]
     274:	e51b3008 	ldr	r3, [fp, #-8]
     278:	e5d33000 	ldrb	r3, [r3]
     27c:	e3530000 	cmp	r3, #0
     280:	1afffff4 	bne	258 <gem5_print+0x14>
     284:	e1a00000 	nop			; (mov r0, r0)
     288:	e28bd000 	add	sp, fp, #0
     28c:	e49db004 	pop	{fp}		; (ldr fp, [sp], #4)
     290:	e12fff1e 	bx	lr
     294:	1c090000 	stcne	0, cr0, [r9], {-0}

00000298 <_write_r>:
     298:	e92d4800 	push	{fp, lr}
     29c:	e28db004 	add	fp, sp, #4
     2a0:	e24dd010 	sub	sp, sp, #16
     2a4:	e50b0008 	str	r0, [fp, #-8]
     2a8:	e50b100c 	str	r1, [fp, #-12]
     2ac:	e50b2010 	str	r2, [fp, #-16]
     2b0:	e50b3014 	str	r3, [fp, #-20]	; 0xffffffec
     2b4:	e51b0010 	ldr	r0, [fp, #-16]
     2b8:	ebffffe1 	bl	244 <gem5_print>
     2bc:	e51b3014 	ldr	r3, [fp, #-20]	; 0xffffffec
     2c0:	e1a00003 	mov	r0, r3
     2c4:	e24bd004 	sub	sp, fp, #4
     2c8:	e8bd4800 	pop	{fp, lr}
     2cc:	e12fff1e 	bx	lr

000002d0 <_close_r>:
     2d0:	e52db004 	push	{fp}		; (str fp, [sp, #-4]!)
     2d4:	e28db000 	add	fp, sp, #0
     2d8:	e24dd00c 	sub	sp, sp, #12
     2dc:	e50b0008 	str	r0, [fp, #-8]
     2e0:	e50b100c 	str	r1, [fp, #-12]
     2e4:	e3a03000 	mov	r3, #0
     2e8:	e1a00003 	mov	r0, r3
     2ec:	e28bd000 	add	sp, fp, #0
     2f0:	e49db004 	pop	{fp}		; (ldr fp, [sp], #4)
     2f4:	e12fff1e 	bx	lr

000002f8 <_sbrk_r>:
     2f8:	e92d4800 	push	{fp, lr}
     2fc:	e28db004 	add	fp, sp, #4
     300:	e24dd010 	sub	sp, sp, #16
     304:	e50b0010 	str	r0, [fp, #-16]
     308:	e50b1014 	str	r1, [fp, #-20]	; 0xffffffec
     30c:	e59f3080 	ldr	r3, [pc, #128]	; 394 <_sbrk_r+0x9c>
     310:	e5933000 	ldr	r3, [r3]
     314:	e3530000 	cmp	r3, #0
     318:	1a000002 	bne	328 <_sbrk_r+0x30>
     31c:	e59f3070 	ldr	r3, [pc, #112]	; 394 <_sbrk_r+0x9c>
     320:	e59f2070 	ldr	r2, [pc, #112]	; 398 <_sbrk_r+0xa0>
     324:	e5832000 	str	r2, [r3]
     328:	e59f3064 	ldr	r3, [pc, #100]	; 394 <_sbrk_r+0x9c>
     32c:	e5933000 	ldr	r3, [r3]
     330:	e50b3008 	str	r3, [fp, #-8]
     334:	e59f3058 	ldr	r3, [pc, #88]	; 394 <_sbrk_r+0x9c>
     338:	e5932000 	ldr	r2, [r3]
     33c:	e51b3014 	ldr	r3, [fp, #-20]	; 0xffffffec
     340:	e0823003 	add	r3, r2, r3
     344:	e1a0200d 	mov	r2, sp
     348:	e1530002 	cmp	r3, r2
     34c:	9a000005 	bls	368 <_sbrk_r+0x70>
     350:	eb001c6e 	bl	7510 <__errno>
     354:	e1a02000 	mov	r2, r0
     358:	e3a0300c 	mov	r3, #12
     35c:	e5823000 	str	r3, [r2]
     360:	e3e03000 	mvn	r3, #0
     364:	ea000006 	b	384 <_sbrk_r+0x8c>
     368:	e59f3024 	ldr	r3, [pc, #36]	; 394 <_sbrk_r+0x9c>
     36c:	e5932000 	ldr	r2, [r3]
     370:	e51b3014 	ldr	r3, [fp, #-20]	; 0xffffffec
     374:	e0823003 	add	r3, r2, r3
     378:	e59f2014 	ldr	r2, [pc, #20]	; 394 <_sbrk_r+0x9c>
     37c:	e5823000 	str	r3, [r2]
     380:	e51b3008 	ldr	r3, [fp, #-8]
     384:	e1a00003 	mov	r0, r3
     388:	e24bd004 	sub	sp, fp, #4
     38c:	e8bd4800 	pop	{fp, lr}
     390:	e12fff1e 	bx	lr
     394:	80000a8c 	andhi	r0, r0, ip, lsl #21
     398:	800036d0 	ldrdhi	r3, [r0], -r0

0000039c <_fstat_r>:
     39c:	e92d4800 	push	{fp, lr}
     3a0:	e28db004 	add	fp, sp, #4
     3a4:	e24dd010 	sub	sp, sp, #16
     3a8:	e50b0008 	str	r0, [fp, #-8]
     3ac:	e50b100c 	str	r1, [fp, #-12]
     3b0:	e50b2010 	str	r2, [fp, #-16]
     3b4:	e3a02058 	mov	r2, #88	; 0x58
     3b8:	e3a01000 	mov	r1, #0
     3bc:	e51b0010 	ldr	r0, [fp, #-16]
     3c0:	eb001c56 	bl	7520 <memset>
     3c4:	e51b3010 	ldr	r3, [fp, #-16]
     3c8:	e3a02a02 	mov	r2, #8192	; 0x2000
     3cc:	e5832004 	str	r2, [r3, #4]
     3d0:	e3a03000 	mov	r3, #0
     3d4:	e1a00003 	mov	r0, r3
     3d8:	e24bd004 	sub	sp, fp, #4
     3dc:	e8bd4800 	pop	{fp, lr}
     3e0:	e12fff1e 	bx	lr

000003e4 <_isatty_r>:
     3e4:	e52db004 	push	{fp}		; (str fp, [sp, #-4]!)
     3e8:	e28db000 	add	fp, sp, #0
     3ec:	e24dd00c 	sub	sp, sp, #12
     3f0:	e50b0008 	str	r0, [fp, #-8]
     3f4:	e50b100c 	str	r1, [fp, #-12]
     3f8:	e3a03001 	mov	r3, #1
     3fc:	e1a00003 	mov	r0, r3
     400:	e28bd000 	add	sp, fp, #0
     404:	e49db004 	pop	{fp}		; (ldr fp, [sp], #4)
     408:	e12fff1e 	bx	lr

0000040c <get_memory>:
     40c:	e1a03000 	mov	r3, r0
     410:	e59f2018 	ldr	r2, [pc, #24]	; 430 <get_memory+0x24>
     414:	e2101007 	ands	r1, r0, #7
     418:	e5920000 	ldr	r0, [r2]
     41c:	12611008 	rsbne	r1, r1, #8
     420:	e0803003 	add	r3, r0, r3
     424:	e0833001 	add	r3, r3, r1
     428:	e5823000 	str	r3, [r2]
     42c:	e12fff1e 	bx	lr
     430:	80000000 	andhi	r0, r0, r0

00000434 <runtime>:
     434:	e92d4ff0 	push	{r4, r5, r6, r7, r8, r9, sl, fp, lr}
     438:	e3a0e000 	mov	lr, #0
     43c:	e3a09421 	mov	r9, #553648128	; 0x21000000
     440:	e1a0200e 	mov	r2, lr
     444:	e59f3f14 	ldr	r3, [pc, #3860]	; 1360 <Len_IRQ_Stack+0x360>
     448:	e24ddf6b 	sub	sp, sp, #428	; 0x1ac
     44c:	e58d1030 	str	r1, [sp, #48]	; 0x30
     450:	e58d3014 	str	r3, [sp, #20]
     454:	e283101c 	add	r1, r3, #28
     458:	e28dc090 	add	ip, sp, #144	; 0x90
     45c:	e28330c4 	add	r3, r3, #196	; 0xc4
     460:	e58d002c 	str	r0, [sp, #44]	; 0x2c
     464:	e58d1010 	str	r1, [sp, #16]
     468:	e58d3028 	str	r3, [sp, #40]	; 0x28
     46c:	e58de004 	str	lr, [sp, #4]
     470:	e58dc00c 	str	ip, [sp, #12]
     474:	e59d3014 	ldr	r3, [sp, #20]
     478:	e4930004 	ldr	r0, [r3], #4
     47c:	e3500000 	cmp	r0, #0
     480:	e58d3014 	str	r3, [sp, #20]
     484:	da0000f5 	ble	860 <runtime+0x42c>
     488:	e59d3004 	ldr	r3, [sp, #4]
     48c:	e59d1004 	ldr	r1, [sp, #4]
     490:	e1a03183 	lsl	r3, r3, #3
     494:	e0431001 	sub	r1, r3, r1
     498:	e59fcec4 	ldr	ip, [pc, #3780]	; 1364 <Len_IRQ_Stack+0x364>
     49c:	e58d3020 	str	r3, [sp, #32]
     4a0:	e59d3004 	ldr	r3, [sp, #4]
     4a4:	e79c8103 	ldr	r8, [ip, r3, lsl #2]
     4a8:	e59dc028 	ldr	ip, [sp, #40]	; 0x28
     4ac:	e79c7103 	ldr	r7, [ip, r3, lsl #2]
     4b0:	e59d3010 	ldr	r3, [sp, #16]
     4b4:	e5935004 	ldr	r5, [r3, #4]
     4b8:	e5936000 	ldr	r6, [r3]
     4bc:	e2834008 	add	r4, r3, #8
     4c0:	e5933010 	ldr	r3, [r3, #16]
     4c4:	e58d3018 	str	r3, [sp, #24]
     4c8:	e59d3004 	ldr	r3, [sp, #4]
     4cc:	e59fce94 	ldr	ip, [pc, #3732]	; 1368 <Len_IRQ_Stack+0x368>
     4d0:	e8940810 	ldm	r4, {r4, fp}
     4d4:	e0631181 	rsb	r1, r3, r1, lsl #3
     4d8:	e088a009 	add	sl, r8, r9
     4dc:	e78ca181 	str	sl, [ip, r1, lsl #3]
     4e0:	e08c3181 	add	r3, ip, r1, lsl #3
     4e4:	e087a009 	add	sl, r7, r9
     4e8:	e0861009 	add	r1, r6, r9
     4ec:	e59dc018 	ldr	ip, [sp, #24]
     4f0:	e583a004 	str	sl, [r3, #4]
     4f4:	e59de00c 	ldr	lr, [sp, #12]
     4f8:	e5831008 	str	r1, [r3, #8]
     4fc:	e085a009 	add	sl, r5, r9
     500:	e0841009 	add	r1, r4, r9
     504:	e583a00c 	str	sl, [r3, #12]
     508:	e3500001 	cmp	r0, #1
     50c:	e5831010 	str	r1, [r3, #16]
     510:	e08ba009 	add	sl, fp, r9
     514:	e08c1009 	add	r1, ip, r9
     518:	e583a014 	str	sl, [r3, #20]
     51c:	e58e2000 	str	r2, [lr]
     520:	e5831018 	str	r1, [r3, #24]
     524:	e58db008 	str	fp, [sp, #8]
     528:	e5c3201c 	strb	r2, [r3, #28]
     52c:	e5832020 	str	r2, [r3, #32]
     530:	e5c32024 	strb	r2, [r3, #36]	; 0x24
     534:	0a0000c9 	beq	860 <runtime+0x42c>
     538:	e2891601 	add	r1, r9, #1048576	; 0x100000
     53c:	e088b001 	add	fp, r8, r1
     540:	e087a001 	add	sl, r7, r1
     544:	e583b02c 	str	fp, [r3, #44]	; 0x2c
     548:	e583a030 	str	sl, [r3, #48]	; 0x30
     54c:	e086b001 	add	fp, r6, r1
     550:	e085a001 	add	sl, r5, r1
     554:	e583b034 	str	fp, [r3, #52]	; 0x34
     558:	e583a038 	str	sl, [r3, #56]	; 0x38
     55c:	e59da008 	ldr	sl, [sp, #8]
     560:	e084b001 	add	fp, r4, r1
     564:	e08aa001 	add	sl, sl, r1
     568:	e3500002 	cmp	r0, #2
     56c:	e08c1001 	add	r1, ip, r1
     570:	e583b03c 	str	fp, [r3, #60]	; 0x3c
     574:	e58e2004 	str	r2, [lr, #4]
     578:	e583a040 	str	sl, [r3, #64]	; 0x40
     57c:	e5831044 	str	r1, [r3, #68]	; 0x44
     580:	e5c32048 	strb	r2, [r3, #72]	; 0x48
     584:	e583204c 	str	r2, [r3, #76]	; 0x4c
     588:	e5c32050 	strb	r2, [r3, #80]	; 0x50
     58c:	0a0000b3 	beq	860 <runtime+0x42c>
     590:	e2891602 	add	r1, r9, #2097152	; 0x200000
     594:	e088b001 	add	fp, r8, r1
     598:	e087a001 	add	sl, r7, r1
     59c:	e583b058 	str	fp, [r3, #88]	; 0x58
     5a0:	e583a05c 	str	sl, [r3, #92]	; 0x5c
     5a4:	e086b001 	add	fp, r6, r1
     5a8:	e085a001 	add	sl, r5, r1
     5ac:	e583b060 	str	fp, [r3, #96]	; 0x60
     5b0:	e583a064 	str	sl, [r3, #100]	; 0x64
     5b4:	e59da008 	ldr	sl, [sp, #8]
     5b8:	e084b001 	add	fp, r4, r1
     5bc:	e08aa001 	add	sl, sl, r1
     5c0:	e3500003 	cmp	r0, #3
     5c4:	e08c1001 	add	r1, ip, r1
     5c8:	e583b068 	str	fp, [r3, #104]	; 0x68
     5cc:	e58e2008 	str	r2, [lr, #8]
     5d0:	e583a06c 	str	sl, [r3, #108]	; 0x6c
     5d4:	e5831070 	str	r1, [r3, #112]	; 0x70
     5d8:	e5c32074 	strb	r2, [r3, #116]	; 0x74
     5dc:	e5832078 	str	r2, [r3, #120]	; 0x78
     5e0:	e5c3207c 	strb	r2, [r3, #124]	; 0x7c
     5e4:	0a00009d 	beq	860 <runtime+0x42c>
     5e8:	e2891603 	add	r1, r9, #3145728	; 0x300000
     5ec:	e088b001 	add	fp, r8, r1
     5f0:	e087a001 	add	sl, r7, r1
     5f4:	e583b084 	str	fp, [r3, #132]	; 0x84
     5f8:	e583a088 	str	sl, [r3, #136]	; 0x88
     5fc:	e086b001 	add	fp, r6, r1
     600:	e085a001 	add	sl, r5, r1
     604:	e583b08c 	str	fp, [r3, #140]	; 0x8c
     608:	e583a090 	str	sl, [r3, #144]	; 0x90
     60c:	e59da008 	ldr	sl, [sp, #8]
     610:	e084b001 	add	fp, r4, r1
     614:	e08aa001 	add	sl, sl, r1
     618:	e3500004 	cmp	r0, #4
     61c:	e08c1001 	add	r1, ip, r1
     620:	e583b094 	str	fp, [r3, #148]	; 0x94
     624:	e58e200c 	str	r2, [lr, #12]
     628:	e583a098 	str	sl, [r3, #152]	; 0x98
     62c:	e583109c 	str	r1, [r3, #156]	; 0x9c
     630:	e5c320a0 	strb	r2, [r3, #160]	; 0xa0
     634:	e58320a4 	str	r2, [r3, #164]	; 0xa4
     638:	e5c320a8 	strb	r2, [r3, #168]	; 0xa8
     63c:	0a000087 	beq	860 <runtime+0x42c>
     640:	e2891501 	add	r1, r9, #4194304	; 0x400000
     644:	e088b001 	add	fp, r8, r1
     648:	e087a001 	add	sl, r7, r1
     64c:	e583b0b0 	str	fp, [r3, #176]	; 0xb0
     650:	e583a0b4 	str	sl, [r3, #180]	; 0xb4
     654:	e086b001 	add	fp, r6, r1
     658:	e085a001 	add	sl, r5, r1
     65c:	e583b0b8 	str	fp, [r3, #184]	; 0xb8
     660:	e583a0bc 	str	sl, [r3, #188]	; 0xbc
     664:	e59da008 	ldr	sl, [sp, #8]
     668:	e084b001 	add	fp, r4, r1
     66c:	e08aa001 	add	sl, sl, r1
     670:	e3500005 	cmp	r0, #5
     674:	e08c1001 	add	r1, ip, r1
     678:	e583b0c0 	str	fp, [r3, #192]	; 0xc0
     67c:	e58e2010 	str	r2, [lr, #16]
     680:	e583a0c4 	str	sl, [r3, #196]	; 0xc4
     684:	e58310c8 	str	r1, [r3, #200]	; 0xc8
     688:	e5c320cc 	strb	r2, [r3, #204]	; 0xcc
     68c:	e58320d0 	str	r2, [r3, #208]	; 0xd0
     690:	e5c320d4 	strb	r2, [r3, #212]	; 0xd4
     694:	0a000071 	beq	860 <runtime+0x42c>
     698:	e2891605 	add	r1, r9, #5242880	; 0x500000
     69c:	e088b001 	add	fp, r8, r1
     6a0:	e087a001 	add	sl, r7, r1
     6a4:	e583b0dc 	str	fp, [r3, #220]	; 0xdc
     6a8:	e583a0e0 	str	sl, [r3, #224]	; 0xe0
     6ac:	e086b001 	add	fp, r6, r1
     6b0:	e085a001 	add	sl, r5, r1
     6b4:	e583b0e4 	str	fp, [r3, #228]	; 0xe4
     6b8:	e583a0e8 	str	sl, [r3, #232]	; 0xe8
     6bc:	e59da008 	ldr	sl, [sp, #8]
     6c0:	e084b001 	add	fp, r4, r1
     6c4:	e08aa001 	add	sl, sl, r1
     6c8:	e3500006 	cmp	r0, #6
     6cc:	e08c1001 	add	r1, ip, r1
     6d0:	e583b0ec 	str	fp, [r3, #236]	; 0xec
     6d4:	e58e2014 	str	r2, [lr, #20]
     6d8:	e583a0f0 	str	sl, [r3, #240]	; 0xf0
     6dc:	e58310f4 	str	r1, [r3, #244]	; 0xf4
     6e0:	e5c320f8 	strb	r2, [r3, #248]	; 0xf8
     6e4:	e58320fc 	str	r2, [r3, #252]	; 0xfc
     6e8:	e5c32100 	strb	r2, [r3, #256]	; 0x100
     6ec:	0a00005b 	beq	860 <runtime+0x42c>
     6f0:	e2891606 	add	r1, r9, #6291456	; 0x600000
     6f4:	e088b001 	add	fp, r8, r1
     6f8:	e087a001 	add	sl, r7, r1
     6fc:	e583b108 	str	fp, [r3, #264]	; 0x108
     700:	e583a10c 	str	sl, [r3, #268]	; 0x10c
     704:	e086b001 	add	fp, r6, r1
     708:	e085a001 	add	sl, r5, r1
     70c:	e583b110 	str	fp, [r3, #272]	; 0x110
     710:	e583a114 	str	sl, [r3, #276]	; 0x114
     714:	e59da008 	ldr	sl, [sp, #8]
     718:	e084b001 	add	fp, r4, r1
     71c:	e08aa001 	add	sl, sl, r1
     720:	e3500007 	cmp	r0, #7
     724:	e08c1001 	add	r1, ip, r1
     728:	e583b118 	str	fp, [r3, #280]	; 0x118
     72c:	e58e2018 	str	r2, [lr, #24]
     730:	e583a11c 	str	sl, [r3, #284]	; 0x11c
     734:	e5831120 	str	r1, [r3, #288]	; 0x120
     738:	e5c32124 	strb	r2, [r3, #292]	; 0x124
     73c:	e5832128 	str	r2, [r3, #296]	; 0x128
     740:	e5c3212c 	strb	r2, [r3, #300]	; 0x12c
     744:	0a000045 	beq	860 <runtime+0x42c>
     748:	e2891607 	add	r1, r9, #7340032	; 0x700000
     74c:	e088b001 	add	fp, r8, r1
     750:	e087a001 	add	sl, r7, r1
     754:	e58e201c 	str	r2, [lr, #28]
     758:	e59de008 	ldr	lr, [sp, #8]
     75c:	e583b134 	str	fp, [r3, #308]	; 0x134
     760:	e583a138 	str	sl, [r3, #312]	; 0x138
     764:	e086b001 	add	fp, r6, r1
     768:	e085a001 	add	sl, r5, r1
     76c:	e583b13c 	str	fp, [r3, #316]	; 0x13c
     770:	e3500008 	cmp	r0, #8
     774:	e583a140 	str	sl, [r3, #320]	; 0x140
     778:	e084b001 	add	fp, r4, r1
     77c:	e08ea001 	add	sl, lr, r1
     780:	e08c1001 	add	r1, ip, r1
     784:	e583b144 	str	fp, [r3, #324]	; 0x144
     788:	e583a148 	str	sl, [r3, #328]	; 0x148
     78c:	e583114c 	str	r1, [r3, #332]	; 0x14c
     790:	e5c32150 	strb	r2, [r3, #336]	; 0x150
     794:	e5832154 	str	r2, [r3, #340]	; 0x154
     798:	e5c32158 	strb	r2, [r3, #344]	; 0x158
     79c:	0a00002f 	beq	860 <runtime+0x42c>
     7a0:	e2891502 	add	r1, r9, #8388608	; 0x800000
     7a4:	e088a001 	add	sl, r8, r1
     7a8:	e3500009 	cmp	r0, #9
     7ac:	e0870001 	add	r0, r7, r1
     7b0:	e583a160 	str	sl, [r3, #352]	; 0x160
     7b4:	e59db00c 	ldr	fp, [sp, #12]
     7b8:	e5830164 	str	r0, [r3, #356]	; 0x164
     7bc:	e086a001 	add	sl, r6, r1
     7c0:	e0850001 	add	r0, r5, r1
     7c4:	e583a168 	str	sl, [r3, #360]	; 0x168
     7c8:	e583016c 	str	r0, [r3, #364]	; 0x16c
     7cc:	e084a001 	add	sl, r4, r1
     7d0:	e08e0001 	add	r0, lr, r1
     7d4:	e08c1001 	add	r1, ip, r1
     7d8:	e583a170 	str	sl, [r3, #368]	; 0x170
     7dc:	e58b2020 	str	r2, [fp, #32]
     7e0:	e5830174 	str	r0, [r3, #372]	; 0x174
     7e4:	e5831178 	str	r1, [r3, #376]	; 0x178
     7e8:	e5c3217c 	strb	r2, [r3, #380]	; 0x17c
     7ec:	e5832180 	str	r2, [r3, #384]	; 0x180
     7f0:	e5c32184 	strb	r2, [r3, #388]	; 0x184
     7f4:	0a000019 	beq	860 <runtime+0x42c>
     7f8:	e59d1004 	ldr	r1, [sp, #4]
     7fc:	e59d3020 	ldr	r3, [sp, #32]
     800:	e59f0b60 	ldr	r0, [pc, #2912]	; 1368 <Len_IRQ_Stack+0x368>
     804:	e0433001 	sub	r3, r3, r1
     808:	e0613183 	rsb	r3, r1, r3, lsl #3
     80c:	e2891609 	add	r1, r9, #9437184	; 0x900000
     810:	e0803183 	add	r3, r0, r3, lsl #3
     814:	e0888001 	add	r8, r8, r1
     818:	e0877001 	add	r7, r7, r1
     81c:	e0866001 	add	r6, r6, r1
     820:	e0855001 	add	r5, r5, r1
     824:	e0844001 	add	r4, r4, r1
     828:	e08e0001 	add	r0, lr, r1
     82c:	e08c1001 	add	r1, ip, r1
     830:	e59dc00c 	ldr	ip, [sp, #12]
     834:	e583818c 	str	r8, [r3, #396]	; 0x18c
     838:	e58c2024 	str	r2, [ip, #36]	; 0x24
     83c:	e5837190 	str	r7, [r3, #400]	; 0x190
     840:	e5836194 	str	r6, [r3, #404]	; 0x194
     844:	e5835198 	str	r5, [r3, #408]	; 0x198
     848:	e583419c 	str	r4, [r3, #412]	; 0x19c
     84c:	e58301a0 	str	r0, [r3, #416]	; 0x1a0
     850:	e58311a4 	str	r1, [r3, #420]	; 0x1a4
     854:	e5c321a8 	strb	r2, [r3, #424]	; 0x1a8
     858:	e58321ac 	str	r2, [r3, #428]	; 0x1ac
     85c:	e5c321b0 	strb	r2, [r3, #432]	; 0x1b0
     860:	e59d3004 	ldr	r3, [sp, #4]
     864:	e2833001 	add	r3, r3, #1
     868:	e58d3004 	str	r3, [sp, #4]
     86c:	e3530007 	cmp	r3, #7
     870:	e59d300c 	ldr	r3, [sp, #12]
     874:	e2833028 	add	r3, r3, #40	; 0x28
     878:	e58d300c 	str	r3, [sp, #12]
     87c:	e59d3010 	ldr	r3, [sp, #16]
     880:	e2833014 	add	r3, r3, #20
     884:	e58d3010 	str	r3, [sp, #16]
     888:	e2899401 	add	r9, r9, #16777216	; 0x1000000
     88c:	1afffef8 	bne	474 <runtime+0x40>
     890:	e3a00000 	mov	r0, #0
     894:	e3a01000 	mov	r1, #0
     898:	e3a02000 	mov	r2, #0
     89c:	e3a03000 	mov	r3, #0
     8a0:	ee400110 	wfc	r0
     8a4:	e59faabc 	ldr	sl, [pc, #2748]	; 1368 <Len_IRQ_Stack+0x368>
     8a8:	e3a03000 	mov	r3, #0
     8ac:	e59d9030 	ldr	r9, [sp, #48]	; 0x30
     8b0:	e59fbaa8 	ldr	fp, [pc, #2728]	; 1360 <Len_IRQ_Stack+0x360>
     8b4:	e1a07009 	mov	r7, r9
     8b8:	e3a08001 	mov	r8, #1
     8bc:	e1a0900b 	mov	r9, fp
     8c0:	e58d3014 	str	r3, [sp, #20]
     8c4:	e58d300c 	str	r3, [sp, #12]
     8c8:	e59d302c 	ldr	r3, [sp, #44]	; 0x2c
     8cc:	e58d3008 	str	r3, [sp, #8]
     8d0:	e28d3090 	add	r3, sp, #144	; 0x90
     8d4:	e58d3010 	str	r3, [sp, #16]
     8d8:	e4993004 	ldr	r3, [r9], #4
     8dc:	e3530000 	cmp	r3, #0
     8e0:	da00002b 	ble	994 <runtime+0x560>
     8e4:	e3a06000 	mov	r6, #0
     8e8:	e59d200c 	ldr	r2, [sp, #12]
     8ec:	e0623182 	rsb	r3, r2, r2, lsl #3
     8f0:	e0623183 	rsb	r3, r2, r3, lsl #3
     8f4:	e1a0b183 	lsl	fp, r3, #3
     8f8:	e1a00007 	mov	r0, r7
     8fc:	e1a0e006 	mov	lr, r6
     900:	e1a0700b 	mov	r7, fp
     904:	e59d5010 	ldr	r5, [sp, #16]
     908:	e58d6004 	str	r6, [sp, #4]
     90c:	e1a0310e 	lsl	r3, lr, #2
     910:	e083100e 	add	r1, r3, lr
     914:	e08e1081 	add	r1, lr, r1, lsl #1
     918:	e0871101 	add	r1, r7, r1, lsl #2
     91c:	e5902000 	ldr	r2, [r0]
     920:	e08a1001 	add	r1, sl, r1
     924:	e5d1401c 	ldrb	r4, [r1, #28]
     928:	e792c10e 	ldr	ip, [r2, lr, lsl #2]
     92c:	e5952000 	ldr	r2, [r5]
     930:	e3540000 	cmp	r4, #0
     934:	13a08000 	movne	r8, #0
     938:	e152000c 	cmp	r2, ip
     93c:	0a00000a 	beq	96c <runtime+0x538>
     940:	e5d1101c 	ldrb	r1, [r1, #28]
     944:	e3510000 	cmp	r1, #0
     948:	1a000006 	bne	968 <runtime+0x534>
     94c:	e59d1008 	ldr	r1, [sp, #8]
     950:	e5911000 	ldr	r1, [r1]
     954:	e7911003 	ldr	r1, [r1, r3]
     958:	e7911102 	ldr	r1, [r1, r2, lsl #2]
     95c:	e591c100 	ldr	ip, [r1, #256]	; 0x100
     960:	e35c0001 	cmp	ip, #1
     964:	0a000028 	beq	a0c <runtime+0x5d8>
     968:	e3a08000 	mov	r8, #0
     96c:	e59d2004 	ldr	r2, [sp, #4]
     970:	e5193004 	ldr	r3, [r9, #-4]
     974:	e2966601 	adds	r6, r6, #1048576	; 0x100000
     978:	e28ee001 	add	lr, lr, #1
     97c:	e2a22000 	adc	r2, r2, #0
     980:	e153000e 	cmp	r3, lr
     984:	e58d2004 	str	r2, [sp, #4]
     988:	e2855004 	add	r5, r5, #4
     98c:	caffffde 	bgt	90c <runtime+0x4d8>
     990:	e1a07000 	mov	r7, r0
     994:	e59d2014 	ldr	r2, [sp, #20]
     998:	e59f39cc 	ldr	r3, [pc, #2508]	; 136c <Len_IRQ_Stack+0x36c>
     99c:	e2822f6e 	add	r2, r2, #440	; 0x1b8
     9a0:	e1520003 	cmp	r2, r3
     9a4:	e59d300c 	ldr	r3, [sp, #12]
     9a8:	e2833001 	add	r3, r3, #1
     9ac:	e58d300c 	str	r3, [sp, #12]
     9b0:	e59d3010 	ldr	r3, [sp, #16]
     9b4:	e2833028 	add	r3, r3, #40	; 0x28
     9b8:	e58d3010 	str	r3, [sp, #16]
     9bc:	e59d3008 	ldr	r3, [sp, #8]
     9c0:	e2833004 	add	r3, r3, #4
     9c4:	e58d2014 	str	r2, [sp, #20]
     9c8:	e2877004 	add	r7, r7, #4
     9cc:	e58d3008 	str	r3, [sp, #8]
     9d0:	1affffc0 	bne	8d8 <runtime+0x4a4>
     9d4:	e3580000 	cmp	r8, #0
     9d8:	1a00030a 	bne	1608 <Len_IRQ_Stack+0x608>
     9dc:	e59f398c 	ldr	r3, [pc, #2444]	; 1370 <Len_IRQ_Stack+0x370>
     9e0:	e5933000 	ldr	r3, [r3]
     9e4:	e3530000 	cmp	r3, #0
     9e8:	0a000373 	beq	17bc <Len_IRQ_Stack+0x7bc>
     9ec:	e59f397c 	ldr	r3, [pc, #2428]	; 1370 <Len_IRQ_Stack+0x370>
     9f0:	e5d33004 	ldrb	r3, [r3, #4]
     9f4:	e3530000 	cmp	r3, #0
     9f8:	0afffffb 	beq	9ec <runtime+0x5b8>
     9fc:	e3a03000 	mov	r3, #0
     a00:	e59f2968 	ldr	r2, [pc, #2408]	; 1370 <Len_IRQ_Stack+0x370>
     a04:	e5c23004 	strb	r3, [r2, #4]
     a08:	eaffffa6 	b	8a8 <runtime+0x474>
     a0c:	e59dc00c 	ldr	ip, [sp, #12]
     a10:	e24cc001 	sub	ip, ip, #1
     a14:	e5918004 	ldr	r8, [r1, #4]
     a18:	e35c0005 	cmp	ip, #5
     a1c:	979ff10c 	ldrls	pc, [pc, ip, lsl #2]
     a20:	ea0004a3 	b	1cb4 <Len_IRQ_Stack+0xcb4>
     a24:	00000f98 	muleq	r0, r8, pc	; <UNPREDICTABLE>
     a28:	00000d78 	andeq	r0, r0, r8, ror sp
     a2c:	00000bf8 	strdeq	r0, [r0], -r8
     a30:	00000ac4 	andeq	r0, r0, r4, asr #21
     a34:	00000a3c 	andeq	r0, r0, ip, lsr sl
     a38:	00000e88 	andeq	r0, r0, r8, lsl #29
     a3c:	e083c00e 	add	ip, r3, lr
     a40:	e08ec08c 	add	ip, lr, ip, lsl #1
     a44:	e08ac10c 	add	ip, sl, ip, lsl #2
     a48:	e5dc48bd 	ldrb	r4, [ip, #2237]	; 0x8bd
     a4c:	e21440ff 	ands	r4, r4, #255	; 0xff
     a50:	0a0002b4 	beq	1528 <Len_IRQ_Stack+0x528>
     a54:	e5dcc8be 	ldrb	ip, [ip, #2238]	; 0x8be
     a58:	e35c0000 	cmp	ip, #0
     a5c:	0a0002b0 	beq	1524 <Len_IRQ_Stack+0x524>
     a60:	e083c00e 	add	ip, r3, lr
     a64:	e08ec08c 	add	ip, lr, ip, lsl #1
     a68:	e087410c 	add	r4, r7, ip, lsl #2
     a6c:	e08ac004 	add	ip, sl, r4
     a70:	e5dcc01c 	ldrb	ip, [ip, #28]
     a74:	e35c0003 	cmp	ip, #3
     a78:	0a000183 	beq	108c <Len_IRQ_Stack+0x8c>
     a7c:	e083300e 	add	r3, r3, lr
     a80:	e08e3083 	add	r3, lr, r3, lsl #1
     a84:	e0873103 	add	r3, r7, r3, lsl #2
     a88:	e08a3003 	add	r3, sl, r3
     a8c:	e5831020 	str	r1, [r3, #32]
     a90:	e5d3301c 	ldrb	r3, [r3, #28]
     a94:	e3530000 	cmp	r3, #0
     a98:	0affffb2 	beq	968 <runtime+0x534>
     a9c:	e3a0c002 	mov	ip, #2
     aa0:	e2822001 	add	r2, r2, #1
     aa4:	e5852000 	str	r2, [r5]
     aa8:	e59f28c0 	ldr	r2, [pc, #2240]	; 1370 <Len_IRQ_Stack+0x370>
     aac:	e5923000 	ldr	r3, [r2]
     ab0:	e2833001 	add	r3, r3, #1
     ab4:	e3a08000 	mov	r8, #0
     ab8:	e5823000 	str	r3, [r2]
     abc:	e581c100 	str	ip, [r1, #256]	; 0x100
     ac0:	eaffffa9 	b	96c <runtime+0x538>
     ac4:	e083c00e 	add	ip, r3, lr
     ac8:	e08ec08c 	add	ip, lr, ip, lsl #1
     acc:	e08ac10c 	add	ip, sl, ip, lsl #2
     ad0:	e5dc4705 	ldrb	r4, [ip, #1797]	; 0x705
     ad4:	e21440ff 	ands	r4, r4, #255	; 0xff
     ad8:	0a000003 	beq	aec <runtime+0x6b8>
     adc:	e5dcc706 	ldrb	ip, [ip, #1798]	; 0x706
     ae0:	e35c0000 	cmp	ip, #0
     ae4:	1affffdd 	bne	a60 <runtime+0x62c>
     ae8:	e3a04001 	mov	r4, #1
     aec:	e083c00e 	add	ip, r3, lr
     af0:	e08ec08c 	add	ip, lr, ip, lsl #1
     af4:	e08ac10c 	add	ip, sl, ip, lsl #2
     af8:	e591b0ec 	ldr	fp, [r1, #236]	; 0xec
     afc:	e5cc4704 	strb	r4, [ip, #1796]	; 0x704
     b00:	e35b0000 	cmp	fp, #0
     b04:	15d1c110 	ldrbne	ip, [r1, #272]	; 0x110
     b08:	15914118 	ldrne	r4, [r1, #280]	; 0x118
     b0c:	128cc002 	addne	ip, ip, #2
     b10:	1794c10c 	ldrne	ip, [r4, ip, lsl #2]
     b14:	0598c000 	ldreq	ip, [r8]
     b18:	e58dc018 	str	ip, [sp, #24]
     b1c:	e083c00e 	add	ip, r3, lr
     b20:	e08ec08c 	add	ip, lr, ip, lsl #1
     b24:	e08a810c 	add	r8, sl, ip, lsl #2
     b28:	e5d84704 	ldrb	r4, [r8, #1796]	; 0x704
     b2c:	e08cc004 	add	ip, ip, r4
     b30:	e28ccf6e 	add	ip, ip, #440	; 0x1b8
     b34:	e28cc002 	add	ip, ip, #2
     b38:	e79ac10c 	ldr	ip, [sl, ip, lsl #2]
     b3c:	e58dc020 	str	ip, [sp, #32]
     b40:	e5d8c6fc 	ldrb	ip, [r8, #1788]	; 0x6fc
     b44:	e1a04a0e 	lsl	r4, lr, #20
     b48:	e35c0000 	cmp	ip, #0
     b4c:	e1a0b004 	mov	fp, r4
     b50:	e2844425 	add	r4, r4, #620756992	; 0x25000000
     b54:	1a0002ce 	bne	1694 <Len_IRQ_Stack+0x694>
     b58:	e3a0c000 	mov	ip, #0
     b5c:	e59db018 	ldr	fp, [sp, #24]
     b60:	e58db018 	str	fp, [sp, #24]
     b64:	e58dc01c 	str	ip, [sp, #28]
     b68:	e59fc804 	ldr	ip, [pc, #2052]	; 1374 <Len_IRQ_Stack+0x374>
     b6c:	e096c00c 	adds	ip, r6, ip
     b70:	e58dc050 	str	ip, [sp, #80]	; 0x50
     b74:	e59dc004 	ldr	ip, [sp, #4]
     b78:	e2acc000 	adc	ip, ip, #0
     b7c:	e58dc054 	str	ip, [sp, #84]	; 0x54
     b80:	e28dc018 	add	ip, sp, #24
     b84:	e89c1800 	ldm	ip, {fp, ip}
     b88:	e584b008 	str	fp, [r4, #8]
     b8c:	e584c00c 	str	ip, [r4, #12]
     b90:	e28dc050 	add	ip, sp, #80	; 0x50
     b94:	e89c1800 	ldm	ip, {fp, ip}
     b98:	e584b010 	str	fp, [r4, #16]
     b9c:	e584c014 	str	ip, [r4, #20]
     ba0:	e3a0c903 	mov	ip, #49152	; 0xc000
     ba4:	e584c018 	str	ip, [r4, #24]
     ba8:	e3a0c001 	mov	ip, #1
     bac:	e5c4c007 	strb	ip, [r4, #7]
     bb0:	e5c8c6fc 	strb	ip, [r8, #1788]	; 0x6fc
     bb4:	e083c00e 	add	ip, r3, lr
     bb8:	e08ec08c 	add	ip, lr, ip, lsl #1
     bbc:	e08ac10c 	add	ip, sl, ip, lsl #2
     bc0:	e5dcc6fc 	ldrb	ip, [ip, #1788]	; 0x6fc
     bc4:	e35c0003 	cmp	ip, #3
     bc8:	1affffa4 	bne	a60 <runtime+0x62c>
     bcc:	e591c0ec 	ldr	ip, [r1, #236]	; 0xec
     bd0:	e35c0000 	cmp	ip, #0
     bd4:	0affffa1 	beq	a60 <runtime+0x62c>
     bd8:	e5914118 	ldr	r4, [r1, #280]	; 0x118
     bdc:	e5d1c110 	ldrb	ip, [r1, #272]	; 0x110
     be0:	e084400c 	add	r4, r4, ip
     be4:	e5d4c025 	ldrb	ip, [r4, #37]	; 0x25
     be8:	e24cc001 	sub	ip, ip, #1
     bec:	e20cc0ff 	and	ip, ip, #255	; 0xff
     bf0:	e5c4c025 	strb	ip, [r4, #37]	; 0x25
     bf4:	eaffff99 	b	a60 <runtime+0x62c>
     bf8:	e5d8c009 	ldrb	ip, [r8, #9]
     bfc:	e35c0003 	cmp	ip, #3
     c00:	e58dc038 	str	ip, [sp, #56]	; 0x38
     c04:	9a0001c7 	bls	1328 <Len_IRQ_Stack+0x328>
     c08:	e24c4006 	sub	r4, ip, #6
     c0c:	e274c000 	rsbs	ip, r4, #0
     c10:	e0acc004 	adc	ip, ip, r4
     c14:	e58dc018 	str	ip, [sp, #24]
     c18:	e591c0ec 	ldr	ip, [r1, #236]	; 0xec
     c1c:	e35c0000 	cmp	ip, #0
     c20:	0a0001ab 	beq	12d4 <Len_IRQ_Stack+0x2d4>
     c24:	e59dc014 	ldr	ip, [sp, #20]
     c28:	e083400e 	add	r4, r3, lr
     c2c:	e08eb084 	add	fp, lr, r4, lsl #1
     c30:	e08ac00c 	add	ip, sl, ip
     c34:	e5914118 	ldr	r4, [r1, #280]	; 0x118
     c38:	e08cc10b 	add	ip, ip, fp, lsl #2
     c3c:	e154000c 	cmp	r4, ip
     c40:	e5d1c110 	ldrb	ip, [r1, #272]	; 0x110
     c44:	0a0001be 	beq	1344 <Len_IRQ_Stack+0x344>
     c48:	e28cc002 	add	ip, ip, #2
     c4c:	e794c10c 	ldr	ip, [r4, ip, lsl #2]
     c50:	e58dc03c 	str	ip, [sp, #60]	; 0x3c
     c54:	e3a0c000 	mov	ip, #0
     c58:	e58dc020 	str	ip, [sp, #32]
     c5c:	e59dc018 	ldr	ip, [sp, #24]
     c60:	e35c0000 	cmp	ip, #0
     c64:	058dc028 	streq	ip, [sp, #40]	; 0x28
     c68:	058dc040 	streq	ip, [sp, #64]	; 0x40
     c6c:	0a000010 	beq	cb4 <runtime+0x880>
     c70:	e591c0f0 	ldr	ip, [r1, #240]	; 0xf0
     c74:	e35c0000 	cmp	ip, #0
     c78:	0a0001ad 	beq	1334 <Len_IRQ_Stack+0x334>
     c7c:	e59d4014 	ldr	r4, [sp, #20]
     c80:	e083c00e 	add	ip, r3, lr
     c84:	e08ec08c 	add	ip, lr, ip, lsl #1
     c88:	e08a4004 	add	r4, sl, r4
     c8c:	e591b11c 	ldr	fp, [r1, #284]	; 0x11c
     c90:	e084410c 	add	r4, r4, ip, lsl #2
     c94:	e15b0004 	cmp	fp, r4
     c98:	e5d14111 	ldrb	r4, [r1, #273]	; 0x111
     c9c:	0a0002cb 	beq	17d0 <Len_IRQ_Stack+0x7d0>
     ca0:	e2844002 	add	r4, r4, #2
     ca4:	e79bc104 	ldr	ip, [fp, r4, lsl #2]
     ca8:	e58dc040 	str	ip, [sp, #64]	; 0x40
     cac:	e3a0c000 	mov	ip, #0
     cb0:	e58dc028 	str	ip, [sp, #40]	; 0x28
     cb4:	e083c00e 	add	ip, r3, lr
     cb8:	e08ec08c 	add	ip, lr, ip, lsl #1
     cbc:	e08ac10c 	add	ip, sl, ip, lsl #2
     cc0:	e5dc454d 	ldrb	r4, [ip, #1357]	; 0x54d
     cc4:	e21440ff 	ands	r4, r4, #255	; 0xff
     cc8:	e58d4034 	str	r4, [sp, #52]	; 0x34
     ccc:	1a000152 	bne	121c <Len_IRQ_Stack+0x21c>
     cd0:	e59db020 	ldr	fp, [sp, #32]
     cd4:	e35b0000 	cmp	fp, #0
     cd8:	0a00014d 	beq	1214 <Len_IRQ_Stack+0x214>
     cdc:	e59d4028 	ldr	r4, [sp, #40]	; 0x28
     ce0:	e3540000 	cmp	r4, #0
     ce4:	e59db018 	ldr	fp, [sp, #24]
     ce8:	13a0b000 	movne	fp, #0
     cec:	e35b0000 	cmp	fp, #0
     cf0:	0a0002bf 	beq	17f4 <Len_IRQ_Stack+0x7f4>
     cf4:	e59c4530 	ldr	r4, [ip, #1328]	; 0x530
     cf8:	e58d4028 	str	r4, [sp, #40]	; 0x28
     cfc:	e5dc454e 	ldrb	r4, [ip, #1358]	; 0x54e
     d00:	e3540000 	cmp	r4, #0
     d04:	0a0000ce 	beq	1044 <Len_IRQ_Stack+0x44>
     d08:	e5dc454f 	ldrb	r4, [ip, #1359]	; 0x54f
     d0c:	e3540000 	cmp	r4, #0
     d10:	1a0000d9 	bne	107c <Len_IRQ_Stack+0x7c>
     d14:	e59d4028 	ldr	r4, [sp, #40]	; 0x28
     d18:	e3540000 	cmp	r4, #0
     d1c:	e59dc018 	ldr	ip, [sp, #24]
     d20:	13a0c000 	movne	ip, #0
     d24:	e35c0000 	cmp	ip, #0
     d28:	0a0003c7 	beq	1c4c <Len_IRQ_Stack+0xc4c>
     d2c:	e083c00e 	add	ip, r3, lr
     d30:	e08ec08c 	add	ip, lr, ip, lsl #1
     d34:	e08ac10c 	add	ip, sl, ip, lsl #2
     d38:	e59c4538 	ldr	r4, [ip, #1336]	; 0x538
     d3c:	e5dcc550 	ldrb	ip, [ip, #1360]	; 0x550
     d40:	e35c0000 	cmp	ip, #0
     d44:	e58d4028 	str	r4, [sp, #40]	; 0x28
     d48:	1affff44 	bne	a60 <runtime+0x62c>
     d4c:	e59d4028 	ldr	r4, [sp, #40]	; 0x28
     d50:	e3540000 	cmp	r4, #0
     d54:	e59dc018 	ldr	ip, [sp, #24]
     d58:	13a0c000 	movne	ip, #0
     d5c:	e35c0000 	cmp	ip, #0
     d60:	0a0003bc 	beq	1c58 <Len_IRQ_Stack+0xc58>
     d64:	e083c00e 	add	ip, r3, lr
     d68:	e08ec08c 	add	ip, lr, ip, lsl #1
     d6c:	e08ac10c 	add	ip, sl, ip, lsl #2
     d70:	e59cc53c 	ldr	ip, [ip, #1340]	; 0x53c
     d74:	eaffff39 	b	a60 <runtime+0x62c>
     d78:	e083c00e 	add	ip, r3, lr
     d7c:	e08ec08c 	add	ip, lr, ip, lsl #1
     d80:	e08ac10c 	add	ip, sl, ip, lsl #2
     d84:	e5dc4395 	ldrb	r4, [ip, #917]	; 0x395
     d88:	e21440ff 	ands	r4, r4, #255	; 0xff
     d8c:	0a000003 	beq	da0 <runtime+0x96c>
     d90:	e5dcc396 	ldrb	ip, [ip, #918]	; 0x396
     d94:	e35c0000 	cmp	ip, #0
     d98:	1affff30 	bne	a60 <runtime+0x62c>
     d9c:	e3a04001 	mov	r4, #1
     da0:	e083c00e 	add	ip, r3, lr
     da4:	e08ec08c 	add	ip, lr, ip, lsl #1
     da8:	e08ac10c 	add	ip, sl, ip, lsl #2
     dac:	e591b0ec 	ldr	fp, [r1, #236]	; 0xec
     db0:	e5cc4394 	strb	r4, [ip, #916]	; 0x394
     db4:	e35b0000 	cmp	fp, #0
     db8:	15d1c110 	ldrbne	ip, [r1, #272]	; 0x110
     dbc:	15914118 	ldrne	r4, [r1, #280]	; 0x118
     dc0:	128cc002 	addne	ip, ip, #2
     dc4:	1794c10c 	ldrne	ip, [r4, ip, lsl #2]
     dc8:	0598c000 	ldreq	ip, [r8]
     dcc:	e58dc020 	str	ip, [sp, #32]
     dd0:	e083c00e 	add	ip, r3, lr
     dd4:	e08ec08c 	add	ip, lr, ip, lsl #1
     dd8:	e08ab10c 	add	fp, sl, ip, lsl #2
     ddc:	e5db4394 	ldrb	r4, [fp, #916]	; 0x394
     de0:	e08cc004 	add	ip, ip, r4
     de4:	e28cc0de 	add	ip, ip, #222	; 0xde
     de8:	e79ac10c 	ldr	ip, [sl, ip, lsl #2]
     dec:	e58dc028 	str	ip, [sp, #40]	; 0x28
     df0:	e5dbc38c 	ldrb	ip, [fp, #908]	; 0x38c
     df4:	e1a04a0e 	lsl	r4, lr, #20
     df8:	e35c0000 	cmp	ip, #0
     dfc:	e58db018 	str	fp, [sp, #24]
     e00:	e1a0b004 	mov	fp, r4
     e04:	e2844423 	add	r4, r4, #587202560	; 0x23000000
     e08:	1a000251 	bne	1754 <Len_IRQ_Stack+0x754>
     e0c:	e3a0c000 	mov	ip, #0
     e10:	e59db020 	ldr	fp, [sp, #32]
     e14:	e58db020 	str	fp, [sp, #32]
     e18:	e58dc024 	str	ip, [sp, #36]	; 0x24
     e1c:	e59fc554 	ldr	ip, [pc, #1364]	; 1378 <Len_IRQ_Stack+0x378>
     e20:	e096c00c 	adds	ip, r6, ip
     e24:	e58dc060 	str	ip, [sp, #96]	; 0x60
     e28:	e59dc004 	ldr	ip, [sp, #4]
     e2c:	e2acc000 	adc	ip, ip, #0
     e30:	e58dc064 	str	ip, [sp, #100]	; 0x64
     e34:	e28dc020 	add	ip, sp, #32
     e38:	e89c1800 	ldm	ip, {fp, ip}
     e3c:	e584b008 	str	fp, [r4, #8]
     e40:	e584c00c 	str	ip, [r4, #12]
     e44:	e28dc060 	add	ip, sp, #96	; 0x60
     e48:	e89c1800 	ldm	ip, {fp, ip}
     e4c:	e3a08001 	mov	r8, #1
     e50:	e584b010 	str	fp, [r4, #16]
     e54:	e584c014 	str	ip, [r4, #20]
     e58:	e3a0c801 	mov	ip, #65536	; 0x10000
     e5c:	e59db018 	ldr	fp, [sp, #24]
     e60:	e584c018 	str	ip, [r4, #24]
     e64:	e5c48007 	strb	r8, [r4, #7]
     e68:	e5cb838c 	strb	r8, [fp, #908]	; 0x38c
     e6c:	e083c00e 	add	ip, r3, lr
     e70:	e08ec08c 	add	ip, lr, ip, lsl #1
     e74:	e08ac10c 	add	ip, sl, ip, lsl #2
     e78:	e5dcc38c 	ldrb	ip, [ip, #908]	; 0x38c
     e7c:	e35c0003 	cmp	ip, #3
     e80:	1afffef6 	bne	a60 <runtime+0x62c>
     e84:	eaffff50 	b	bcc <runtime+0x798>
     e88:	e083c00e 	add	ip, r3, lr
     e8c:	e08ec08c 	add	ip, lr, ip, lsl #1
     e90:	e08ac10c 	add	ip, sl, ip, lsl #2
     e94:	e5dc4a75 	ldrb	r4, [ip, #2677]	; 0xa75
     e98:	e21440ff 	ands	r4, r4, #255	; 0xff
     e9c:	0a000003 	beq	eb0 <runtime+0xa7c>
     ea0:	e5dcca76 	ldrb	ip, [ip, #2678]	; 0xa76
     ea4:	e35c0000 	cmp	ip, #0
     ea8:	1afffeec 	bne	a60 <runtime+0x62c>
     eac:	e3a04001 	mov	r4, #1
     eb0:	e083c00e 	add	ip, r3, lr
     eb4:	e08ec08c 	add	ip, lr, ip, lsl #1
     eb8:	e08ac10c 	add	ip, sl, ip, lsl #2
     ebc:	e591b0ec 	ldr	fp, [r1, #236]	; 0xec
     ec0:	e5cc4a74 	strb	r4, [ip, #2676]	; 0xa74
     ec4:	e35b0000 	cmp	fp, #0
     ec8:	15d1c110 	ldrbne	ip, [r1, #272]	; 0x110
     ecc:	15914118 	ldrne	r4, [r1, #280]	; 0x118
     ed0:	128cc002 	addne	ip, ip, #2
     ed4:	1794c10c 	ldrne	ip, [r4, ip, lsl #2]
     ed8:	0598c000 	ldreq	ip, [r8]
     edc:	e58dc020 	str	ip, [sp, #32]
     ee0:	e083c00e 	add	ip, r3, lr
     ee4:	e08ec08c 	add	ip, lr, ip, lsl #1
     ee8:	e08a810c 	add	r8, sl, ip, lsl #2
     eec:	e5d84a74 	ldrb	r4, [r8, #2676]	; 0xa74
     ef0:	e08cc004 	add	ip, ip, r4
     ef4:	e28ccfa5 	add	ip, ip, #660	; 0x294
     ef8:	e28cc002 	add	ip, ip, #2
     efc:	e79ac10c 	ldr	ip, [sl, ip, lsl #2]
     f00:	e5d84a6c 	ldrb	r4, [r8, #2668]	; 0xa6c
     f04:	e58dc028 	str	ip, [sp, #40]	; 0x28
     f08:	e3540000 	cmp	r4, #0
     f0c:	e1a0ca0e 	lsl	ip, lr, #20
     f10:	e58d8018 	str	r8, [sp, #24]
     f14:	e28c8427 	add	r8, ip, #654311424	; 0x27000000
     f18:	1a0001f4 	bne	16f0 <Len_IRQ_Stack+0x6f0>
     f1c:	e3a0c000 	mov	ip, #0
     f20:	e3a04001 	mov	r4, #1
     f24:	e59db020 	ldr	fp, [sp, #32]
     f28:	e58db020 	str	fp, [sp, #32]
     f2c:	e58dc024 	str	ip, [sp, #36]	; 0x24
     f30:	e59fc444 	ldr	ip, [pc, #1092]	; 137c <Len_IRQ_Stack+0x37c>
     f34:	e096c00c 	adds	ip, r6, ip
     f38:	e58dc058 	str	ip, [sp, #88]	; 0x58
     f3c:	e59dc004 	ldr	ip, [sp, #4]
     f40:	e2acc000 	adc	ip, ip, #0
     f44:	e58dc05c 	str	ip, [sp, #92]	; 0x5c
     f48:	e28dc020 	add	ip, sp, #32
     f4c:	e89c1800 	ldm	ip, {fp, ip}
     f50:	e588b008 	str	fp, [r8, #8]
     f54:	e588c00c 	str	ip, [r8, #12]
     f58:	e28dc058 	add	ip, sp, #88	; 0x58
     f5c:	e89c1800 	ldm	ip, {fp, ip}
     f60:	e588b010 	str	fp, [r8, #16]
     f64:	e588c014 	str	ip, [r8, #20]
     f68:	e59fc410 	ldr	ip, [pc, #1040]	; 1380 <Len_IRQ_Stack+0x380>
     f6c:	e588c018 	str	ip, [r8, #24]
     f70:	e5c84007 	strb	r4, [r8, #7]
     f74:	e59d8018 	ldr	r8, [sp, #24]
     f78:	e5c84a6c 	strb	r4, [r8, #2668]	; 0xa6c
     f7c:	e083c00e 	add	ip, r3, lr
     f80:	e08ec08c 	add	ip, lr, ip, lsl #1
     f84:	e08ac10c 	add	ip, sl, ip, lsl #2
     f88:	e5dcca6c 	ldrb	ip, [ip, #2668]	; 0xa6c
     f8c:	e35c0003 	cmp	ip, #3
     f90:	1afffeb2 	bne	a60 <runtime+0x62c>
     f94:	eaffff0c 	b	bcc <runtime+0x798>
     f98:	e591c0ec 	ldr	ip, [r1, #236]	; 0xec
     f9c:	e35c0000 	cmp	ip, #0
     fa0:	e083c00e 	add	ip, r3, lr
     fa4:	e08ec08c 	add	ip, lr, ip, lsl #1
     fa8:	0a0000bc 	beq	12a0 <Len_IRQ_Stack+0x2a0>
     fac:	e1a0410c 	lsl	r4, ip, #2
     fb0:	e58dc018 	str	ip, [sp, #24]
     fb4:	e59dc014 	ldr	ip, [sp, #20]
     fb8:	e591b118 	ldr	fp, [r1, #280]	; 0x118
     fbc:	e08ac00c 	add	ip, sl, ip
     fc0:	e08cc004 	add	ip, ip, r4
     fc4:	e15b000c 	cmp	fp, ip
     fc8:	e5d1c110 	ldrb	ip, [r1, #272]	; 0x110
     fcc:	0a000104 	beq	13e4 <Len_IRQ_Stack+0x3e4>
     fd0:	e28cc002 	add	ip, ip, #2
     fd4:	e79bc10c 	ldr	ip, [fp, ip, lsl #2]
     fd8:	e08a4004 	add	r4, sl, r4
     fdc:	e58dc020 	str	ip, [sp, #32]
     fe0:	e5d4c1dd 	ldrb	ip, [r4, #477]	; 0x1dd
     fe4:	e35c0000 	cmp	ip, #0
     fe8:	0a0000be 	beq	12e8 <Len_IRQ_Stack+0x2e8>
     fec:	e5d4c1de 	ldrb	ip, [r4, #478]	; 0x1de
     ff0:	e35c0000 	cmp	ip, #0
     ff4:	1a00018b 	bne	1628 <Len_IRQ_Stack+0x628>
     ff8:	e083c00e 	add	ip, r3, lr
     ffc:	e08ec08c 	add	ip, lr, ip, lsl #1
    1000:	e08ac10c 	add	ip, sl, ip, lsl #2
    1004:	e59cc1c4 	ldr	ip, [ip, #452]	; 0x1c4
    1008:	e58dc018 	str	ip, [sp, #24]
    100c:	e083c00e 	add	ip, r3, lr
    1010:	e08ec08c 	add	ip, lr, ip, lsl #1
    1014:	e08ac10c 	add	ip, sl, ip, lsl #2
    1018:	e5dcc1df 	ldrb	ip, [ip, #479]	; 0x1df
    101c:	e35c0000 	cmp	ip, #0
    1020:	1afffe8e 	bne	a60 <runtime+0x62c>
    1024:	e59dc018 	ldr	ip, [sp, #24]
    1028:	e35c0000 	cmp	ip, #0
    102c:	1a000304 	bne	1c44 <Len_IRQ_Stack+0xc44>
    1030:	e083c00e 	add	ip, r3, lr
    1034:	e08ec08c 	add	ip, lr, ip, lsl #1
    1038:	e08ac10c 	add	ip, sl, ip, lsl #2
    103c:	e59cc1c8 	ldr	ip, [ip, #456]	; 0x1c8
    1040:	eafffe86 	b	a60 <runtime+0x62c>
    1044:	e59d4028 	ldr	r4, [sp, #40]	; 0x28
    1048:	e3540000 	cmp	r4, #0
    104c:	e59dc018 	ldr	ip, [sp, #24]
    1050:	13a0c000 	movne	ip, #0
    1054:	e35c0000 	cmp	ip, #0
    1058:	0a0001e3 	beq	17ec <Len_IRQ_Stack+0x7ec>
    105c:	e083c00e 	add	ip, r3, lr
    1060:	e08ec08c 	add	ip, lr, ip, lsl #1
    1064:	e08ac10c 	add	ip, sl, ip, lsl #2
    1068:	e59c4534 	ldr	r4, [ip, #1332]	; 0x534
    106c:	e58d4028 	str	r4, [sp, #40]	; 0x28
    1070:	e5dc454f 	ldrb	r4, [ip, #1359]	; 0x54f
    1074:	e3540000 	cmp	r4, #0
    1078:	0affff25 	beq	d14 <runtime+0x8e0>
    107c:	e5dcc550 	ldrb	ip, [ip, #1360]	; 0x550
    1080:	e35c0000 	cmp	ip, #0
    1084:	0affff30 	beq	d4c <runtime+0x918>
    1088:	eafffe74 	b	a60 <runtime+0x62c>
    108c:	e591c008 	ldr	ip, [r1, #8]
    1090:	e35c0000 	cmp	ip, #0
    1094:	dafffe78 	ble	a7c <runtime+0x648>
    1098:	e1a08004 	mov	r8, r4
    109c:	e281400c 	add	r4, r1, #12
    10a0:	e084c10c 	add	ip, r4, ip, lsl #2
    10a4:	e58d2018 	str	r2, [sp, #24]
    10a8:	e58de020 	str	lr, [sp, #32]
    10ac:	e58d5028 	str	r5, [sp, #40]	; 0x28
    10b0:	e59db004 	ldr	fp, [sp, #4]
    10b4:	ea00000d 	b	10f0 <Len_IRQ_Stack+0xf0>
    10b8:	e592e0dc 	ldr	lr, [r2, #220]	; 0xdc
    10bc:	e151000e 	cmp	r1, lr
    10c0:	0a00001b 	beq	1134 <Len_IRQ_Stack+0x134>
    10c4:	e592e0e0 	ldr	lr, [r2, #224]	; 0xe0
    10c8:	e151000e 	cmp	r1, lr
    10cc:	0a000025 	beq	1168 <Len_IRQ_Stack+0x168>
    10d0:	e592e0e4 	ldr	lr, [r2, #228]	; 0xe4
    10d4:	e151000e 	cmp	r1, lr
    10d8:	0a00002f 	beq	119c <Len_IRQ_Stack+0x19c>
    10dc:	e592e0e8 	ldr	lr, [r2, #232]	; 0xe8
    10e0:	e151000e 	cmp	r1, lr
    10e4:	0a000039 	beq	11d0 <Len_IRQ_Stack+0x1d0>
    10e8:	e154000c 	cmp	r4, ip
    10ec:	0a000043 	beq	1200 <Len_IRQ_Stack+0x200>
    10f0:	e5b42004 	ldr	r2, [r4, #4]!
    10f4:	e592e0d8 	ldr	lr, [r2, #216]	; 0xd8
    10f8:	e151000e 	cmp	r1, lr
    10fc:	1affffed 	bne	10b8 <Len_IRQ_Stack+0xb8>
    1100:	e592e0ec 	ldr	lr, [r2, #236]	; 0xec
    1104:	e35e0000 	cmp	lr, #0
    1108:	0affffea 	beq	10b8 <Len_IRQ_Stack+0xb8>
    110c:	e08ae008 	add	lr, sl, r8
    1110:	e5de5024 	ldrb	r5, [lr, #36]	; 0x24
    1114:	e08ee005 	add	lr, lr, r5
    1118:	e5de5025 	ldrb	r5, [lr, #37]	; 0x25
    111c:	e2855001 	add	r5, r5, #1
    1120:	e20550ff 	and	r5, r5, #255	; 0xff
    1124:	e5ce5025 	strb	r5, [lr, #37]	; 0x25
    1128:	e592e0dc 	ldr	lr, [r2, #220]	; 0xdc
    112c:	e151000e 	cmp	r1, lr
    1130:	1affffe3 	bne	10c4 <Len_IRQ_Stack+0xc4>
    1134:	e592e0f0 	ldr	lr, [r2, #240]	; 0xf0
    1138:	e35e0000 	cmp	lr, #0
    113c:	0affffe0 	beq	10c4 <Len_IRQ_Stack+0xc4>
    1140:	e08ae008 	add	lr, sl, r8
    1144:	e5de5024 	ldrb	r5, [lr, #36]	; 0x24
    1148:	e08ee005 	add	lr, lr, r5
    114c:	e5de5025 	ldrb	r5, [lr, #37]	; 0x25
    1150:	e2855001 	add	r5, r5, #1
    1154:	e20550ff 	and	r5, r5, #255	; 0xff
    1158:	e5ce5025 	strb	r5, [lr, #37]	; 0x25
    115c:	e592e0e0 	ldr	lr, [r2, #224]	; 0xe0
    1160:	e151000e 	cmp	r1, lr
    1164:	1affffd9 	bne	10d0 <Len_IRQ_Stack+0xd0>
    1168:	e592e0f4 	ldr	lr, [r2, #244]	; 0xf4
    116c:	e35e0000 	cmp	lr, #0
    1170:	0affffd6 	beq	10d0 <Len_IRQ_Stack+0xd0>
    1174:	e08ae008 	add	lr, sl, r8
    1178:	e5de5024 	ldrb	r5, [lr, #36]	; 0x24
    117c:	e08ee005 	add	lr, lr, r5
    1180:	e5de5025 	ldrb	r5, [lr, #37]	; 0x25
    1184:	e2855001 	add	r5, r5, #1
    1188:	e20550ff 	and	r5, r5, #255	; 0xff
    118c:	e5ce5025 	strb	r5, [lr, #37]	; 0x25
    1190:	e592e0e4 	ldr	lr, [r2, #228]	; 0xe4
    1194:	e151000e 	cmp	r1, lr
    1198:	1affffcf 	bne	10dc <Len_IRQ_Stack+0xdc>
    119c:	e592e0f8 	ldr	lr, [r2, #248]	; 0xf8
    11a0:	e35e0000 	cmp	lr, #0
    11a4:	0affffcc 	beq	10dc <Len_IRQ_Stack+0xdc>
    11a8:	e08ae008 	add	lr, sl, r8
    11ac:	e5de5024 	ldrb	r5, [lr, #36]	; 0x24
    11b0:	e08ee005 	add	lr, lr, r5
    11b4:	e5de5025 	ldrb	r5, [lr, #37]	; 0x25
    11b8:	e2855001 	add	r5, r5, #1
    11bc:	e20550ff 	and	r5, r5, #255	; 0xff
    11c0:	e5ce5025 	strb	r5, [lr, #37]	; 0x25
    11c4:	e592e0e8 	ldr	lr, [r2, #232]	; 0xe8
    11c8:	e151000e 	cmp	r1, lr
    11cc:	1affffc5 	bne	10e8 <Len_IRQ_Stack+0xe8>
    11d0:	e59220fc 	ldr	r2, [r2, #252]	; 0xfc
    11d4:	e3520000 	cmp	r2, #0
    11d8:	0affffc2 	beq	10e8 <Len_IRQ_Stack+0xe8>
    11dc:	e08a2008 	add	r2, sl, r8
    11e0:	e5d2e024 	ldrb	lr, [r2, #36]	; 0x24
    11e4:	e082200e 	add	r2, r2, lr
    11e8:	e5d2e025 	ldrb	lr, [r2, #37]	; 0x25
    11ec:	e28ee001 	add	lr, lr, #1
    11f0:	e20ee0ff 	and	lr, lr, #255	; 0xff
    11f4:	e154000c 	cmp	r4, ip
    11f8:	e5c2e025 	strb	lr, [r2, #37]	; 0x25
    11fc:	1affffbb 	bne	10f0 <Len_IRQ_Stack+0xf0>
    1200:	e59d2018 	ldr	r2, [sp, #24]
    1204:	e59de020 	ldr	lr, [sp, #32]
    1208:	e59d5028 	ldr	r5, [sp, #40]	; 0x28
    120c:	e58db004 	str	fp, [sp, #4]
    1210:	eafffe19 	b	a7c <runtime+0x648>
    1214:	e59cc530 	ldr	ip, [ip, #1328]	; 0x530
    1218:	e58dc020 	str	ip, [sp, #32]
    121c:	e083c00e 	add	ip, r3, lr
    1220:	e08ec08c 	add	ip, lr, ip, lsl #1
    1224:	e08ac10c 	add	ip, sl, ip, lsl #2
    1228:	e5dc454e 	ldrb	r4, [ip, #1358]	; 0x54e
    122c:	e3540000 	cmp	r4, #0
    1230:	1a000004 	bne	1248 <Len_IRQ_Stack+0x248>
    1234:	e59d4020 	ldr	r4, [sp, #32]
    1238:	e3540000 	cmp	r4, #0
    123c:	1affff80 	bne	1044 <Len_IRQ_Stack+0x44>
    1240:	e59cc534 	ldr	ip, [ip, #1332]	; 0x534
    1244:	e58dc020 	str	ip, [sp, #32]
    1248:	e083c00e 	add	ip, r3, lr
    124c:	e08ec08c 	add	ip, lr, ip, lsl #1
    1250:	e08ac10c 	add	ip, sl, ip, lsl #2
    1254:	e5dc454f 	ldrb	r4, [ip, #1359]	; 0x54f
    1258:	e3540000 	cmp	r4, #0
    125c:	1a000004 	bne	1274 <Len_IRQ_Stack+0x274>
    1260:	e59d4020 	ldr	r4, [sp, #32]
    1264:	e3540000 	cmp	r4, #0
    1268:	1afffea9 	bne	d14 <runtime+0x8e0>
    126c:	e59cc538 	ldr	ip, [ip, #1336]	; 0x538
    1270:	e58dc020 	str	ip, [sp, #32]
    1274:	e083c00e 	add	ip, r3, lr
    1278:	e08ec08c 	add	ip, lr, ip, lsl #1
    127c:	e08ac10c 	add	ip, sl, ip, lsl #2
    1280:	e5dc4550 	ldrb	r4, [ip, #1360]	; 0x550
    1284:	e3540000 	cmp	r4, #0
    1288:	1afffdf4 	bne	a60 <runtime+0x62c>
    128c:	e59d4020 	ldr	r4, [sp, #32]
    1290:	e3540000 	cmp	r4, #0
    1294:	059cc53c 	ldreq	ip, [ip, #1340]	; 0x53c
    1298:	0afffdf0 	beq	a60 <runtime+0x62c>
    129c:	eafffeaa 	b	d4c <runtime+0x918>
    12a0:	e08ac10c 	add	ip, sl, ip, lsl #2
    12a4:	e5dc41dd 	ldrb	r4, [ip, #477]	; 0x1dd
    12a8:	e3540000 	cmp	r4, #0
    12ac:	e5984000 	ldr	r4, [r8]
    12b0:	e58d4020 	str	r4, [sp, #32]
    12b4:	0a00000b 	beq	12e8 <Len_IRQ_Stack+0x2e8>
    12b8:	e5dc41de 	ldrb	r4, [ip, #478]	; 0x1de
    12bc:	e3540000 	cmp	r4, #0
    12c0:	0affff4c 	beq	ff8 <runtime+0xbc4>
    12c4:	e5dcc1df 	ldrb	ip, [ip, #479]	; 0x1df
    12c8:	e35c0000 	cmp	ip, #0
    12cc:	0affff57 	beq	1030 <Len_IRQ_Stack+0x30>
    12d0:	eafffde2 	b	a60 <runtime+0x62c>
    12d4:	e58dc020 	str	ip, [sp, #32]
    12d8:	e598c000 	ldr	ip, [r8]
    12dc:	e58dc03c 	str	ip, [sp, #60]	; 0x3c
    12e0:	eafffe5d 	b	c5c <runtime+0x828>
    12e4:	e58dc020 	str	ip, [sp, #32]
    12e8:	e083c00e 	add	ip, r3, lr
    12ec:	e08ec08c 	add	ip, lr, ip, lsl #1
    12f0:	e08ac10c 	add	ip, sl, ip, lsl #2
    12f4:	e59cc1c0 	ldr	ip, [ip, #448]	; 0x1c0
    12f8:	e58dc018 	str	ip, [sp, #24]
    12fc:	e083c00e 	add	ip, r3, lr
    1300:	e08ec08c 	add	ip, lr, ip, lsl #1
    1304:	e08ac10c 	add	ip, sl, ip, lsl #2
    1308:	e5dcc1de 	ldrb	ip, [ip, #478]	; 0x1de
    130c:	e35c0000 	cmp	ip, #0
    1310:	1affff3d 	bne	100c <Len_IRQ_Stack+0xc>
    1314:	e59dc018 	ldr	ip, [sp, #24]
    1318:	e35c0000 	cmp	ip, #0
    131c:	0affff35 	beq	ff8 <runtime+0xbc4>
    1320:	e3a04001 	mov	r4, #1
    1324:	ea00003d 	b	1420 <Len_IRQ_Stack+0x420>
    1328:	e3a0c001 	mov	ip, #1
    132c:	e58dc018 	str	ip, [sp, #24]
    1330:	eafffe38 	b	c18 <runtime+0x7e4>
    1334:	e58dc028 	str	ip, [sp, #40]	; 0x28
    1338:	e598c004 	ldr	ip, [r8, #4]
    133c:	e58dc040 	str	ip, [sp, #64]	; 0x40
    1340:	eafffe5b 	b	cb4 <runtime+0x880>
    1344:	e08bc00c 	add	ip, fp, ip
    1348:	e28ccf53 	add	ip, ip, #332	; 0x14c
    134c:	e79ac10c 	ldr	ip, [sl, ip, lsl #2]
    1350:	e58dc020 	str	ip, [sp, #32]
    1354:	e3a0c000 	mov	ip, #0
    1358:	e58dc03c 	str	ip, [sp, #60]	; 0x3c
    135c:	eafffe3e 	b	c5c <runtime+0x828>
    1360:	80000004 	andhi	r0, r0, r4
    1364:	800000ac 	andhi	r0, r0, ip, lsr #1
    1368:	80000a98 	mulhi	r0, r8, sl
    136c:	00000c08 	andeq	r0, r0, r8, lsl #24
    1370:	80000a90 	mulhi	r0, r0, sl
    1374:	25000020 	strcs	r0, [r0, #-32]	; 0xffffffe0
    1378:	23000020 	movwcs	r0, #32
    137c:	27000020 	strcs	r0, [r0, -r0, lsr #32]
    1380:	00004204 	andeq	r4, r0, r4, lsl #4
    1384:	26000020 	strcs	r0, [r0], -r0, lsr #32
    1388:	00006d90 	muleq	r0, r0, sp
    138c:	230180a8 	movwcs	r8, #4264	; 0x10a8
    1390:	230180b8 	movwcs	r8, #4280	; 0x10b8
    1394:	230180c8 	movwcs	r8, #4296	; 0x10c8
    1398:	2701c238 	smladxcs	r1, r8, r2, ip
    139c:	2701c248 	strcs	ip, [r1, -r8, asr #4]
    13a0:	2502c028 	strcs	ip, [r2, #-40]	; 0xffffffd8
    13a4:	2502c030 	strcs	ip, [r2, #-48]	; 0xffffffd0
    13a8:	26030028 	strcs	r0, [r3], -r8, lsr #32
    13ac:	22030098 	andcs	r0, r3, #152	; 0x98
    13b0:	220300a8 	andcs	r0, r3, #168	; 0xa8
    13b4:	220300b0 	andcs	r0, r3, #176	; 0xb0
    13b8:	220300c0 	andcs	r0, r3, #192	; 0xc0
    13bc:	220300c8 	andcs	r0, r3, #200	; 0xc8
    13c0:	24040028 	strcs	r0, [r4], #-40	; 0xffffffd8
    13c4:	24040038 	strcs	r0, [r4], #-56	; 0xffffffc8
    13c8:	24040050 	strcs	r0, [r4], #-80	; 0xffffffb0
    13cc:	24040058 	strcs	r0, [r4], #-88	; 0xffffffa8
    13d0:	22030020 	andcs	r0, r3, #32
    13d4:	21000020 	tstcs	r0, r0, lsr #32
    13d8:	21010020 	tstcs	r1, r0, lsr #32
    13dc:	21040028 	tstcs	r4, r8, lsr #32
    13e0:	21040038 	tstcs	r4, r8, lsr r0
    13e4:	e59db018 	ldr	fp, [sp, #24]
    13e8:	e08bc00c 	add	ip, fp, ip
    13ec:	e28cc070 	add	ip, ip, #112	; 0x70
    13f0:	e79ac10c 	ldr	ip, [sl, ip, lsl #2]
    13f4:	e08a4004 	add	r4, sl, r4
    13f8:	e58dc018 	str	ip, [sp, #24]
    13fc:	e5d4c1dd 	ldrb	ip, [r4, #477]	; 0x1dd
    1400:	e21c40ff 	ands	r4, ip, #255	; 0xff
    1404:	13a0c000 	movne	ip, #0
    1408:	158dc020 	strne	ip, [sp, #32]
    140c:	1affffba 	bne	12fc <Len_IRQ_Stack+0x2fc>
    1410:	e59dc018 	ldr	ip, [sp, #24]
    1414:	e35c0000 	cmp	ip, #0
    1418:	158d4020 	strne	r4, [sp, #32]
    141c:	0affffb0 	beq	12e4 <Len_IRQ_Stack+0x2e4>
    1420:	e083c00e 	add	ip, r3, lr
    1424:	e08ec08c 	add	ip, lr, ip, lsl #1
    1428:	e08ab10c 	add	fp, sl, ip, lsl #2
    142c:	e58dc028 	str	ip, [sp, #40]	; 0x28
    1430:	e598c004 	ldr	ip, [r8, #4]
    1434:	e5cb41dc 	strb	r4, [fp, #476]	; 0x1dc
    1438:	e58dc03c 	str	ip, [sp, #60]	; 0x3c
    143c:	e5db41dc 	ldrb	r4, [fp, #476]	; 0x1dc
    1440:	e59dc028 	ldr	ip, [sp, #40]	; 0x28
    1444:	e08cc004 	add	ip, ip, r4
    1448:	e28cc070 	add	ip, ip, #112	; 0x70
    144c:	e79ac10c 	ldr	ip, [sl, ip, lsl #2]
    1450:	e58dc038 	str	ip, [sp, #56]	; 0x38
    1454:	e5dbc1d4 	ldrb	ip, [fp, #468]	; 0x1d4
    1458:	e35c0000 	cmp	ip, #0
    145c:	e598c008 	ldr	ip, [r8, #8]
    1460:	e58dc028 	str	ip, [sp, #40]	; 0x28
    1464:	e598c00c 	ldr	ip, [r8, #12]
    1468:	e58dc034 	str	ip, [sp, #52]	; 0x34
    146c:	e5d8c010 	ldrb	ip, [r8, #16]
    1470:	e1a04a0e 	lsl	r4, lr, #20
    1474:	e58d404c 	str	r4, [sp, #76]	; 0x4c
    1478:	e58dc040 	str	ip, [sp, #64]	; 0x40
    147c:	e2844422 	add	r4, r4, #570425344	; 0x22000000
    1480:	1a000004 	bne	1498 <Len_IRQ_Stack+0x498>
    1484:	e3a08001 	mov	r8, #1
    1488:	e59dc020 	ldr	ip, [sp, #32]
    148c:	e35c0000 	cmp	ip, #0
    1490:	e5cb81d4 	strb	r8, [fp, #468]	; 0x1d4
    1494:	1a0001b8 	bne	1b7c <Len_IRQ_Stack+0xb7c>
    1498:	e083c00e 	add	ip, r3, lr
    149c:	e08ec08c 	add	ip, lr, ip, lsl #1
    14a0:	e08a810c 	add	r8, sl, ip, lsl #2
    14a4:	e5d8c1d4 	ldrb	ip, [r8, #468]	; 0x1d4
    14a8:	e20cc0ff 	and	ip, ip, #255	; 0xff
    14ac:	e35c0001 	cmp	ip, #1
    14b0:	e58dc020 	str	ip, [sp, #32]
    14b4:	0a0001c4 	beq	1bcc <Len_IRQ_Stack+0xbcc>
    14b8:	e5d8c1d4 	ldrb	ip, [r8, #468]	; 0x1d4
    14bc:	e35c0002 	cmp	ip, #2
    14c0:	0a000175 	beq	1a9c <Len_IRQ_Stack+0xa9c>
    14c4:	e5d8c1d4 	ldrb	ip, [r8, #468]	; 0x1d4
    14c8:	e35c0003 	cmp	ip, #3
    14cc:	1a00000d 	bne	1508 <Len_IRQ_Stack+0x508>
    14d0:	e3a0c000 	mov	ip, #0
    14d4:	e59db038 	ldr	fp, [sp, #56]	; 0x38
    14d8:	e584b008 	str	fp, [r4, #8]
    14dc:	e584c00c 	str	ip, [r4, #12]
    14e0:	e3a0c000 	mov	ip, #0
    14e4:	e3a0b000 	mov	fp, #0
    14e8:	e584b010 	str	fp, [r4, #16]
    14ec:	e584c014 	str	ip, [r4, #20]
    14f0:	e3a0c801 	mov	ip, #65536	; 0x10000
    14f4:	e584c018 	str	ip, [r4, #24]
    14f8:	e3a0c001 	mov	ip, #1
    14fc:	e5c4c007 	strb	ip, [r4, #7]
    1500:	e3a0c004 	mov	ip, #4
    1504:	e5c8c1d4 	strb	ip, [r8, #468]	; 0x1d4
    1508:	e083c00e 	add	ip, r3, lr
    150c:	e08ec08c 	add	ip, lr, ip, lsl #1
    1510:	e08ac10c 	add	ip, sl, ip, lsl #2
    1514:	e5dcc1d4 	ldrb	ip, [ip, #468]	; 0x1d4
    1518:	e35c0003 	cmp	ip, #3
    151c:	1afffd4f 	bne	a60 <runtime+0x62c>
    1520:	eafffda9 	b	bcc <runtime+0x798>
    1524:	e3a04001 	mov	r4, #1
    1528:	e083c00e 	add	ip, r3, lr
    152c:	e08ec08c 	add	ip, lr, ip, lsl #1
    1530:	e08ac10c 	add	ip, sl, ip, lsl #2
    1534:	e591b0ec 	ldr	fp, [r1, #236]	; 0xec
    1538:	e5cc48bc 	strb	r4, [ip, #2236]	; 0x8bc
    153c:	e35b0000 	cmp	fp, #0
    1540:	15d1c110 	ldrbne	ip, [r1, #272]	; 0x110
    1544:	15914118 	ldrne	r4, [r1, #280]	; 0x118
    1548:	128cc002 	addne	ip, ip, #2
    154c:	1794c10c 	ldrne	ip, [r4, ip, lsl #2]
    1550:	0598c000 	ldreq	ip, [r8]
    1554:	e58dc018 	str	ip, [sp, #24]
    1558:	e083c00e 	add	ip, r3, lr
    155c:	e08ec08c 	add	ip, lr, ip, lsl #1
    1560:	e08a810c 	add	r8, sl, ip, lsl #2
    1564:	e5d848bc 	ldrb	r4, [r8, #2236]	; 0x8bc
    1568:	e08cc004 	add	ip, ip, r4
    156c:	e28ccf8a 	add	ip, ip, #552	; 0x228
    1570:	e79ac10c 	ldr	ip, [sl, ip, lsl #2]
    1574:	e58dc020 	str	ip, [sp, #32]
    1578:	e5d8c8b4 	ldrb	ip, [r8, #2228]	; 0x8b4
    157c:	e1a04a0e 	lsl	r4, lr, #20
    1580:	e35c0000 	cmp	ip, #0
    1584:	e1a0b004 	mov	fp, r4
    1588:	e2844426 	add	r4, r4, #637534208	; 0x26000000
    158c:	1a000029 	bne	1638 <Len_IRQ_Stack+0x638>
    1590:	e3a0c000 	mov	ip, #0
    1594:	e59db018 	ldr	fp, [sp, #24]
    1598:	e58db018 	str	fp, [sp, #24]
    159c:	e58dc01c 	str	ip, [sp, #28]
    15a0:	e51fc224 	ldr	ip, [pc, #-548]	; 1384 <Len_IRQ_Stack+0x384>
    15a4:	e096c00c 	adds	ip, r6, ip
    15a8:	e58dc080 	str	ip, [sp, #128]	; 0x80
    15ac:	e59dc004 	ldr	ip, [sp, #4]
    15b0:	e2acc000 	adc	ip, ip, #0
    15b4:	e58dc084 	str	ip, [sp, #132]	; 0x84
    15b8:	e28dc018 	add	ip, sp, #24
    15bc:	e89c1800 	ldm	ip, {fp, ip}
    15c0:	e584b008 	str	fp, [r4, #8]
    15c4:	e584c00c 	str	ip, [r4, #12]
    15c8:	e28dc080 	add	ip, sp, #128	; 0x80
    15cc:	e89c1800 	ldm	ip, {fp, ip}
    15d0:	e584b010 	str	fp, [r4, #16]
    15d4:	e584c014 	str	ip, [r4, #20]
    15d8:	e3a0c801 	mov	ip, #65536	; 0x10000
    15dc:	e584c018 	str	ip, [r4, #24]
    15e0:	e3a0c001 	mov	ip, #1
    15e4:	e5c4c007 	strb	ip, [r4, #7]
    15e8:	e5c8c8b4 	strb	ip, [r8, #2228]	; 0x8b4
    15ec:	e083c00e 	add	ip, r3, lr
    15f0:	e08ec08c 	add	ip, lr, ip, lsl #1
    15f4:	e08ac10c 	add	ip, sl, ip, lsl #2
    15f8:	e5dcc8b4 	ldrb	ip, [ip, #2228]	; 0x8b4
    15fc:	e35c0003 	cmp	ip, #3
    1600:	1afffd16 	bne	a60 <runtime+0x62c>
    1604:	eafffd70 	b	bcc <runtime+0x798>
    1608:	e3a00000 	mov	r0, #0
    160c:	e3a01000 	mov	r1, #0
    1610:	e3a02000 	mov	r2, #0
    1614:	e3a03000 	mov	r3, #0
    1618:	ee410110 	mcr	1, 2, r0, cr1, cr0, {0}
    161c:	e28ddf6b 	add	sp, sp, #428	; 0x1ac
    1620:	e8bd4ff0 	pop	{r4, r5, r6, r7, r8, r9, sl, fp, lr}
    1624:	e12fff1e 	bx	lr
    1628:	e5d4c1df 	ldrb	ip, [r4, #479]	; 0x1df
    162c:	e35c0000 	cmp	ip, #0
    1630:	0afffe7e 	beq	1030 <Len_IRQ_Stack+0x30>
    1634:	eafffd09 	b	a60 <runtime+0x62c>
    1638:	e5d8c8b4 	ldrb	ip, [r8, #2228]	; 0x8b4
    163c:	e20cc0ff 	and	ip, ip, #255	; 0xff
    1640:	e35c0001 	cmp	ip, #1
    1644:	e58dc018 	str	ip, [sp, #24]
    1648:	0a0000e9 	beq	19f4 <Len_IRQ_Stack+0x9f4>
    164c:	e5d8c8b4 	ldrb	ip, [r8, #2228]	; 0x8b4
    1650:	e35c0003 	cmp	ip, #3
    1654:	1affffe4 	bne	15ec <Len_IRQ_Stack+0x5ec>
    1658:	e3a0c000 	mov	ip, #0
    165c:	e59db020 	ldr	fp, [sp, #32]
    1660:	e584b008 	str	fp, [r4, #8]
    1664:	e584c00c 	str	ip, [r4, #12]
    1668:	e3a0c000 	mov	ip, #0
    166c:	e3a0b000 	mov	fp, #0
    1670:	e584b010 	str	fp, [r4, #16]
    1674:	e584c014 	str	ip, [r4, #20]
    1678:	e3a0c901 	mov	ip, #16384	; 0x4000
    167c:	e584c018 	str	ip, [r4, #24]
    1680:	e3a0c001 	mov	ip, #1
    1684:	e5c4c007 	strb	ip, [r4, #7]
    1688:	e3a0c004 	mov	ip, #4
    168c:	e5c8c8b4 	strb	ip, [r8, #2228]	; 0x8b4
    1690:	eaffffd5 	b	15ec <Len_IRQ_Stack+0x5ec>
    1694:	e5d8c6fc 	ldrb	ip, [r8, #1788]	; 0x6fc
    1698:	e20cc0ff 	and	ip, ip, #255	; 0xff
    169c:	e35c0001 	cmp	ip, #1
    16a0:	e58dc018 	str	ip, [sp, #24]
    16a4:	0a0000c6 	beq	19c4 <Len_IRQ_Stack+0x9c4>
    16a8:	e5d8c6fc 	ldrb	ip, [r8, #1788]	; 0x6fc
    16ac:	e35c0003 	cmp	ip, #3
    16b0:	1afffd3f 	bne	bb4 <runtime+0x780>
    16b4:	e3a0c000 	mov	ip, #0
    16b8:	e59db020 	ldr	fp, [sp, #32]
    16bc:	e584b008 	str	fp, [r4, #8]
    16c0:	e584c00c 	str	ip, [r4, #12]
    16c4:	e3a0c000 	mov	ip, #0
    16c8:	e3a0b000 	mov	fp, #0
    16cc:	e584b010 	str	fp, [r4, #16]
    16d0:	e584c014 	str	ip, [r4, #20]
    16d4:	e3a0c801 	mov	ip, #65536	; 0x10000
    16d8:	e584c018 	str	ip, [r4, #24]
    16dc:	e3a0c001 	mov	ip, #1
    16e0:	e5c4c007 	strb	ip, [r4, #7]
    16e4:	e3a0c004 	mov	ip, #4
    16e8:	e5c8c6fc 	strb	ip, [r8, #1788]	; 0x6fc
    16ec:	eafffd30 	b	bb4 <runtime+0x780>
    16f0:	e59d4018 	ldr	r4, [sp, #24]
    16f4:	e5d44a6c 	ldrb	r4, [r4, #2668]	; 0xa6c
    16f8:	e20440ff 	and	r4, r4, #255	; 0xff
    16fc:	e3540001 	cmp	r4, #1
    1700:	0a0000a1 	beq	198c <Len_IRQ_Stack+0x98c>
    1704:	e59dc018 	ldr	ip, [sp, #24]
    1708:	e5dcca6c 	ldrb	ip, [ip, #2668]	; 0xa6c
    170c:	e35c0003 	cmp	ip, #3
    1710:	1afffe19 	bne	f7c <runtime+0xb48>
    1714:	e3a0c000 	mov	ip, #0
    1718:	e59db028 	ldr	fp, [sp, #40]	; 0x28
    171c:	e588b008 	str	fp, [r8, #8]
    1720:	e588c00c 	str	ip, [r8, #12]
    1724:	e3a0c000 	mov	ip, #0
    1728:	e3a0b000 	mov	fp, #0
    172c:	e3a04001 	mov	r4, #1
    1730:	e588b010 	str	fp, [r8, #16]
    1734:	e588c014 	str	ip, [r8, #20]
    1738:	e3a0c903 	mov	ip, #49152	; 0xc000
    173c:	e588c018 	str	ip, [r8, #24]
    1740:	e5c84007 	strb	r4, [r8, #7]
    1744:	e3a04004 	mov	r4, #4
    1748:	e59dc018 	ldr	ip, [sp, #24]
    174c:	e5cc4a6c 	strb	r4, [ip, #2668]	; 0xa6c
    1750:	eafffe09 	b	f7c <runtime+0xb48>
    1754:	e59dc018 	ldr	ip, [sp, #24]
    1758:	e5dcc38c 	ldrb	ip, [ip, #908]	; 0x38c
    175c:	e20cc0ff 	and	ip, ip, #255	; 0xff
    1760:	e35c0001 	cmp	ip, #1
    1764:	e58dc034 	str	ip, [sp, #52]	; 0x34
    1768:	0a000070 	beq	1930 <Len_IRQ_Stack+0x930>
    176c:	e59dc018 	ldr	ip, [sp, #24]
    1770:	e5dcc38c 	ldrb	ip, [ip, #908]	; 0x38c
    1774:	e35c0003 	cmp	ip, #3
    1778:	1afffdbb 	bne	e6c <runtime+0xa38>
    177c:	e3a0c000 	mov	ip, #0
    1780:	e59db028 	ldr	fp, [sp, #40]	; 0x28
    1784:	e584b008 	str	fp, [r4, #8]
    1788:	e584c00c 	str	ip, [r4, #12]
    178c:	e3a0c000 	mov	ip, #0
    1790:	e3a0b000 	mov	fp, #0
    1794:	e3a08001 	mov	r8, #1
    1798:	e584b010 	str	fp, [r4, #16]
    179c:	e584c014 	str	ip, [r4, #20]
    17a0:	e3a0c901 	mov	ip, #16384	; 0x4000
    17a4:	e584c018 	str	ip, [r4, #24]
    17a8:	e5c48007 	strb	r8, [r4, #7]
    17ac:	e3a04004 	mov	r4, #4
    17b0:	e59dc018 	ldr	ip, [sp, #24]
    17b4:	e5cc438c 	strb	r4, [ip, #908]	; 0x38c
    17b8:	eafffdab 	b	e6c <runtime+0xa38>
    17bc:	e51f043c 	ldr	r0, [pc, #-1084]	; 1388 <Len_IRQ_Stack+0x388>
    17c0:	eb0017fe 	bl	77c0 <puts>
    17c4:	e28ddf6b 	add	sp, sp, #428	; 0x1ac
    17c8:	e8bd4ff0 	pop	{r4, r5, r6, r7, r8, r9, sl, fp, lr}
    17cc:	e12fff1e 	bx	lr
    17d0:	e08cc004 	add	ip, ip, r4
    17d4:	e28ccf53 	add	ip, ip, #332	; 0x14c
    17d8:	e79ac10c 	ldr	ip, [sl, ip, lsl #2]
    17dc:	e58dc028 	str	ip, [sp, #40]	; 0x28
    17e0:	e3a0c000 	mov	ip, #0
    17e4:	e58dc040 	str	ip, [sp, #64]	; 0x40
    17e8:	eafffd31 	b	cb4 <runtime+0x880>
    17ec:	e3a0c001 	mov	ip, #1
    17f0:	e58dc034 	str	ip, [sp, #52]	; 0x34
    17f4:	e083c00e 	add	ip, r3, lr
    17f8:	e59d4034 	ldr	r4, [sp, #52]	; 0x34
    17fc:	e08ec08c 	add	ip, lr, ip, lsl #1
    1800:	e08ab10c 	add	fp, sl, ip, lsl #2
    1804:	e5cb454c 	strb	r4, [fp, #1356]	; 0x54c
    1808:	e5db454c 	ldrb	r4, [fp, #1356]	; 0x54c
    180c:	e08cc004 	add	ip, ip, r4
    1810:	e28ccf53 	add	ip, ip, #332	; 0x14c
    1814:	e79ac10c 	ldr	ip, [sl, ip, lsl #2]
    1818:	e58dc04c 	str	ip, [sp, #76]	; 0x4c
    181c:	e5dbc544 	ldrb	ip, [fp, #1348]	; 0x544
    1820:	e35c0000 	cmp	ip, #0
    1824:	e5d8c008 	ldrb	ip, [r8, #8]
    1828:	e58dc034 	str	ip, [sp, #52]	; 0x34
    182c:	e5d8c00a 	ldrb	ip, [r8, #10]
    1830:	e1a04a0e 	lsl	r4, lr, #20
    1834:	e58d408c 	str	r4, [sp, #140]	; 0x8c
    1838:	e58dc088 	str	ip, [sp, #136]	; 0x88
    183c:	e2848309 	add	r8, r4, #603979776	; 0x24000000
    1840:	1a000004 	bne	1858 <Len_IRQ_Stack+0x858>
    1844:	e3a04001 	mov	r4, #1
    1848:	e59dc03c 	ldr	ip, [sp, #60]	; 0x3c
    184c:	e35c0000 	cmp	ip, #0
    1850:	e5cb4544 	strb	r4, [fp, #1348]	; 0x544
    1854:	1a000102 	bne	1c64 <Len_IRQ_Stack+0xc64>
    1858:	e083c00e 	add	ip, r3, lr
    185c:	e08ec08c 	add	ip, lr, ip, lsl #1
    1860:	e08ac10c 	add	ip, sl, ip, lsl #2
    1864:	e5dc4544 	ldrb	r4, [ip, #1348]	; 0x544
    1868:	e3540001 	cmp	r4, #1
    186c:	0a00006e 	beq	1a2c <Len_IRQ_Stack+0xa2c>
    1870:	e083c00e 	add	ip, r3, lr
    1874:	e08ec08c 	add	ip, lr, ip, lsl #1
    1878:	e08ac10c 	add	ip, sl, ip, lsl #2
    187c:	e58dc018 	str	ip, [sp, #24]
    1880:	e5dcc544 	ldrb	ip, [ip, #1348]	; 0x544
    1884:	e35c0002 	cmp	ip, #2
    1888:	0a00009e 	beq	1b08 <Len_IRQ_Stack+0xb08>
    188c:	e59dc018 	ldr	ip, [sp, #24]
    1890:	e5dcc544 	ldrb	ip, [ip, #1348]	; 0x544
    1894:	e35c0003 	cmp	ip, #3
    1898:	1a00000e 	bne	18d8 <Len_IRQ_Stack+0x8d8>
    189c:	e3a0c000 	mov	ip, #0
    18a0:	e59db04c 	ldr	fp, [sp, #76]	; 0x4c
    18a4:	e588b008 	str	fp, [r8, #8]
    18a8:	e588c00c 	str	ip, [r8, #12]
    18ac:	e3a0c000 	mov	ip, #0
    18b0:	e3a0b000 	mov	fp, #0
    18b4:	e3a04001 	mov	r4, #1
    18b8:	e588b010 	str	fp, [r8, #16]
    18bc:	e588c014 	str	ip, [r8, #20]
    18c0:	e3a0c801 	mov	ip, #65536	; 0x10000
    18c4:	e588c018 	str	ip, [r8, #24]
    18c8:	e5c84007 	strb	r4, [r8, #7]
    18cc:	e3a04004 	mov	r4, #4
    18d0:	e59dc018 	ldr	ip, [sp, #24]
    18d4:	e5cc4544 	strb	r4, [ip, #1348]	; 0x544
    18d8:	e083c00e 	add	ip, r3, lr
    18dc:	e08ec08c 	add	ip, lr, ip, lsl #1
    18e0:	e08ac10c 	add	ip, sl, ip, lsl #2
    18e4:	e5dcc544 	ldrb	ip, [ip, #1348]	; 0x544
    18e8:	e35c0003 	cmp	ip, #3
    18ec:	1afffc5b 	bne	a60 <runtime+0x62c>
    18f0:	e591c0ec 	ldr	ip, [r1, #236]	; 0xec
    18f4:	e35c0000 	cmp	ip, #0
    18f8:	0a000006 	beq	1918 <Len_IRQ_Stack+0x918>
    18fc:	e5d1c110 	ldrb	ip, [r1, #272]	; 0x110
    1900:	e5914118 	ldr	r4, [r1, #280]	; 0x118
    1904:	e084400c 	add	r4, r4, ip
    1908:	e5d4c025 	ldrb	ip, [r4, #37]	; 0x25
    190c:	e24cc001 	sub	ip, ip, #1
    1910:	e20cc0ff 	and	ip, ip, #255	; 0xff
    1914:	e5c4c025 	strb	ip, [r4, #37]	; 0x25
    1918:	e591c0f0 	ldr	ip, [r1, #240]	; 0xf0
    191c:	e35c0000 	cmp	ip, #0
    1920:	0afffc4e 	beq	a60 <runtime+0x62c>
    1924:	e591411c 	ldr	r4, [r1, #284]	; 0x11c
    1928:	e5d1c111 	ldrb	ip, [r1, #273]	; 0x111
    192c:	eafffcab 	b	be0 <runtime+0x7ac>
    1930:	e3a0c080 	mov	ip, #128	; 0x80
    1934:	e5984004 	ldr	r4, [r8, #4]
    1938:	e58d4020 	str	r4, [sp, #32]
    193c:	e51f45b8 	ldr	r4, [pc, #-1464]	; 138c <Len_IRQ_Stack+0x38c>
    1940:	e5988008 	ldr	r8, [r8, #8]
    1944:	e78bc004 	str	ip, [fp, r4]
    1948:	e2844008 	add	r4, r4, #8
    194c:	e78bc004 	str	ip, [fp, r4]
    1950:	e59d4020 	ldr	r4, [sp, #32]
    1954:	e51fc5cc 	ldr	ip, [pc, #-1484]	; 1390 <Len_IRQ_Stack+0x390>
    1958:	e78b400c 	str	r4, [fp, ip]
    195c:	e28cc008 	add	ip, ip, #8
    1960:	e78b800c 	str	r8, [fp, ip]
    1964:	e51f45d8 	ldr	r4, [pc, #-1496]	; 1394 <Len_IRQ_Stack+0x394>
    1968:	e59dc028 	ldr	ip, [sp, #40]	; 0x28
    196c:	e78bc004 	str	ip, [fp, r4]
    1970:	e59dc034 	ldr	ip, [sp, #52]	; 0x34
    1974:	e2444021 	sub	r4, r4, #33	; 0x21
    1978:	e7cbc004 	strb	ip, [fp, r4]
    197c:	e3a04003 	mov	r4, #3
    1980:	e59dc018 	ldr	ip, [sp, #24]
    1984:	e5cc438c 	strb	r4, [ip, #908]	; 0x38c
    1988:	eafffd37 	b	e6c <runtime+0xa38>
    198c:	e3a08080 	mov	r8, #128	; 0x80
    1990:	e51fb600 	ldr	fp, [pc, #-1536]	; 1398 <Len_IRQ_Stack+0x398>
    1994:	e78c800b 	str	r8, [ip, fp]
    1998:	e28bb008 	add	fp, fp, #8
    199c:	e78c800b 	str	r8, [ip, fp]
    19a0:	e51f860c 	ldr	r8, [pc, #-1548]	; 139c <Len_IRQ_Stack+0x39c>
    19a4:	e59db028 	ldr	fp, [sp, #40]	; 0x28
    19a8:	e78cb008 	str	fp, [ip, r8]
    19ac:	e2488011 	sub	r8, r8, #17
    19b0:	e7cc4008 	strb	r4, [ip, r8]
    19b4:	e3a04003 	mov	r4, #3
    19b8:	e59dc018 	ldr	ip, [sp, #24]
    19bc:	e5cc4a6c 	strb	r4, [ip, #2668]	; 0xa6c
    19c0:	eafffd6d 	b	f7c <runtime+0xb48>
    19c4:	e3a04901 	mov	r4, #16384	; 0x4000
    19c8:	e51fc630 	ldr	ip, [pc, #-1584]	; 13a0 <Len_IRQ_Stack+0x3a0>
    19cc:	e78b400c 	str	r4, [fp, ip]
    19d0:	e59dc020 	ldr	ip, [sp, #32]
    19d4:	e51f4638 	ldr	r4, [pc, #-1592]	; 13a4 <Len_IRQ_Stack+0x3a4>
    19d8:	e78bc004 	str	ip, [fp, r4]
    19dc:	e59dc018 	ldr	ip, [sp, #24]
    19e0:	e2444009 	sub	r4, r4, #9
    19e4:	e7cbc004 	strb	ip, [fp, r4]
    19e8:	e3a0c003 	mov	ip, #3
    19ec:	e5c8c6fc 	strb	ip, [r8, #1788]	; 0x6fc
    19f0:	eafffc6f 	b	bb4 <runtime+0x780>
    19f4:	e3a0c080 	mov	ip, #128	; 0x80
    19f8:	e51f4658 	ldr	r4, [pc, #-1624]	; 13a8 <Len_IRQ_Stack+0x3a8>
    19fc:	e78bc004 	str	ip, [fp, r4]
    1a00:	e2844008 	add	r4, r4, #8
    1a04:	e78bc004 	str	ip, [fp, r4]
    1a08:	e59dc020 	ldr	ip, [sp, #32]
    1a0c:	e2844008 	add	r4, r4, #8
    1a10:	e78bc004 	str	ip, [fp, r4]
    1a14:	e59dc018 	ldr	ip, [sp, #24]
    1a18:	e2444011 	sub	r4, r4, #17
    1a1c:	e7cbc004 	strb	ip, [fp, r4]
    1a20:	e3a0c003 	mov	ip, #3
    1a24:	e5c8c8b4 	strb	ip, [r8, #2228]	; 0x8b4
    1a28:	eafffeef 	b	15ec <Len_IRQ_Stack+0x5ec>
    1a2c:	e3a04002 	mov	r4, #2
    1a30:	e59db040 	ldr	fp, [sp, #64]	; 0x40
    1a34:	e35b0000 	cmp	fp, #0
    1a38:	e5cc4544 	strb	r4, [ip, #1348]	; 0x544
    1a3c:	0affff8b 	beq	1870 <Len_IRQ_Stack+0x870>
    1a40:	e3a0c000 	mov	ip, #0
    1a44:	e58db018 	str	fp, [sp, #24]
    1a48:	e58dc01c 	str	ip, [sp, #28]
    1a4c:	e3a0c000 	mov	ip, #0
    1a50:	e59db028 	ldr	fp, [sp, #40]	; 0x28
    1a54:	e58db020 	str	fp, [sp, #32]
    1a58:	e58dc024 	str	ip, [sp, #36]	; 0x24
    1a5c:	e59dc034 	ldr	ip, [sp, #52]	; 0x34
    1a60:	e35c0000 	cmp	ip, #0
    1a64:	e28dc018 	add	ip, sp, #24
    1a68:	e89c1800 	ldm	ip, {fp, ip}
    1a6c:	e588b008 	str	fp, [r8, #8]
    1a70:	e588c00c 	str	ip, [r8, #12]
    1a74:	e28dc020 	add	ip, sp, #32
    1a78:	e89c1800 	ldm	ip, {fp, ip}
    1a7c:	e588b010 	str	fp, [r8, #16]
    1a80:	e588c014 	str	ip, [r8, #20]
    1a84:	13a0c004 	movne	ip, #4
    1a88:	03a0c801 	moveq	ip, #65536	; 0x10000
    1a8c:	e588c018 	str	ip, [r8, #24]
    1a90:	e3a0c001 	mov	ip, #1
    1a94:	e5c8c007 	strb	ip, [r8, #7]
    1a98:	eaffff8e 	b	18d8 <Len_IRQ_Stack+0x8d8>
    1a9c:	e3a0c080 	mov	ip, #128	; 0x80
    1aa0:	e59db04c 	ldr	fp, [sp, #76]	; 0x4c
    1aa4:	e51f4700 	ldr	r4, [pc, #-1792]	; 13ac <Len_IRQ_Stack+0x3ac>
    1aa8:	e78bc004 	str	ip, [fp, r4]
    1aac:	e2844008 	add	r4, r4, #8
    1ab0:	e78bc004 	str	ip, [fp, r4]
    1ab4:	e59d4028 	ldr	r4, [sp, #40]	; 0x28
    1ab8:	e51fc710 	ldr	ip, [pc, #-1808]	; 13b0 <Len_IRQ_Stack+0x3b0>
    1abc:	e78b400c 	str	r4, [fp, ip]
    1ac0:	e59dc034 	ldr	ip, [sp, #52]	; 0x34
    1ac4:	e51f4718 	ldr	r4, [pc, #-1816]	; 13b4 <Len_IRQ_Stack+0x3b4>
    1ac8:	e78bc004 	str	ip, [fp, r4]
    1acc:	e59dc040 	ldr	ip, [sp, #64]	; 0x40
    1ad0:	e2844008 	add	r4, r4, #8
    1ad4:	e7cbc004 	strb	ip, [fp, r4]
    1ad8:	e59d4018 	ldr	r4, [sp, #24]
    1adc:	e51fc72c 	ldr	ip, [pc, #-1836]	; 13b8 <Len_IRQ_Stack+0x3b8>
    1ae0:	e78b400c 	str	r4, [fp, ip]
    1ae4:	e59dc038 	ldr	ip, [sp, #56]	; 0x38
    1ae8:	e51f4734 	ldr	r4, [pc, #-1844]	; 13bc <Len_IRQ_Stack+0x3bc>
    1aec:	e78bc004 	str	ip, [fp, r4]
    1af0:	e3a0c001 	mov	ip, #1
    1af4:	e2444031 	sub	r4, r4, #49	; 0x31
    1af8:	e7cbc004 	strb	ip, [fp, r4]
    1afc:	e3a0c003 	mov	ip, #3
    1b00:	e5c8c1d4 	strb	ip, [r8, #468]	; 0x1d4
    1b04:	eafffe7f 	b	1508 <Len_IRQ_Stack+0x508>
    1b08:	e3a04901 	mov	r4, #16384	; 0x4000
    1b0c:	e59db08c 	ldr	fp, [sp, #140]	; 0x8c
    1b10:	e51fc758 	ldr	ip, [pc, #-1880]	; 13c0 <Len_IRQ_Stack+0x3c0>
    1b14:	e78b400c 	str	r4, [fp, ip]
    1b18:	e59d4038 	ldr	r4, [sp, #56]	; 0x38
    1b1c:	e28cc008 	add	ip, ip, #8
    1b20:	e7cb400c 	strb	r4, [fp, ip]
    1b24:	e59d8034 	ldr	r8, [sp, #52]	; 0x34
    1b28:	e51f476c 	ldr	r4, [pc, #-1900]	; 13c4 <Len_IRQ_Stack+0x3c4>
    1b2c:	e7cb8004 	strb	r8, [fp, r4]
    1b30:	e59d4088 	ldr	r4, [sp, #136]	; 0x88
    1b34:	e28cc010 	add	ip, ip, #16
    1b38:	e7cb400c 	strb	r4, [fp, ip]
    1b3c:	e59d4020 	ldr	r4, [sp, #32]
    1b40:	e28cc008 	add	ip, ip, #8
    1b44:	e78b400c 	str	r4, [fp, ip]
    1b48:	e51f8788 	ldr	r8, [pc, #-1928]	; 13c8 <Len_IRQ_Stack+0x3c8>
    1b4c:	e59dc028 	ldr	ip, [sp, #40]	; 0x28
    1b50:	e51f478c 	ldr	r4, [pc, #-1932]	; 13cc <Len_IRQ_Stack+0x3cc>
    1b54:	e78bc008 	str	ip, [fp, r8]
    1b58:	e59dc04c 	ldr	ip, [sp, #76]	; 0x4c
    1b5c:	e78bc004 	str	ip, [fp, r4]
    1b60:	e3a0c001 	mov	ip, #1
    1b64:	e2444031 	sub	r4, r4, #49	; 0x31
    1b68:	e7cbc004 	strb	ip, [fp, r4]
    1b6c:	e3a04003 	mov	r4, #3
    1b70:	e59dc018 	ldr	ip, [sp, #24]
    1b74:	e5cc4544 	strb	r4, [ip, #1348]	; 0x544
    1b78:	eaffff56 	b	18d8 <Len_IRQ_Stack+0x8d8>
    1b7c:	e1a0b00c 	mov	fp, ip
    1b80:	e3a0c000 	mov	ip, #0
    1b84:	e58db020 	str	fp, [sp, #32]
    1b88:	e58dc024 	str	ip, [sp, #36]	; 0x24
    1b8c:	e3a0c000 	mov	ip, #0
    1b90:	e59db018 	ldr	fp, [sp, #24]
    1b94:	e58db018 	str	fp, [sp, #24]
    1b98:	e58dc01c 	str	ip, [sp, #28]
    1b9c:	e28dc020 	add	ip, sp, #32
    1ba0:	e89c1800 	ldm	ip, {fp, ip}
    1ba4:	e584b008 	str	fp, [r4, #8]
    1ba8:	e584c00c 	str	ip, [r4, #12]
    1bac:	e28dc018 	add	ip, sp, #24
    1bb0:	e89c1800 	ldm	ip, {fp, ip}
    1bb4:	e584b010 	str	fp, [r4, #16]
    1bb8:	e584c014 	str	ip, [r4, #20]
    1bbc:	e3a0c801 	mov	ip, #65536	; 0x10000
    1bc0:	e584c018 	str	ip, [r4, #24]
    1bc4:	e5c48007 	strb	r8, [r4, #7]
    1bc8:	eafffe4e 	b	1508 <Len_IRQ_Stack+0x508>
    1bcc:	e3a0c000 	mov	ip, #0
    1bd0:	e59db03c 	ldr	fp, [sp, #60]	; 0x3c
    1bd4:	e58db018 	str	fp, [sp, #24]
    1bd8:	e58dc01c 	str	ip, [sp, #28]
    1bdc:	e59dc028 	ldr	ip, [sp, #40]	; 0x28
    1be0:	e59db034 	ldr	fp, [sp, #52]	; 0x34
    1be4:	e00c0c9b 	mul	ip, fp, ip
    1be8:	e51fb820 	ldr	fp, [pc, #-2080]	; 13d0 <Len_IRQ_Stack+0x3d0>
    1bec:	e096b00b 	adds	fp, r6, fp
    1bf0:	e58db068 	str	fp, [sp, #104]	; 0x68
    1bf4:	e59db004 	ldr	fp, [sp, #4]
    1bf8:	e1a0c10c 	lsl	ip, ip, #2
    1bfc:	e2abb000 	adc	fp, fp, #0
    1c00:	e58db06c 	str	fp, [sp, #108]	; 0x6c
    1c04:	e58dc028 	str	ip, [sp, #40]	; 0x28
    1c08:	e28dc018 	add	ip, sp, #24
    1c0c:	e89c1800 	ldm	ip, {fp, ip}
    1c10:	e584b008 	str	fp, [r4, #8]
    1c14:	e584c00c 	str	ip, [r4, #12]
    1c18:	e28dc068 	add	ip, sp, #104	; 0x68
    1c1c:	e89c1800 	ldm	ip, {fp, ip}
    1c20:	e584b010 	str	fp, [r4, #16]
    1c24:	e584c014 	str	ip, [r4, #20]
    1c28:	e59dc028 	ldr	ip, [sp, #40]	; 0x28
    1c2c:	e584c018 	str	ip, [r4, #24]
    1c30:	e59dc020 	ldr	ip, [sp, #32]
    1c34:	e5c4c007 	strb	ip, [r4, #7]
    1c38:	e3a0c002 	mov	ip, #2
    1c3c:	e5c8c1d4 	strb	ip, [r8, #468]	; 0x1d4
    1c40:	eafffe30 	b	1508 <Len_IRQ_Stack+0x508>
    1c44:	e3a04002 	mov	r4, #2
    1c48:	eafffdf4 	b	1420 <Len_IRQ_Stack+0x420>
    1c4c:	e3a0c002 	mov	ip, #2
    1c50:	e58dc034 	str	ip, [sp, #52]	; 0x34
    1c54:	eafffee6 	b	17f4 <Len_IRQ_Stack+0x7f4>
    1c58:	e3a0c003 	mov	ip, #3
    1c5c:	e58dc034 	str	ip, [sp, #52]	; 0x34
    1c60:	eafffee3 	b	17f4 <Len_IRQ_Stack+0x7f4>
    1c64:	e1a0b00c 	mov	fp, ip
    1c68:	e3a0c000 	mov	ip, #0
    1c6c:	e58db018 	str	fp, [sp, #24]
    1c70:	e58dc01c 	str	ip, [sp, #28]
    1c74:	e3a0c000 	mov	ip, #0
    1c78:	e59db020 	ldr	fp, [sp, #32]
    1c7c:	e58db020 	str	fp, [sp, #32]
    1c80:	e58dc024 	str	ip, [sp, #36]	; 0x24
    1c84:	e28dc018 	add	ip, sp, #24
    1c88:	e89c1800 	ldm	ip, {fp, ip}
    1c8c:	e588b008 	str	fp, [r8, #8]
    1c90:	e588c00c 	str	ip, [r8, #12]
    1c94:	e28dc020 	add	ip, sp, #32
    1c98:	e89c1800 	ldm	ip, {fp, ip}
    1c9c:	e588b010 	str	fp, [r8, #16]
    1ca0:	e588c014 	str	ip, [r8, #20]
    1ca4:	e3a0c801 	mov	ip, #65536	; 0x10000
    1ca8:	e588c018 	str	ip, [r8, #24]
    1cac:	e5c84007 	strb	r4, [r8, #7]
    1cb0:	eaffff08 	b	18d8 <Len_IRQ_Stack+0x8d8>
    1cb4:	e083c00e 	add	ip, r3, lr
    1cb8:	e08ec08c 	add	ip, lr, ip, lsl #1
    1cbc:	e08ac10c 	add	ip, sl, ip, lsl #2
    1cc0:	e5dc401c 	ldrb	r4, [ip, #28]
    1cc4:	e3540000 	cmp	r4, #0
    1cc8:	1a000012 	bne	1d18 <Len_IRQ_Stack+0xd18>
    1ccc:	e5dc4025 	ldrb	r4, [ip, #37]	; 0x25
    1cd0:	e21440ff 	ands	r4, r4, #255	; 0xff
    1cd4:	0a000003 	beq	1ce8 <Len_IRQ_Stack+0xce8>
    1cd8:	e5dcc026 	ldrb	ip, [ip, #38]	; 0x26
    1cdc:	e35c0000 	cmp	ip, #0
    1ce0:	1afffb5e 	bne	a60 <runtime+0x62c>
    1ce4:	e3a04001 	mov	r4, #1
    1ce8:	e083c00e 	add	ip, r3, lr
    1cec:	e08ec08c 	add	ip, lr, ip, lsl #1
    1cf0:	e08ac10c 	add	ip, sl, ip, lsl #2
    1cf4:	e591b0ec 	ldr	fp, [r1, #236]	; 0xec
    1cf8:	e5cc4024 	strb	r4, [ip, #36]	; 0x24
    1cfc:	e35b0000 	cmp	fp, #0
    1d00:	15d1c110 	ldrbne	ip, [r1, #272]	; 0x110
    1d04:	15914118 	ldrne	r4, [r1, #280]	; 0x118
    1d08:	128cc002 	addne	ip, ip, #2
    1d0c:	1794c10c 	ldrne	ip, [r4, ip, lsl #2]
    1d10:	0598c000 	ldreq	ip, [r8]
    1d14:	e58dc044 	str	ip, [sp, #68]	; 0x44
    1d18:	e083c00e 	add	ip, r3, lr
    1d1c:	e08ec08c 	add	ip, lr, ip, lsl #1
    1d20:	e08ac10c 	add	ip, sl, ip, lsl #2
    1d24:	e5dcc01c 	ldrb	ip, [ip, #28]
    1d28:	e35c0001 	cmp	ip, #1
    1d2c:	0a000029 	beq	1dd8 <Len_IRQ_Stack+0xdd8>
    1d30:	e083c00e 	add	ip, r3, lr
    1d34:	e08ec08c 	add	ip, lr, ip, lsl #1
    1d38:	e08a810c 	add	r8, sl, ip, lsl #2
    1d3c:	e5d84024 	ldrb	r4, [r8, #36]	; 0x24
    1d40:	e08cc004 	add	ip, ip, r4
    1d44:	e28cc002 	add	ip, ip, #2
    1d48:	e79ac10c 	ldr	ip, [sl, ip, lsl #2]
    1d4c:	e58dc020 	str	ip, [sp, #32]
    1d50:	e5d8c01c 	ldrb	ip, [r8, #28]
    1d54:	e1a04a0e 	lsl	r4, lr, #20
    1d58:	e35c0000 	cmp	ip, #0
    1d5c:	e58d8018 	str	r8, [sp, #24]
    1d60:	e2848421 	add	r8, r4, #553648128	; 0x21000000
    1d64:	1a000024 	bne	1dfc <Len_IRQ_Stack+0xdfc>
    1d68:	e3a04000 	mov	r4, #0
    1d6c:	e51fc9a0 	ldr	ip, [pc, #-2464]	; 13d4 <Len_IRQ_Stack+0x3d4>
    1d70:	e096c00c 	adds	ip, r6, ip
    1d74:	e58dc070 	str	ip, [sp, #112]	; 0x70
    1d78:	e59dc004 	ldr	ip, [sp, #4]
    1d7c:	e0acc004 	adc	ip, ip, r4
    1d80:	e58dc074 	str	ip, [sp, #116]	; 0x74
    1d84:	e3a0c000 	mov	ip, #0
    1d88:	e59db044 	ldr	fp, [sp, #68]	; 0x44
    1d8c:	e588b008 	str	fp, [r8, #8]
    1d90:	e588c00c 	str	ip, [r8, #12]
    1d94:	e28dc070 	add	ip, sp, #112	; 0x70
    1d98:	e89c1800 	ldm	ip, {fp, ip}
    1d9c:	e588b010 	str	fp, [r8, #16]
    1da0:	e588c014 	str	ip, [r8, #20]
    1da4:	e3a0c801 	mov	ip, #65536	; 0x10000
    1da8:	e588c018 	str	ip, [r8, #24]
    1dac:	e3a0c001 	mov	ip, #1
    1db0:	e5c8c007 	strb	ip, [r8, #7]
    1db4:	e59d8018 	ldr	r8, [sp, #24]
    1db8:	e5c8c01c 	strb	ip, [r8, #28]
    1dbc:	e083c00e 	add	ip, r3, lr
    1dc0:	e08ec08c 	add	ip, lr, ip, lsl #1
    1dc4:	e08ac10c 	add	ip, sl, ip, lsl #2
    1dc8:	e5dcc01c 	ldrb	ip, [ip, #28]
    1dcc:	e35c0003 	cmp	ip, #3
    1dd0:	1afffb22 	bne	a60 <runtime+0x62c>
    1dd4:	eafffec5 	b	18f0 <Len_IRQ_Stack+0x8f0>
    1dd8:	e591c0f0 	ldr	ip, [r1, #240]	; 0xf0
    1ddc:	e35c0000 	cmp	ip, #0
    1de0:	15d1c111 	ldrbne	ip, [r1, #273]	; 0x111
    1de4:	1591411c 	ldrne	r4, [r1, #284]	; 0x11c
    1de8:	128cc002 	addne	ip, ip, #2
    1dec:	1794c10c 	ldrne	ip, [r4, ip, lsl #2]
    1df0:	0598c004 	ldreq	ip, [r8, #4]
    1df4:	e58dc048 	str	ip, [sp, #72]	; 0x48
    1df8:	eaffffcc 	b	1d30 <Len_IRQ_Stack+0xd30>
    1dfc:	e59dc018 	ldr	ip, [sp, #24]
    1e00:	e5dcc01c 	ldrb	ip, [ip, #28]
    1e04:	e20cc0ff 	and	ip, ip, #255	; 0xff
    1e08:	e35c0001 	cmp	ip, #1
    1e0c:	e58dc028 	str	ip, [sp, #40]	; 0x28
    1e10:	0a000017 	beq	1e74 <Len_IRQ_Stack+0xe74>
    1e14:	e59dc018 	ldr	ip, [sp, #24]
    1e18:	e5dcc01c 	ldrb	ip, [ip, #28]
    1e1c:	e35c0002 	cmp	ip, #2
    1e20:	0a000029 	beq	1ecc <Len_IRQ_Stack+0xecc>
    1e24:	e59dc018 	ldr	ip, [sp, #24]
    1e28:	e5dcc01c 	ldrb	ip, [ip, #28]
    1e2c:	e35c0003 	cmp	ip, #3
    1e30:	1affffe1 	bne	1dbc <Len_IRQ_Stack+0xdbc>
    1e34:	e3a0c000 	mov	ip, #0
    1e38:	e59db020 	ldr	fp, [sp, #32]
    1e3c:	e588b008 	str	fp, [r8, #8]
    1e40:	e588c00c 	str	ip, [r8, #12]
    1e44:	e3a0c000 	mov	ip, #0
    1e48:	e3a0b000 	mov	fp, #0
    1e4c:	e3a04001 	mov	r4, #1
    1e50:	e588b010 	str	fp, [r8, #16]
    1e54:	e588c014 	str	ip, [r8, #20]
    1e58:	e3a0c801 	mov	ip, #65536	; 0x10000
    1e5c:	e588c018 	str	ip, [r8, #24]
    1e60:	e5c84007 	strb	r4, [r8, #7]
    1e64:	e3a04004 	mov	r4, #4
    1e68:	e59dc018 	ldr	ip, [sp, #24]
    1e6c:	e5cc401c 	strb	r4, [ip, #28]
    1e70:	eaffffd1 	b	1dbc <Len_IRQ_Stack+0xdbc>
    1e74:	e51fcaa4 	ldr	ip, [pc, #-2724]	; 13d8 <Len_IRQ_Stack+0x3d8>
    1e78:	e096c00c 	adds	ip, r6, ip
    1e7c:	e58dc078 	str	ip, [sp, #120]	; 0x78
    1e80:	e59dc004 	ldr	ip, [sp, #4]
    1e84:	e2acc000 	adc	ip, ip, #0
    1e88:	e58dc07c 	str	ip, [sp, #124]	; 0x7c
    1e8c:	e3a0c000 	mov	ip, #0
    1e90:	e3a04801 	mov	r4, #65536	; 0x10000
    1e94:	e59db048 	ldr	fp, [sp, #72]	; 0x48
    1e98:	e588b008 	str	fp, [r8, #8]
    1e9c:	e588c00c 	str	ip, [r8, #12]
    1ea0:	e28dc078 	add	ip, sp, #120	; 0x78
    1ea4:	e89c1800 	ldm	ip, {fp, ip}
    1ea8:	e588b010 	str	fp, [r8, #16]
    1eac:	e588c014 	str	ip, [r8, #20]
    1eb0:	e5884018 	str	r4, [r8, #24]
    1eb4:	e3a04002 	mov	r4, #2
    1eb8:	e59dc028 	ldr	ip, [sp, #40]	; 0x28
    1ebc:	e5c8c007 	strb	ip, [r8, #7]
    1ec0:	e59dc018 	ldr	ip, [sp, #24]
    1ec4:	e5cc401c 	strb	r4, [ip, #28]
    1ec8:	eaffffbb 	b	1dbc <Len_IRQ_Stack+0xdbc>
    1ecc:	e3a0c080 	mov	ip, #128	; 0x80
    1ed0:	e51fbafc 	ldr	fp, [pc, #-2812]	; 13dc <Len_IRQ_Stack+0x3dc>
    1ed4:	e784c00b 	str	ip, [r4, fp]
    1ed8:	e28bb008 	add	fp, fp, #8
    1edc:	e784c00b 	str	ip, [r4, fp]
    1ee0:	e51fcb08 	ldr	ip, [pc, #-2824]	; 13e0 <Len_IRQ_Stack+0x3e0>
    1ee4:	e59db020 	ldr	fp, [sp, #32]
    1ee8:	e784b00c 	str	fp, [r4, ip]
    1eec:	e3a0b001 	mov	fp, #1
    1ef0:	e3a08003 	mov	r8, #3
    1ef4:	e24cc011 	sub	ip, ip, #17
    1ef8:	e7c4b00c 	strb	fp, [r4, ip]
    1efc:	e59dc018 	ldr	ip, [sp, #24]
    1f00:	e5cc801c 	strb	r8, [ip, #28]
    1f04:	eaffffac 	b	1dbc <Len_IRQ_Stack+0xdbc>

00001f08 <isr>:
    1f08:	e92d4ff0 	push	{r4, r5, r6, r7, r8, r9, sl, fp, lr}
    1f0c:	e1a0e180 	lsl	lr, r0, #3
    1f10:	e04e3000 	sub	r3, lr, r0
    1f14:	e1a0c101 	lsl	ip, r1, #2
    1f18:	e0603183 	rsb	r3, r0, r3, lsl #3
    1f1c:	e08c6001 	add	r6, ip, r1
    1f20:	e0816086 	add	r6, r1, r6, lsl #1
    1f24:	e1a03183 	lsl	r3, r3, #3
    1f28:	e59f2f94 	ldr	r2, [pc, #3988]	; 2ec4 <isr+0xfbc>
    1f2c:	e0833106 	add	r3, r3, r6, lsl #2
    1f30:	e0827003 	add	r7, r2, r3
    1f34:	e5d7601c 	ldrb	r6, [r7, #28]
    1f38:	e3560001 	cmp	r6, #1
    1f3c:	e24dd01c 	sub	sp, sp, #28
    1f40:	0a000015 	beq	1f9c <isr+0x94>
    1f44:	e5d7601c 	ldrb	r6, [r7, #28]
    1f48:	e3560002 	cmp	r6, #2
    1f4c:	0a000012 	beq	1f9c <isr+0x94>
    1f50:	e5d7401c 	ldrb	r4, [r7, #28]
    1f54:	e3540003 	cmp	r4, #3
    1f58:	0a000081 	beq	2164 <isr+0x25c>
    1f5c:	e5d7301c 	ldrb	r3, [r7, #28]
    1f60:	e3530004 	cmp	r3, #4
    1f64:	1a000009 	bne	1f90 <isr+0x88>
    1f68:	e3a02000 	mov	r2, #0
    1f6c:	e3a01001 	mov	r1, #1
    1f70:	e5970004 	ldr	r0, [r7, #4]
    1f74:	e59f3f4c 	ldr	r3, [pc, #3916]	; 2ec8 <isr+0xfc0>
    1f78:	e5c02000 	strb	r2, [r0]
    1f7c:	e5c7201c 	strb	r2, [r7, #28]
    1f80:	e5932000 	ldr	r2, [r3]
    1f84:	e2422001 	sub	r2, r2, #1
    1f88:	e5832000 	str	r2, [r3]
    1f8c:	e5c31004 	strb	r1, [r3, #4]
    1f90:	e28dd01c 	add	sp, sp, #28
    1f94:	e8bd4ff0 	pop	{r4, r5, r6, r7, r8, r9, sl, fp, lr}
    1f98:	e12fff1e 	bx	lr
    1f9c:	e3a06000 	mov	r6, #0
    1fa0:	e04e7000 	sub	r7, lr, r0
    1fa4:	e0607187 	rsb	r7, r0, r7, lsl #3
    1fa8:	e08c3001 	add	r3, ip, r1
    1fac:	e0813083 	add	r3, r1, r3, lsl #1
    1fb0:	e1a07187 	lsl	r7, r7, #3
    1fb4:	e0877103 	add	r7, r7, r3, lsl #2
    1fb8:	e0827007 	add	r7, r2, r7
    1fbc:	e5973004 	ldr	r3, [r7, #4]
    1fc0:	e5c36000 	strb	r6, [r3]
    1fc4:	e5973020 	ldr	r3, [r7, #32]
    1fc8:	e3500006 	cmp	r0, #6
    1fcc:	979ff100 	ldrls	pc, [pc, r0, lsl #2]
    1fd0:	ea00004e 	b	2110 <isr+0x208>
    1fd4:	00002848 	andeq	r2, r0, r8, asr #16
    1fd8:	00002698 	muleq	r0, r8, r6
    1fdc:	000025c4 	andeq	r2, r0, r4, asr #11
    1fe0:	00001ff0 	strdeq	r1, [r0], -r0
    1fe4:	000024ec 	andeq	r2, r0, ip, ror #9
    1fe8:	00002418 	andeq	r2, r0, r8, lsl r4
    1fec:	00002340 	andeq	r2, r0, r0, asr #6
    1ff0:	e593a004 	ldr	sl, [r3, #4]
    1ff4:	e5da6009 	ldrb	r6, [sl, #9]
    1ff8:	e3560003 	cmp	r6, #3
    1ffc:	93a08001 	movls	r8, #1
    2000:	9a000002 	bls	2010 <isr+0x108>
    2004:	e2464006 	sub	r4, r6, #6
    2008:	e2748000 	rsbs	r8, r4, #0
    200c:	e0a88004 	adc	r8, r8, r4
    2010:	e59340ec 	ldr	r4, [r3, #236]	; 0xec
    2014:	e3540000 	cmp	r4, #0
    2018:	1a000317 	bne	2c7c <isr+0xd74>
    201c:	e59a5000 	ldr	r5, [sl]
    2020:	e58d5000 	str	r5, [sp]
    2024:	e3580000 	cmp	r8, #0
    2028:	01a09008 	moveq	r9, r8
    202c:	01a07008 	moveq	r7, r8
    2030:	0a00000e 	beq	2070 <isr+0x168>
    2034:	e59390f0 	ldr	r9, [r3, #240]	; 0xf0
    2038:	e3590000 	cmp	r9, #0
    203c:	0a000443 	beq	3150 <isr+0x1248>
    2040:	e593911c 	ldr	r9, [r3, #284]	; 0x11c
    2044:	e1570009 	cmp	r7, r9
    2048:	e5d37111 	ldrb	r7, [r3, #273]	; 0x111
    204c:	008c5001 	addeq	r5, ip, r1
    2050:	00815085 	addeq	r5, r1, r5, lsl #1
    2054:	12875002 	addne	r5, r7, #2
    2058:	00855007 	addeq	r5, r5, r7
    205c:	17997105 	ldrne	r7, [r9, r5, lsl #2]
    2060:	03a07000 	moveq	r7, #0
    2064:	13a09000 	movne	r9, #0
    2068:	02855f53 	addeq	r5, r5, #332	; 0x14c
    206c:	07929105 	ldreq	r9, [r2, r5, lsl #2]
    2070:	e08c5001 	add	r5, ip, r1
    2074:	e0815085 	add	r5, r1, r5, lsl #1
    2078:	e0825105 	add	r5, r2, r5, lsl #2
    207c:	e5d5b54d 	ldrb	fp, [r5, #1357]	; 0x54d
    2080:	e35b0000 	cmp	fp, #0
    2084:	1a0003fc 	bne	307c <isr+0x1174>
    2088:	e3540000 	cmp	r4, #0
    208c:	0a0003f9 	beq	3078 <isr+0x1170>
    2090:	e3590000 	cmp	r9, #0
    2094:	01a0b008 	moveq	fp, r8
    2098:	13a0b000 	movne	fp, #0
    209c:	e35b0000 	cmp	fp, #0
    20a0:	0a00069c 	beq	3b18 <isr+0x1c10>
    20a4:	e5959530 	ldr	r9, [r5, #1328]	; 0x530
    20a8:	e5d5b54e 	ldrb	fp, [r5, #1358]	; 0x54e
    20ac:	e35b0000 	cmp	fp, #0
    20b0:	0a000428 	beq	3158 <isr+0x1250>
    20b4:	e5d5554f 	ldrb	r5, [r5, #1359]	; 0x54f
    20b8:	e3550000 	cmp	r5, #0
    20bc:	1a000400 	bne	30c4 <isr+0x11bc>
    20c0:	e3590000 	cmp	r9, #0
    20c4:	01a05008 	moveq	r5, r8
    20c8:	13a05000 	movne	r5, #0
    20cc:	e3550000 	cmp	r5, #0
    20d0:	0a000606 	beq	38f0 <isr+0x19e8>
    20d4:	e08c5001 	add	r5, ip, r1
    20d8:	e0815085 	add	r5, r1, r5, lsl #1
    20dc:	e0825105 	add	r5, r2, r5, lsl #2
    20e0:	e5959538 	ldr	r9, [r5, #1336]	; 0x538
    20e4:	e5d55550 	ldrb	r5, [r5, #1360]	; 0x550
    20e8:	e3550000 	cmp	r5, #0
    20ec:	1a000007 	bne	2110 <isr+0x208>
    20f0:	e3590000 	cmp	r9, #0
    20f4:	13a08000 	movne	r8, #0
    20f8:	e3580000 	cmp	r8, #0
    20fc:	0a000683 	beq	3b10 <isr+0x1c08>
    2100:	e08c4001 	add	r4, ip, r1
    2104:	e0814084 	add	r4, r1, r4, lsl #1
    2108:	e0824104 	add	r4, r2, r4, lsl #2
    210c:	e594453c 	ldr	r4, [r4, #1340]	; 0x53c
    2110:	e04e5000 	sub	r5, lr, r0
    2114:	e0605185 	rsb	r5, r0, r5, lsl #3
    2118:	e08c4001 	add	r4, ip, r1
    211c:	e0814084 	add	r4, r1, r4, lsl #1
    2120:	e1a05185 	lsl	r5, r5, #3
    2124:	e0855104 	add	r5, r5, r4, lsl #2
    2128:	e0824005 	add	r4, r2, r5
    212c:	e5d4401c 	ldrb	r4, [r4, #28]
    2130:	e3540003 	cmp	r4, #3
    2134:	0a000249 	beq	2a60 <isr+0xb58>
    2138:	e04ee000 	sub	lr, lr, r0
    213c:	e060e18e 	rsb	lr, r0, lr, lsl #3
    2140:	e08cc001 	add	ip, ip, r1
    2144:	e081c08c 	add	ip, r1, ip, lsl #1
    2148:	e1a0e18e 	lsl	lr, lr, #3
    214c:	e08ee10c 	add	lr, lr, ip, lsl #2
    2150:	e082200e 	add	r2, r2, lr
    2154:	e5823020 	str	r3, [r2, #32]
    2158:	e28dd01c 	add	sp, sp, #28
    215c:	e8bd4ff0 	pop	{r4, r5, r6, r7, r8, r9, sl, fp, lr}
    2160:	e12fff1e 	bx	lr
    2164:	e3a05000 	mov	r5, #0
    2168:	e7924003 	ldr	r4, [r2, r3]
    216c:	e5c45000 	strb	r5, [r4]
    2170:	e5975020 	ldr	r5, [r7, #32]
    2174:	e595a008 	ldr	sl, [r5, #8]
    2178:	e35a0000 	cmp	sl, #0
    217c:	da00028e 	ble	2bbc <isr+0xcb4>
    2180:	e285800c 	add	r8, r5, #12
    2184:	e1a04003 	mov	r4, r3
    2188:	e1a09008 	mov	r9, r8
    218c:	e088a10a 	add	sl, r8, sl, lsl #2
    2190:	ea00000d 	b	21cc <isr+0x2c4>
    2194:	e59360dc 	ldr	r6, [r3, #220]	; 0xdc
    2198:	e1550006 	cmp	r5, r6
    219c:	0a000020 	beq	2224 <isr+0x31c>
    21a0:	e59360e0 	ldr	r6, [r3, #224]	; 0xe0
    21a4:	e1550006 	cmp	r5, r6
    21a8:	0a000026 	beq	2248 <isr+0x340>
    21ac:	e59360e4 	ldr	r6, [r3, #228]	; 0xe4
    21b0:	e1550006 	cmp	r5, r6
    21b4:	0a00002c 	beq	226c <isr+0x364>
    21b8:	e59360e8 	ldr	r6, [r3, #232]	; 0xe8
    21bc:	e1550006 	cmp	r5, r6
    21c0:	0a000032 	beq	2290 <isr+0x388>
    21c4:	e159000a 	cmp	r9, sl
    21c8:	0a000048 	beq	22f0 <isr+0x3e8>
    21cc:	e5b93004 	ldr	r3, [r9, #4]!
    21d0:	e593610c 	ldr	r6, [r3, #268]	; 0x10c
    21d4:	e593b00c 	ldr	fp, [r3, #12]
    21d8:	e2866001 	add	r6, r6, #1
    21dc:	e156000b 	cmp	r6, fp
    21e0:	e583610c 	str	r6, [r3, #268]	; 0x10c
    21e4:	03a06001 	moveq	r6, #1
    21e8:	059fbcd8 	ldreq	fp, [pc, #3288]	; 2ec8 <isr+0xfc0>
    21ec:	05836100 	streq	r6, [r3, #256]	; 0x100
    21f0:	05cb6004 	strbeq	r6, [fp, #4]
    21f4:	e59360d8 	ldr	r6, [r3, #216]	; 0xd8
    21f8:	e1550006 	cmp	r5, r6
    21fc:	1affffe4 	bne	2194 <isr+0x28c>
    2200:	e59360ec 	ldr	r6, [r3, #236]	; 0xec
    2204:	e3560000 	cmp	r6, #0
    2208:	10826004 	addne	r6, r2, r4
    220c:	15d66024 	ldrbne	r6, [r6, #36]	; 0x24
    2210:	15c36110 	strbne	r6, [r3, #272]	; 0x110
    2214:	e59360dc 	ldr	r6, [r3, #220]	; 0xdc
    2218:	15837118 	strne	r7, [r3, #280]	; 0x118
    221c:	e1550006 	cmp	r5, r6
    2220:	1affffde 	bne	21a0 <isr+0x298>
    2224:	e59360f0 	ldr	r6, [r3, #240]	; 0xf0
    2228:	e3560000 	cmp	r6, #0
    222c:	10826004 	addne	r6, r2, r4
    2230:	15d66024 	ldrbne	r6, [r6, #36]	; 0x24
    2234:	15c36111 	strbne	r6, [r3, #273]	; 0x111
    2238:	e59360e0 	ldr	r6, [r3, #224]	; 0xe0
    223c:	1583711c 	strne	r7, [r3, #284]	; 0x11c
    2240:	e1550006 	cmp	r5, r6
    2244:	1affffd8 	bne	21ac <isr+0x2a4>
    2248:	e59360f4 	ldr	r6, [r3, #244]	; 0xf4
    224c:	e3560000 	cmp	r6, #0
    2250:	10826004 	addne	r6, r2, r4
    2254:	15d66024 	ldrbne	r6, [r6, #36]	; 0x24
    2258:	15c36112 	strbne	r6, [r3, #274]	; 0x112
    225c:	e59360e4 	ldr	r6, [r3, #228]	; 0xe4
    2260:	15837120 	strne	r7, [r3, #288]	; 0x120
    2264:	e1550006 	cmp	r5, r6
    2268:	1affffd2 	bne	21b8 <isr+0x2b0>
    226c:	e59360f8 	ldr	r6, [r3, #248]	; 0xf8
    2270:	e3560000 	cmp	r6, #0
    2274:	10826004 	addne	r6, r2, r4
    2278:	15d66024 	ldrbne	r6, [r6, #36]	; 0x24
    227c:	15c36113 	strbne	r6, [r3, #275]	; 0x113
    2280:	e59360e8 	ldr	r6, [r3, #232]	; 0xe8
    2284:	15837124 	strne	r7, [r3, #292]	; 0x124
    2288:	e1550006 	cmp	r5, r6
    228c:	1affffcc 	bne	21c4 <isr+0x2bc>
    2290:	e59360fc 	ldr	r6, [r3, #252]	; 0xfc
    2294:	e3560000 	cmp	r6, #0
    2298:	10826004 	addne	r6, r2, r4
    229c:	15d66024 	ldrbne	r6, [r6, #36]	; 0x24
    22a0:	15837128 	strne	r7, [r3, #296]	; 0x128
    22a4:	15c36114 	strbne	r6, [r3, #276]	; 0x114
    22a8:	eaffffc5 	b	21c4 <isr+0x2bc>
    22ac:	e59340ec 	ldr	r4, [r3, #236]	; 0xec
    22b0:	e3540000 	cmp	r4, #0
    22b4:	0a000017 	beq	2318 <isr+0x410>
    22b8:	e59340dc 	ldr	r4, [r3, #220]	; 0xdc
    22bc:	e1550004 	cmp	r5, r4
    22c0:	0a000011 	beq	230c <isr+0x404>
    22c4:	e59340e0 	ldr	r4, [r3, #224]	; 0xe0
    22c8:	e1550004 	cmp	r5, r4
    22cc:	0a0001a4 	beq	2964 <isr+0xa5c>
    22d0:	e59340e4 	ldr	r4, [r3, #228]	; 0xe4
    22d4:	e1550004 	cmp	r5, r4
    22d8:	0a0001a7 	beq	297c <isr+0xa74>
    22dc:	e59340e8 	ldr	r4, [r3, #232]	; 0xe8
    22e0:	e1550004 	cmp	r5, r4
    22e4:	0a0001aa 	beq	2994 <isr+0xa8c>
    22e8:	e158000a 	cmp	r8, sl
    22ec:	0a000233 	beq	2bc0 <isr+0xcb8>
    22f0:	e5b83004 	ldr	r3, [r8, #4]!
    22f4:	e59340d8 	ldr	r4, [r3, #216]	; 0xd8
    22f8:	e1550004 	cmp	r5, r4
    22fc:	0affffea 	beq	22ac <isr+0x3a4>
    2300:	e59340dc 	ldr	r4, [r3, #220]	; 0xdc
    2304:	e1550004 	cmp	r5, r4
    2308:	1affffed 	bne	22c4 <isr+0x3bc>
    230c:	e59340f0 	ldr	r4, [r3, #240]	; 0xf0
    2310:	e3540000 	cmp	r4, #0
    2314:	1affffea 	bne	22c4 <isr+0x3bc>
    2318:	e3500006 	cmp	r0, #6
    231c:	979ff100 	ldrls	pc, [pc, r0, lsl #2]
    2320:	ea0001b9 	b	2a0c <isr+0xb04>
    2324:	00002d44 	andeq	r2, r0, r4, asr #26
    2328:	00002ca0 	andeq	r2, r0, r0, lsr #25
    232c:	00002fa4 	andeq	r2, r0, r4, lsr #31
    2330:	00002e14 	andeq	r2, r0, r4, lsl lr
    2334:	00002f38 	andeq	r2, r0, r8, lsr pc
    2338:	00002dac 	andeq	r2, r0, ip, lsr #27
    233c:	0000300c 	andeq	r3, r0, ip
    2340:	e08c4001 	add	r4, ip, r1
    2344:	e0814084 	add	r4, r1, r4, lsl #1
    2348:	e0824104 	add	r4, r2, r4, lsl #2
    234c:	e5d45a75 	ldrb	r5, [r4, #2677]	; 0xa75
    2350:	e21550ff 	ands	r5, r5, #255	; 0xff
    2354:	0a000003 	beq	2368 <isr+0x460>
    2358:	e5d44a76 	ldrb	r4, [r4, #2678]	; 0xa76
    235c:	e3540000 	cmp	r4, #0
    2360:	1affff6a 	bne	2110 <isr+0x208>
    2364:	e3a05001 	mov	r5, #1
    2368:	e08c4001 	add	r4, ip, r1
    236c:	e59360ec 	ldr	r6, [r3, #236]	; 0xec
    2370:	e0814084 	add	r4, r1, r4, lsl #1
    2374:	e0824104 	add	r4, r2, r4, lsl #2
    2378:	e3560000 	cmp	r6, #0
    237c:	e5936004 	ldr	r6, [r3, #4]
    2380:	e5c45a74 	strb	r5, [r4, #2676]	; 0xa74
    2384:	15d34110 	ldrbne	r4, [r3, #272]	; 0x110
    2388:	15935118 	ldrne	r5, [r3, #280]	; 0x118
    238c:	12844002 	addne	r4, r4, #2
    2390:	17954104 	ldrne	r4, [r5, r4, lsl #2]
    2394:	e08c5001 	add	r5, ip, r1
    2398:	e0815085 	add	r5, r1, r5, lsl #1
    239c:	e0829105 	add	r9, r2, r5, lsl #2
    23a0:	05964000 	ldreq	r4, [r6]
    23a4:	e5d96a74 	ldrb	r6, [r9, #2676]	; 0xa74
    23a8:	e0855006 	add	r5, r5, r6
    23ac:	e2855fa5 	add	r5, r5, #660	; 0x294
    23b0:	e2855002 	add	r5, r5, #2
    23b4:	e7927105 	ldr	r7, [r2, r5, lsl #2]
    23b8:	e5d95a6c 	ldrb	r5, [r9, #2668]	; 0xa6c
    23bc:	e1a08a01 	lsl	r8, r1, #20
    23c0:	e3550000 	cmp	r5, #0
    23c4:	e2888427 	add	r8, r8, #654311424	; 0x27000000
    23c8:	1a000483 	bne	35dc <isr+0x16d4>
    23cc:	e3a05000 	mov	r5, #0
    23d0:	e3a0a001 	mov	sl, #1
    23d4:	e3a07000 	mov	r7, #0
    23d8:	e5884008 	str	r4, [r8, #8]
    23dc:	e588500c 	str	r5, [r8, #12]
    23e0:	e59f4ae4 	ldr	r4, [pc, #2788]	; 2ecc <isr+0xfc4>
    23e4:	e2886020 	add	r6, r8, #32
    23e8:	e5886010 	str	r6, [r8, #16]
    23ec:	e5887014 	str	r7, [r8, #20]
    23f0:	e5884018 	str	r4, [r8, #24]
    23f4:	e5c8a007 	strb	sl, [r8, #7]
    23f8:	e5c9aa6c 	strb	sl, [r9, #2668]	; 0xa6c
    23fc:	e08c4001 	add	r4, ip, r1
    2400:	e0814084 	add	r4, r1, r4, lsl #1
    2404:	e0824104 	add	r4, r2, r4, lsl #2
    2408:	e5d44a6c 	ldrb	r4, [r4, #2668]	; 0xa6c
    240c:	e3540003 	cmp	r4, #3
    2410:	1affff3e 	bne	2110 <isr+0x208>
    2414:	ea000105 	b	2830 <isr+0x928>
    2418:	e08c4001 	add	r4, ip, r1
    241c:	e0814084 	add	r4, r1, r4, lsl #1
    2420:	e0824104 	add	r4, r2, r4, lsl #2
    2424:	e5d458bd 	ldrb	r5, [r4, #2237]	; 0x8bd
    2428:	e21550ff 	ands	r5, r5, #255	; 0xff
    242c:	0a000003 	beq	2440 <isr+0x538>
    2430:	e5d448be 	ldrb	r4, [r4, #2238]	; 0x8be
    2434:	e3540000 	cmp	r4, #0
    2438:	1affff34 	bne	2110 <isr+0x208>
    243c:	e3a05001 	mov	r5, #1
    2440:	e08c4001 	add	r4, ip, r1
    2444:	e59360ec 	ldr	r6, [r3, #236]	; 0xec
    2448:	e0814084 	add	r4, r1, r4, lsl #1
    244c:	e0824104 	add	r4, r2, r4, lsl #2
    2450:	e3560000 	cmp	r6, #0
    2454:	e5936004 	ldr	r6, [r3, #4]
    2458:	e5c458bc 	strb	r5, [r4, #2236]	; 0x8bc
    245c:	15d34110 	ldrbne	r4, [r3, #272]	; 0x110
    2460:	15935118 	ldrne	r5, [r3, #280]	; 0x118
    2464:	12844002 	addne	r4, r4, #2
    2468:	17954104 	ldrne	r4, [r5, r4, lsl #2]
    246c:	e08c5001 	add	r5, ip, r1
    2470:	e0815085 	add	r5, r1, r5, lsl #1
    2474:	e0829105 	add	r9, r2, r5, lsl #2
    2478:	05964000 	ldreq	r4, [r6]
    247c:	e5d968bc 	ldrb	r6, [r9, #2236]	; 0x8bc
    2480:	e0855006 	add	r5, r5, r6
    2484:	e2855f8a 	add	r5, r5, #552	; 0x228
    2488:	e7927105 	ldr	r7, [r2, r5, lsl #2]
    248c:	e5d958b4 	ldrb	r5, [r9, #2228]	; 0x8b4
    2490:	e1a08a01 	lsl	r8, r1, #20
    2494:	e3550000 	cmp	r5, #0
    2498:	e2888426 	add	r8, r8, #637534208	; 0x26000000
    249c:	1a000436 	bne	357c <isr+0x1674>
    24a0:	e3a0a001 	mov	sl, #1
    24a4:	e3a07000 	mov	r7, #0
    24a8:	e3a05000 	mov	r5, #0
    24ac:	e3a0b801 	mov	fp, #65536	; 0x10000
    24b0:	e2886020 	add	r6, r8, #32
    24b4:	e5884008 	str	r4, [r8, #8]
    24b8:	e588500c 	str	r5, [r8, #12]
    24bc:	e5886010 	str	r6, [r8, #16]
    24c0:	e5887014 	str	r7, [r8, #20]
    24c4:	e588b018 	str	fp, [r8, #24]
    24c8:	e5c8a007 	strb	sl, [r8, #7]
    24cc:	e5c9a8b4 	strb	sl, [r9, #2228]	; 0x8b4
    24d0:	e08c4001 	add	r4, ip, r1
    24d4:	e0814084 	add	r4, r1, r4, lsl #1
    24d8:	e0824104 	add	r4, r2, r4, lsl #2
    24dc:	e5d448b4 	ldrb	r4, [r4, #2228]	; 0x8b4
    24e0:	e3540003 	cmp	r4, #3
    24e4:	1affff09 	bne	2110 <isr+0x208>
    24e8:	ea0000d0 	b	2830 <isr+0x928>
    24ec:	e08c4001 	add	r4, ip, r1
    24f0:	e0814084 	add	r4, r1, r4, lsl #1
    24f4:	e0824104 	add	r4, r2, r4, lsl #2
    24f8:	e5d45705 	ldrb	r5, [r4, #1797]	; 0x705
    24fc:	e21550ff 	ands	r5, r5, #255	; 0xff
    2500:	0a000003 	beq	2514 <isr+0x60c>
    2504:	e5d44706 	ldrb	r4, [r4, #1798]	; 0x706
    2508:	e3540000 	cmp	r4, #0
    250c:	1afffeff 	bne	2110 <isr+0x208>
    2510:	e3a05001 	mov	r5, #1
    2514:	e08c4001 	add	r4, ip, r1
    2518:	e59360ec 	ldr	r6, [r3, #236]	; 0xec
    251c:	e0814084 	add	r4, r1, r4, lsl #1
    2520:	e0824104 	add	r4, r2, r4, lsl #2
    2524:	e3560000 	cmp	r6, #0
    2528:	e5936004 	ldr	r6, [r3, #4]
    252c:	e5c45704 	strb	r5, [r4, #1796]	; 0x704
    2530:	15d34110 	ldrbne	r4, [r3, #272]	; 0x110
    2534:	15935118 	ldrne	r5, [r3, #280]	; 0x118
    2538:	12844002 	addne	r4, r4, #2
    253c:	17954104 	ldrne	r4, [r5, r4, lsl #2]
    2540:	e08c5001 	add	r5, ip, r1
    2544:	e0815085 	add	r5, r1, r5, lsl #1
    2548:	e0829105 	add	r9, r2, r5, lsl #2
    254c:	05964000 	ldreq	r4, [r6]
    2550:	e5d96704 	ldrb	r6, [r9, #1796]	; 0x704
    2554:	e0855006 	add	r5, r5, r6
    2558:	e2855f6e 	add	r5, r5, #440	; 0x1b8
    255c:	e2855002 	add	r5, r5, #2
    2560:	e7927105 	ldr	r7, [r2, r5, lsl #2]
    2564:	e5d956fc 	ldrb	r5, [r9, #1788]	; 0x6fc
    2568:	e1a08a01 	lsl	r8, r1, #20
    256c:	e3550000 	cmp	r5, #0
    2570:	e2888425 	add	r8, r8, #620756992	; 0x25000000
    2574:	1a0003e8 	bne	351c <isr+0x1614>
    2578:	e3a0a001 	mov	sl, #1
    257c:	e3a07000 	mov	r7, #0
    2580:	e3a05000 	mov	r5, #0
    2584:	e3a0b903 	mov	fp, #49152	; 0xc000
    2588:	e2886020 	add	r6, r8, #32
    258c:	e5884008 	str	r4, [r8, #8]
    2590:	e588500c 	str	r5, [r8, #12]
    2594:	e5886010 	str	r6, [r8, #16]
    2598:	e5887014 	str	r7, [r8, #20]
    259c:	e588b018 	str	fp, [r8, #24]
    25a0:	e5c8a007 	strb	sl, [r8, #7]
    25a4:	e5c9a6fc 	strb	sl, [r9, #1788]	; 0x6fc
    25a8:	e08c4001 	add	r4, ip, r1
    25ac:	e0814084 	add	r4, r1, r4, lsl #1
    25b0:	e0824104 	add	r4, r2, r4, lsl #2
    25b4:	e5d446fc 	ldrb	r4, [r4, #1788]	; 0x6fc
    25b8:	e3540003 	cmp	r4, #3
    25bc:	1afffed3 	bne	2110 <isr+0x208>
    25c0:	ea00009a 	b	2830 <isr+0x928>
    25c4:	e08c4001 	add	r4, ip, r1
    25c8:	e0814084 	add	r4, r1, r4, lsl #1
    25cc:	e0824104 	add	r4, r2, r4, lsl #2
    25d0:	e5d45395 	ldrb	r5, [r4, #917]	; 0x395
    25d4:	e21550ff 	ands	r5, r5, #255	; 0xff
    25d8:	0a000003 	beq	25ec <isr+0x6e4>
    25dc:	e5d44396 	ldrb	r4, [r4, #918]	; 0x396
    25e0:	e3540000 	cmp	r4, #0
    25e4:	1afffec9 	bne	2110 <isr+0x208>
    25e8:	e3a05001 	mov	r5, #1
    25ec:	e08c4001 	add	r4, ip, r1
    25f0:	e59360ec 	ldr	r6, [r3, #236]	; 0xec
    25f4:	e0814084 	add	r4, r1, r4, lsl #1
    25f8:	e0824104 	add	r4, r2, r4, lsl #2
    25fc:	e3560000 	cmp	r6, #0
    2600:	e5936004 	ldr	r6, [r3, #4]
    2604:	e5c45394 	strb	r5, [r4, #916]	; 0x394
    2608:	15d34110 	ldrbne	r4, [r3, #272]	; 0x110
    260c:	15935118 	ldrne	r5, [r3, #280]	; 0x118
    2610:	12844002 	addne	r4, r4, #2
    2614:	17954104 	ldrne	r4, [r5, r4, lsl #2]
    2618:	e08c5001 	add	r5, ip, r1
    261c:	e0815085 	add	r5, r1, r5, lsl #1
    2620:	e0829105 	add	r9, r2, r5, lsl #2
    2624:	e5d97394 	ldrb	r7, [r9, #916]	; 0x394
    2628:	e0855007 	add	r5, r5, r7
    262c:	e28550de 	add	r5, r5, #222	; 0xde
    2630:	e7927105 	ldr	r7, [r2, r5, lsl #2]
    2634:	e5d9538c 	ldrb	r5, [r9, #908]	; 0x38c
    2638:	05964000 	ldreq	r4, [r6]
    263c:	e1a08a01 	lsl	r8, r1, #20
    2640:	e3550000 	cmp	r5, #0
    2644:	e2888423 	add	r8, r8, #587202560	; 0x23000000
    2648:	1a00039b 	bne	34bc <isr+0x15b4>
    264c:	e3a0a001 	mov	sl, #1
    2650:	e3a07000 	mov	r7, #0
    2654:	e3a05000 	mov	r5, #0
    2658:	e3a0b801 	mov	fp, #65536	; 0x10000
    265c:	e2886020 	add	r6, r8, #32
    2660:	e5884008 	str	r4, [r8, #8]
    2664:	e588500c 	str	r5, [r8, #12]
    2668:	e5886010 	str	r6, [r8, #16]
    266c:	e5887014 	str	r7, [r8, #20]
    2670:	e588b018 	str	fp, [r8, #24]
    2674:	e5c8a007 	strb	sl, [r8, #7]
    2678:	e5c9a38c 	strb	sl, [r9, #908]	; 0x38c
    267c:	e08c4001 	add	r4, ip, r1
    2680:	e0814084 	add	r4, r1, r4, lsl #1
    2684:	e0824104 	add	r4, r2, r4, lsl #2
    2688:	e5d4438c 	ldrb	r4, [r4, #908]	; 0x38c
    268c:	e3540003 	cmp	r4, #3
    2690:	1afffe9e 	bne	2110 <isr+0x208>
    2694:	ea000065 	b	2830 <isr+0x928>
    2698:	e59340ec 	ldr	r4, [r3, #236]	; 0xec
    269c:	e3540000 	cmp	r4, #0
    26a0:	e5935004 	ldr	r5, [r3, #4]
    26a4:	0a000162 	beq	2c34 <isr+0xd2c>
    26a8:	e5938118 	ldr	r8, [r3, #280]	; 0x118
    26ac:	e1570008 	cmp	r7, r8
    26b0:	e5d36110 	ldrb	r6, [r3, #272]	; 0x110
    26b4:	0a0002b7 	beq	3198 <isr+0x1290>
    26b8:	e08c4001 	add	r4, ip, r1
    26bc:	e0814084 	add	r4, r1, r4, lsl #1
    26c0:	e2866002 	add	r6, r6, #2
    26c4:	e0824104 	add	r4, r2, r4, lsl #2
    26c8:	e7986106 	ldr	r6, [r8, r6, lsl #2]
    26cc:	e5d471dd 	ldrb	r7, [r4, #477]	; 0x1dd
    26d0:	e3570000 	cmp	r7, #0
    26d4:	1a00015d 	bne	2c50 <isr+0xd48>
    26d8:	e08c4001 	add	r4, ip, r1
    26dc:	e0814084 	add	r4, r1, r4, lsl #1
    26e0:	e0824104 	add	r4, r2, r4, lsl #2
    26e4:	e59441c0 	ldr	r4, [r4, #448]	; 0x1c0
    26e8:	e08c7001 	add	r7, ip, r1
    26ec:	e0817087 	add	r7, r1, r7, lsl #1
    26f0:	e0827107 	add	r7, r2, r7, lsl #2
    26f4:	e5d771de 	ldrb	r7, [r7, #478]	; 0x1de
    26f8:	e3570000 	cmp	r7, #0
    26fc:	1a000005 	bne	2718 <isr+0x810>
    2700:	e3540000 	cmp	r4, #0
    2704:	1a0003ec 	bne	36bc <isr+0x17b4>
    2708:	e08c4001 	add	r4, ip, r1
    270c:	e0814084 	add	r4, r1, r4, lsl #1
    2710:	e0824104 	add	r4, r2, r4, lsl #2
    2714:	e59441c4 	ldr	r4, [r4, #452]	; 0x1c4
    2718:	e08c7001 	add	r7, ip, r1
    271c:	e0817087 	add	r7, r1, r7, lsl #1
    2720:	e0827107 	add	r7, r2, r7, lsl #2
    2724:	e5d771df 	ldrb	r7, [r7, #479]	; 0x1df
    2728:	e3570000 	cmp	r7, #0
    272c:	1afffe77 	bne	2110 <isr+0x208>
    2730:	e3540000 	cmp	r4, #0
    2734:	0a00014b 	beq	2c68 <isr+0xd60>
    2738:	e3a08002 	mov	r8, #2
    273c:	e08c7001 	add	r7, ip, r1
    2740:	e0817087 	add	r7, r1, r7, lsl #1
    2744:	e082a107 	add	sl, r2, r7, lsl #2
    2748:	e20880ff 	and	r8, r8, #255	; 0xff
    274c:	e5959004 	ldr	r9, [r5, #4]
    2750:	e5ca81dc 	strb	r8, [sl, #476]	; 0x1dc
    2754:	e5da81dc 	ldrb	r8, [sl, #476]	; 0x1dc
    2758:	e0877008 	add	r7, r7, r8
    275c:	e2877070 	add	r7, r7, #112	; 0x70
    2760:	e7927107 	ldr	r7, [r2, r7, lsl #2]
    2764:	e58d7008 	str	r7, [sp, #8]
    2768:	e5da71d4 	ldrb	r7, [sl, #468]	; 0x1d4
    276c:	e3570000 	cmp	r7, #0
    2770:	e2857008 	add	r7, r5, #8
    2774:	e58d9010 	str	r9, [sp, #16]
    2778:	e5d55010 	ldrb	r5, [r5, #16]
    277c:	e8970280 	ldm	r7, {r7, r9}
    2780:	e1a0ba01 	lsl	fp, r1, #20
    2784:	e28b8422 	add	r8, fp, #570425344	; 0x22000000
    2788:	e58d9000 	str	r9, [sp]
    278c:	e58d5014 	str	r5, [sp, #20]
    2790:	1a000003 	bne	27a4 <isr+0x89c>
    2794:	e3a09001 	mov	r9, #1
    2798:	e3560000 	cmp	r6, #0
    279c:	e5ca91d4 	strb	r9, [sl, #468]	; 0x1d4
    27a0:	1a0003e9 	bne	374c <isr+0x1844>
    27a4:	e08c5001 	add	r5, ip, r1
    27a8:	e0815085 	add	r5, r1, r5, lsl #1
    27ac:	e0825105 	add	r5, r2, r5, lsl #2
    27b0:	e5d561d4 	ldrb	r6, [r5, #468]	; 0x1d4
    27b4:	e20660ff 	and	r6, r6, #255	; 0xff
    27b8:	e3560001 	cmp	r6, #1
    27bc:	0a000414 	beq	3814 <isr+0x190c>
    27c0:	e5d561d4 	ldrb	r6, [r5, #468]	; 0x1d4
    27c4:	e3560002 	cmp	r6, #2
    27c8:	0a0003f7 	beq	37ac <isr+0x18a4>
    27cc:	e5d541d4 	ldrb	r4, [r5, #468]	; 0x1d4
    27d0:	e3540003 	cmp	r4, #3
    27d4:	1a00000f 	bne	2818 <isr+0x910>
    27d8:	e3a05000 	mov	r5, #0
    27dc:	e3a0b02c 	mov	fp, #44	; 0x2c
    27e0:	e59d4008 	ldr	r4, [sp, #8]
    27e4:	e3a0a801 	mov	sl, #65536	; 0x10000
    27e8:	e5884008 	str	r4, [r8, #8]
    27ec:	e588500c 	str	r5, [r8, #12]
    27f0:	e3a09001 	mov	r9, #1
    27f4:	e3a07004 	mov	r7, #4
    27f8:	e3a04000 	mov	r4, #0
    27fc:	e3a05000 	mov	r5, #0
    2800:	e0262b91 	mla	r6, r1, fp, r2
    2804:	e5884010 	str	r4, [r8, #16]
    2808:	e5885014 	str	r5, [r8, #20]
    280c:	e588a018 	str	sl, [r8, #24]
    2810:	e5c89007 	strb	r9, [r8, #7]
    2814:	e5c671d4 	strb	r7, [r6, #468]	; 0x1d4
    2818:	e08c4001 	add	r4, ip, r1
    281c:	e0814084 	add	r4, r1, r4, lsl #1
    2820:	e0824104 	add	r4, r2, r4, lsl #2
    2824:	e5d441d4 	ldrb	r4, [r4, #468]	; 0x1d4
    2828:	e3540003 	cmp	r4, #3
    282c:	1afffe37 	bne	2110 <isr+0x208>
    2830:	e59340ec 	ldr	r4, [r3, #236]	; 0xec
    2834:	e3540000 	cmp	r4, #0
    2838:	0afffe34 	beq	2110 <isr+0x208>
    283c:	e5935118 	ldr	r5, [r3, #280]	; 0x118
    2840:	e5d34110 	ldrb	r4, [r3, #272]	; 0x110
    2844:	ea000040 	b	294c <isr+0xa44>
    2848:	e08c6001 	add	r6, ip, r1
    284c:	e0816086 	add	r6, r1, r6, lsl #1
    2850:	e0826106 	add	r6, r2, r6, lsl #2
    2854:	e5d6701c 	ldrb	r7, [r6, #28]
    2858:	e3570000 	cmp	r7, #0
    285c:	e5937004 	ldr	r7, [r3, #4]
    2860:	0a0000e0 	beq	2be8 <isr+0xce0>
    2864:	e08c6001 	add	r6, ip, r1
    2868:	e0816086 	add	r6, r1, r6, lsl #1
    286c:	e0826106 	add	r6, r2, r6, lsl #2
    2870:	e5d6601c 	ldrb	r6, [r6, #28]
    2874:	e3560001 	cmp	r6, #1
    2878:	1a000006 	bne	2898 <isr+0x990>
    287c:	e59350f0 	ldr	r5, [r3, #240]	; 0xf0
    2880:	e3550000 	cmp	r5, #0
    2884:	15d35111 	ldrbne	r5, [r3, #273]	; 0x111
    2888:	1593611c 	ldrne	r6, [r3, #284]	; 0x11c
    288c:	12855002 	addne	r5, r5, #2
    2890:	17965105 	ldrne	r5, [r6, r5, lsl #2]
    2894:	05975004 	ldreq	r5, [r7, #4]
    2898:	e08c7001 	add	r7, ip, r1
    289c:	e0817087 	add	r7, r1, r7, lsl #1
    28a0:	e0826107 	add	r6, r2, r7, lsl #2
    28a4:	e5d68024 	ldrb	r8, [r6, #36]	; 0x24
    28a8:	e0877008 	add	r7, r7, r8
    28ac:	e2877002 	add	r7, r7, #2
    28b0:	e792a107 	ldr	sl, [r2, r7, lsl #2]
    28b4:	e5d6701c 	ldrb	r7, [r6, #28]
    28b8:	e1a09a01 	lsl	r9, r1, #20
    28bc:	e3570000 	cmp	r7, #0
    28c0:	e2897421 	add	r7, r9, #553648128	; 0x21000000
    28c4:	1a000208 	bne	30ec <isr+0x11e4>
    28c8:	e3a0a001 	mov	sl, #1
    28cc:	e3a09000 	mov	r9, #0
    28d0:	e3a05000 	mov	r5, #0
    28d4:	e3a0b801 	mov	fp, #65536	; 0x10000
    28d8:	e2878020 	add	r8, r7, #32
    28dc:	e5874008 	str	r4, [r7, #8]
    28e0:	e587500c 	str	r5, [r7, #12]
    28e4:	e5878010 	str	r8, [r7, #16]
    28e8:	e5879014 	str	r9, [r7, #20]
    28ec:	e587b018 	str	fp, [r7, #24]
    28f0:	e5c7a007 	strb	sl, [r7, #7]
    28f4:	e5c6a01c 	strb	sl, [r6, #28]
    28f8:	e08c4001 	add	r4, ip, r1
    28fc:	e0814084 	add	r4, r1, r4, lsl #1
    2900:	e0824104 	add	r4, r2, r4, lsl #2
    2904:	e5d4401c 	ldrb	r4, [r4, #28]
    2908:	e3540003 	cmp	r4, #3
    290c:	1afffdff 	bne	2110 <isr+0x208>
    2910:	e59340ec 	ldr	r4, [r3, #236]	; 0xec
    2914:	e3540000 	cmp	r4, #0
    2918:	0a000006 	beq	2938 <isr+0xa30>
    291c:	e5d34110 	ldrb	r4, [r3, #272]	; 0x110
    2920:	e5935118 	ldr	r5, [r3, #280]	; 0x118
    2924:	e0855004 	add	r5, r5, r4
    2928:	e5d54025 	ldrb	r4, [r5, #37]	; 0x25
    292c:	e2444001 	sub	r4, r4, #1
    2930:	e20440ff 	and	r4, r4, #255	; 0xff
    2934:	e5c54025 	strb	r4, [r5, #37]	; 0x25
    2938:	e59340f0 	ldr	r4, [r3, #240]	; 0xf0
    293c:	e3540000 	cmp	r4, #0
    2940:	0afffdf2 	beq	2110 <isr+0x208>
    2944:	e593511c 	ldr	r5, [r3, #284]	; 0x11c
    2948:	e5d34111 	ldrb	r4, [r3, #273]	; 0x111
    294c:	e0855004 	add	r5, r5, r4
    2950:	e5d54025 	ldrb	r4, [r5, #37]	; 0x25
    2954:	e2444001 	sub	r4, r4, #1
    2958:	e20440ff 	and	r4, r4, #255	; 0xff
    295c:	e5c54025 	strb	r4, [r5, #37]	; 0x25
    2960:	eafffdea 	b	2110 <isr+0x208>
    2964:	e59340f4 	ldr	r4, [r3, #244]	; 0xf4
    2968:	e3540000 	cmp	r4, #0
    296c:	0afffe69 	beq	2318 <isr+0x410>
    2970:	e59340e4 	ldr	r4, [r3, #228]	; 0xe4
    2974:	e1550004 	cmp	r5, r4
    2978:	1afffe57 	bne	22dc <isr+0x3d4>
    297c:	e59340f8 	ldr	r4, [r3, #248]	; 0xf8
    2980:	e3540000 	cmp	r4, #0
    2984:	0afffe63 	beq	2318 <isr+0x410>
    2988:	e59340e8 	ldr	r4, [r3, #232]	; 0xe8
    298c:	e1550004 	cmp	r5, r4
    2990:	1afffe54 	bne	22e8 <isr+0x3e0>
    2994:	e59330fc 	ldr	r3, [r3, #252]	; 0xfc
    2998:	e3530000 	cmp	r3, #0
    299c:	1afffe51 	bne	22e8 <isr+0x3e0>
    29a0:	eafffe5c 	b	2318 <isr+0x410>
    29a4:	e5d8901c 	ldrb	r9, [r8, #28]
    29a8:	e20990ff 	and	r9, r9, #255	; 0xff
    29ac:	e3590001 	cmp	r9, #1
    29b0:	0a000332 	beq	3680 <isr+0x1778>
    29b4:	e5d8601c 	ldrb	r6, [r8, #28]
    29b8:	e3560002 	cmp	r6, #2
    29bc:	0a0003be 	beq	38bc <isr+0x19b4>
    29c0:	e5d8601c 	ldrb	r6, [r8, #28]
    29c4:	e3560003 	cmp	r6, #3
    29c8:	1a00000f 	bne	2a0c <isr+0xb04>
    29cc:	e3a0802c 	mov	r8, #44	; 0x2c
    29d0:	e5955004 	ldr	r5, [r5, #4]
    29d4:	e3a07000 	mov	r7, #0
    29d8:	e5956008 	ldr	r6, [r5, #8]
    29dc:	e3a0b801 	mov	fp, #65536	; 0x10000
    29e0:	e3a05000 	mov	r5, #0
    29e4:	e3a0a001 	mov	sl, #1
    29e8:	e3a09004 	mov	r9, #4
    29ec:	e0282891 	mla	r8, r1, r8, r2
    29f0:	e5834008 	str	r4, [r3, #8]
    29f4:	e583500c 	str	r5, [r3, #12]
    29f8:	e5836010 	str	r6, [r3, #16]
    29fc:	e5837014 	str	r7, [r3, #20]
    2a00:	e583b018 	str	fp, [r3, #24]
    2a04:	e5c3a007 	strb	sl, [r3, #7]
    2a08:	e5c8901c 	strb	r9, [r8, #28]
    2a0c:	e3a03000 	mov	r3, #0
    2a10:	e04ee000 	sub	lr, lr, r0
    2a14:	e060e18e 	rsb	lr, r0, lr, lsl #3
    2a18:	e08cc001 	add	ip, ip, r1
    2a1c:	e1a0e18e 	lsl	lr, lr, #3
    2a20:	e081108c 	add	r1, r1, ip, lsl #1
    2a24:	e08e1101 	add	r1, lr, r1, lsl #2
    2a28:	e7920001 	ldr	r0, [r2, r1]
    2a2c:	e0822001 	add	r2, r2, r1
    2a30:	e5c03000 	strb	r3, [r0]
    2a34:	e5823020 	str	r3, [r2, #32]
    2a38:	e5d2301c 	ldrb	r3, [r2, #28]
    2a3c:	e3530000 	cmp	r3, #0
    2a40:	1afffd52 	bne	1f90 <isr+0x88>
    2a44:	e3a01001 	mov	r1, #1
    2a48:	e59f3478 	ldr	r3, [pc, #1144]	; 2ec8 <isr+0xfc0>
    2a4c:	e5932000 	ldr	r2, [r3]
    2a50:	e2422001 	sub	r2, r2, #1
    2a54:	e5832000 	str	r2, [r3]
    2a58:	e5c31004 	strb	r1, [r3, #4]
    2a5c:	eafffd4b 	b	1f90 <isr+0x88>
    2a60:	e5938008 	ldr	r8, [r3, #8]
    2a64:	e3580000 	cmp	r8, #0
    2a68:	dafffdb2 	ble	2138 <isr+0x230>
    2a6c:	e283600c 	add	r6, r3, #12
    2a70:	e0868108 	add	r8, r6, r8, lsl #2
    2a74:	ea00000d 	b	2ab0 <isr+0xba8>
    2a78:	e59470dc 	ldr	r7, [r4, #220]	; 0xdc
    2a7c:	e1530007 	cmp	r3, r7
    2a80:	0a00001b 	beq	2af4 <isr+0xbec>
    2a84:	e59470e0 	ldr	r7, [r4, #224]	; 0xe0
    2a88:	e1530007 	cmp	r3, r7
    2a8c:	0a000025 	beq	2b28 <isr+0xc20>
    2a90:	e59470e4 	ldr	r7, [r4, #228]	; 0xe4
    2a94:	e1530007 	cmp	r3, r7
    2a98:	0a00002f 	beq	2b5c <isr+0xc54>
    2a9c:	e59470e8 	ldr	r7, [r4, #232]	; 0xe8
    2aa0:	e1530007 	cmp	r3, r7
    2aa4:	0a000039 	beq	2b90 <isr+0xc88>
    2aa8:	e1580006 	cmp	r8, r6
    2aac:	0afffda1 	beq	2138 <isr+0x230>
    2ab0:	e5b64004 	ldr	r4, [r6, #4]!
    2ab4:	e59470d8 	ldr	r7, [r4, #216]	; 0xd8
    2ab8:	e1530007 	cmp	r3, r7
    2abc:	1affffed 	bne	2a78 <isr+0xb70>
    2ac0:	e59470ec 	ldr	r7, [r4, #236]	; 0xec
    2ac4:	e3570000 	cmp	r7, #0
    2ac8:	0affffea 	beq	2a78 <isr+0xb70>
    2acc:	e0827005 	add	r7, r2, r5
    2ad0:	e5d79024 	ldrb	r9, [r7, #36]	; 0x24
    2ad4:	e0877009 	add	r7, r7, r9
    2ad8:	e5d79025 	ldrb	r9, [r7, #37]	; 0x25
    2adc:	e2899001 	add	r9, r9, #1
    2ae0:	e20990ff 	and	r9, r9, #255	; 0xff
    2ae4:	e5c79025 	strb	r9, [r7, #37]	; 0x25
    2ae8:	e59470dc 	ldr	r7, [r4, #220]	; 0xdc
    2aec:	e1530007 	cmp	r3, r7
    2af0:	1affffe3 	bne	2a84 <isr+0xb7c>
    2af4:	e59470f0 	ldr	r7, [r4, #240]	; 0xf0
    2af8:	e3570000 	cmp	r7, #0
    2afc:	0affffe0 	beq	2a84 <isr+0xb7c>
    2b00:	e0827005 	add	r7, r2, r5
    2b04:	e5d79024 	ldrb	r9, [r7, #36]	; 0x24
    2b08:	e0877009 	add	r7, r7, r9
    2b0c:	e5d79025 	ldrb	r9, [r7, #37]	; 0x25
    2b10:	e2899001 	add	r9, r9, #1
    2b14:	e20990ff 	and	r9, r9, #255	; 0xff
    2b18:	e5c79025 	strb	r9, [r7, #37]	; 0x25
    2b1c:	e59470e0 	ldr	r7, [r4, #224]	; 0xe0
    2b20:	e1530007 	cmp	r3, r7
    2b24:	1affffd9 	bne	2a90 <isr+0xb88>
    2b28:	e59470f4 	ldr	r7, [r4, #244]	; 0xf4
    2b2c:	e3570000 	cmp	r7, #0
    2b30:	0affffd6 	beq	2a90 <isr+0xb88>
    2b34:	e0827005 	add	r7, r2, r5
    2b38:	e5d79024 	ldrb	r9, [r7, #36]	; 0x24
    2b3c:	e0877009 	add	r7, r7, r9
    2b40:	e5d79025 	ldrb	r9, [r7, #37]	; 0x25
    2b44:	e2899001 	add	r9, r9, #1
    2b48:	e20990ff 	and	r9, r9, #255	; 0xff
    2b4c:	e5c79025 	strb	r9, [r7, #37]	; 0x25
    2b50:	e59470e4 	ldr	r7, [r4, #228]	; 0xe4
    2b54:	e1530007 	cmp	r3, r7
    2b58:	1affffcf 	bne	2a9c <isr+0xb94>
    2b5c:	e59470f8 	ldr	r7, [r4, #248]	; 0xf8
    2b60:	e3570000 	cmp	r7, #0
    2b64:	0affffcc 	beq	2a9c <isr+0xb94>
    2b68:	e0827005 	add	r7, r2, r5
    2b6c:	e5d79024 	ldrb	r9, [r7, #36]	; 0x24
    2b70:	e0877009 	add	r7, r7, r9
    2b74:	e5d79025 	ldrb	r9, [r7, #37]	; 0x25
    2b78:	e2899001 	add	r9, r9, #1
    2b7c:	e20990ff 	and	r9, r9, #255	; 0xff
    2b80:	e5c79025 	strb	r9, [r7, #37]	; 0x25
    2b84:	e59470e8 	ldr	r7, [r4, #232]	; 0xe8
    2b88:	e1530007 	cmp	r3, r7
    2b8c:	1affffc5 	bne	2aa8 <isr+0xba0>
    2b90:	e59440fc 	ldr	r4, [r4, #252]	; 0xfc
    2b94:	e3540000 	cmp	r4, #0
    2b98:	0affffc2 	beq	2aa8 <isr+0xba0>
    2b9c:	e0824005 	add	r4, r2, r5
    2ba0:	e5d47024 	ldrb	r7, [r4, #36]	; 0x24
    2ba4:	e0844007 	add	r4, r4, r7
    2ba8:	e5d47025 	ldrb	r7, [r4, #37]	; 0x25
    2bac:	e2877001 	add	r7, r7, #1
    2bb0:	e20770ff 	and	r7, r7, #255	; 0xff
    2bb4:	e5c47025 	strb	r7, [r4, #37]	; 0x25
    2bb8:	eaffffba 	b	2aa8 <isr+0xba0>
    2bbc:	0afffdd5 	beq	2318 <isr+0x410>
    2bc0:	e3a05000 	mov	r5, #0
    2bc4:	e04e3000 	sub	r3, lr, r0
    2bc8:	e0603183 	rsb	r3, r0, r3, lsl #3
    2bcc:	e08c4001 	add	r4, ip, r1
    2bd0:	e1a03183 	lsl	r3, r3, #3
    2bd4:	e0814084 	add	r4, r1, r4, lsl #1
    2bd8:	e0833104 	add	r3, r3, r4, lsl #2
    2bdc:	e0823003 	add	r3, r2, r3
    2be0:	e5c3501c 	strb	r5, [r3, #28]
    2be4:	eaffff88 	b	2a0c <isr+0xb04>
    2be8:	e5d64025 	ldrb	r4, [r6, #37]	; 0x25
    2bec:	e21440ff 	ands	r4, r4, #255	; 0xff
    2bf0:	0a000003 	beq	2c04 <isr+0xcfc>
    2bf4:	e5d64026 	ldrb	r4, [r6, #38]	; 0x26
    2bf8:	e3540000 	cmp	r4, #0
    2bfc:	1afffd43 	bne	2110 <isr+0x208>
    2c00:	e3a04001 	mov	r4, #1
    2c04:	e08c6001 	add	r6, ip, r1
    2c08:	e0816086 	add	r6, r1, r6, lsl #1
    2c0c:	e0826106 	add	r6, r2, r6, lsl #2
    2c10:	e59380ec 	ldr	r8, [r3, #236]	; 0xec
    2c14:	e5c64024 	strb	r4, [r6, #36]	; 0x24
    2c18:	e3580000 	cmp	r8, #0
    2c1c:	15d34110 	ldrbne	r4, [r3, #272]	; 0x110
    2c20:	15936118 	ldrne	r6, [r3, #280]	; 0x118
    2c24:	12844002 	addne	r4, r4, #2
    2c28:	17964104 	ldrne	r4, [r6, r4, lsl #2]
    2c2c:	05974000 	ldreq	r4, [r7]
    2c30:	eaffff0b 	b	2864 <isr+0x95c>
    2c34:	e08c4001 	add	r4, ip, r1
    2c38:	e0814084 	add	r4, r1, r4, lsl #1
    2c3c:	e0824104 	add	r4, r2, r4, lsl #2
    2c40:	e5d461dd 	ldrb	r6, [r4, #477]	; 0x1dd
    2c44:	e3560000 	cmp	r6, #0
    2c48:	e5956000 	ldr	r6, [r5]
    2c4c:	0afffea1 	beq	26d8 <isr+0x7d0>
    2c50:	e5d471de 	ldrb	r7, [r4, #478]	; 0x1de
    2c54:	e3570000 	cmp	r7, #0
    2c58:	0afffeaa 	beq	2708 <isr+0x800>
    2c5c:	e5d441df 	ldrb	r4, [r4, #479]	; 0x1df
    2c60:	e3540000 	cmp	r4, #0
    2c64:	1afffd29 	bne	2110 <isr+0x208>
    2c68:	e08c4001 	add	r4, ip, r1
    2c6c:	e0814084 	add	r4, r1, r4, lsl #1
    2c70:	e0824104 	add	r4, r2, r4, lsl #2
    2c74:	e59441c8 	ldr	r4, [r4, #456]	; 0x1c8
    2c78:	eafffd24 	b	2110 <isr+0x208>
    2c7c:	e5935118 	ldr	r5, [r3, #280]	; 0x118
    2c80:	e1570005 	cmp	r7, r5
    2c84:	e5d34110 	ldrb	r4, [r3, #272]	; 0x110
    2c88:	0a000151 	beq	31d4 <isr+0x12cc>
    2c8c:	e2844002 	add	r4, r4, #2
    2c90:	e7954104 	ldr	r4, [r5, r4, lsl #2]
    2c94:	e58d4000 	str	r4, [sp]
    2c98:	e3a04000 	mov	r4, #0
    2c9c:	eafffce0 	b	2024 <isr+0x11c>
    2ca0:	e08c3001 	add	r3, ip, r1
    2ca4:	e0813083 	add	r3, r1, r3, lsl #1
    2ca8:	e0827103 	add	r7, r2, r3, lsl #2
    2cac:	e5d741dc 	ldrb	r4, [r7, #476]	; 0x1dc
    2cb0:	e0833004 	add	r3, r3, r4
    2cb4:	e2833070 	add	r3, r3, #112	; 0x70
    2cb8:	e7926103 	ldr	r6, [r2, r3, lsl #2]
    2cbc:	e5d741d4 	ldrb	r4, [r7, #468]	; 0x1d4
    2cc0:	e5953004 	ldr	r3, [r5, #4]
    2cc4:	e3540000 	cmp	r4, #0
    2cc8:	e5934014 	ldr	r4, [r3, #20]
    2ccc:	03a03001 	moveq	r3, #1
    2cd0:	05c731d4 	strbeq	r3, [r7, #468]	; 0x1d4
    2cd4:	e08c3001 	add	r3, ip, r1
    2cd8:	e0813083 	add	r3, r1, r3, lsl #1
    2cdc:	e0823103 	add	r3, r2, r3, lsl #2
    2ce0:	e5d391d4 	ldrb	r9, [r3, #468]	; 0x1d4
    2ce4:	e20990ff 	and	r9, r9, #255	; 0xff
    2ce8:	e1a05a01 	lsl	r5, r1, #20
    2cec:	e3590001 	cmp	r9, #1
    2cf0:	e2858422 	add	r8, r5, #570425344	; 0x22000000
    2cf4:	0a0001b5 	beq	33d0 <isr+0x14c8>
    2cf8:	e5d351d4 	ldrb	r5, [r3, #468]	; 0x1d4
    2cfc:	e3550002 	cmp	r5, #2
    2d00:	0a0001d7 	beq	3464 <isr+0x155c>
    2d04:	e5d351d4 	ldrb	r5, [r3, #468]	; 0x1d4
    2d08:	e3550003 	cmp	r5, #3
    2d0c:	1affff3e 	bne	2a0c <isr+0xb04>
    2d10:	e3a07000 	mov	r7, #0
    2d14:	e3a05000 	mov	r5, #0
    2d18:	e3a0b801 	mov	fp, #65536	; 0x10000
    2d1c:	e3a0a001 	mov	sl, #1
    2d20:	e3a09004 	mov	r9, #4
    2d24:	e5886008 	str	r6, [r8, #8]
    2d28:	e588700c 	str	r7, [r8, #12]
    2d2c:	e5884010 	str	r4, [r8, #16]
    2d30:	e5885014 	str	r5, [r8, #20]
    2d34:	e588b018 	str	fp, [r8, #24]
    2d38:	e5c8a007 	strb	sl, [r8, #7]
    2d3c:	e5c391d4 	strb	r9, [r3, #468]	; 0x1d4
    2d40:	eaffff31 	b	2a0c <isr+0xb04>
    2d44:	e08c3001 	add	r3, ip, r1
    2d48:	e0813083 	add	r3, r1, r3, lsl #1
    2d4c:	e0828103 	add	r8, r2, r3, lsl #2
    2d50:	e5d84024 	ldrb	r4, [r8, #36]	; 0x24
    2d54:	e0833004 	add	r3, r3, r4
    2d58:	e2833002 	add	r3, r3, #2
    2d5c:	e7924103 	ldr	r4, [r2, r3, lsl #2]
    2d60:	e5d8301c 	ldrb	r3, [r8, #28]
    2d64:	e1a06a01 	lsl	r6, r1, #20
    2d68:	e3530000 	cmp	r3, #0
    2d6c:	e2863421 	add	r3, r6, #553648128	; 0x21000000
    2d70:	1affff0b 	bne	29a4 <isr+0xa9c>
    2d74:	e3a09001 	mov	r9, #1
    2d78:	e3a05000 	mov	r5, #0
    2d7c:	e3a06000 	mov	r6, #0
    2d80:	e3a07000 	mov	r7, #0
    2d84:	e3a0a801 	mov	sl, #65536	; 0x10000
    2d88:	e2834020 	add	r4, r3, #32
    2d8c:	e5836008 	str	r6, [r3, #8]
    2d90:	e583700c 	str	r7, [r3, #12]
    2d94:	e5834010 	str	r4, [r3, #16]
    2d98:	e5835014 	str	r5, [r3, #20]
    2d9c:	e583a018 	str	sl, [r3, #24]
    2da0:	e5c39007 	strb	r9, [r3, #7]
    2da4:	e5c8901c 	strb	r9, [r8, #28]
    2da8:	eaffff17 	b	2a0c <isr+0xb04>
    2dac:	e08c3001 	add	r3, ip, r1
    2db0:	e0813083 	add	r3, r1, r3, lsl #1
    2db4:	e0828103 	add	r8, r2, r3, lsl #2
    2db8:	e5d848bc 	ldrb	r4, [r8, #2236]	; 0x8bc
    2dbc:	e0833004 	add	r3, r3, r4
    2dc0:	e2833f8a 	add	r3, r3, #552	; 0x228
    2dc4:	e7926103 	ldr	r6, [r2, r3, lsl #2]
    2dc8:	e5d838b4 	ldrb	r3, [r8, #2228]	; 0x8b4
    2dcc:	e3530000 	cmp	r3, #0
    2dd0:	e1a03a01 	lsl	r3, r1, #20
    2dd4:	e2833426 	add	r3, r3, #637534208	; 0x26000000
    2dd8:	1a000143 	bne	32ec <isr+0x13e4>
    2ddc:	e3a09001 	mov	r9, #1
    2de0:	e3a05000 	mov	r5, #0
    2de4:	e3a06000 	mov	r6, #0
    2de8:	e3a07000 	mov	r7, #0
    2dec:	e3a0a801 	mov	sl, #65536	; 0x10000
    2df0:	e2834020 	add	r4, r3, #32
    2df4:	e5836008 	str	r6, [r3, #8]
    2df8:	e583700c 	str	r7, [r3, #12]
    2dfc:	e5834010 	str	r4, [r3, #16]
    2e00:	e5835014 	str	r5, [r3, #20]
    2e04:	e583a018 	str	sl, [r3, #24]
    2e08:	e5c39007 	strb	r9, [r3, #7]
    2e0c:	e5c898b4 	strb	r9, [r8, #2228]	; 0x8b4
    2e10:	eafffefd 	b	2a0c <isr+0xb04>
    2e14:	e08c3001 	add	r3, ip, r1
    2e18:	e0813083 	add	r3, r1, r3, lsl #1
    2e1c:	e0827103 	add	r7, r2, r3, lsl #2
    2e20:	e5d7454c 	ldrb	r4, [r7, #1356]	; 0x54c
    2e24:	e0833004 	add	r3, r3, r4
    2e28:	e2833f53 	add	r3, r3, #332	; 0x14c
    2e2c:	e7924103 	ldr	r4, [r2, r3, lsl #2]
    2e30:	e5d76544 	ldrb	r6, [r7, #1348]	; 0x544
    2e34:	e5953004 	ldr	r3, [r5, #4]
    2e38:	e3560000 	cmp	r6, #0
    2e3c:	e593600c 	ldr	r6, [r3, #12]
    2e40:	03a03001 	moveq	r3, #1
    2e44:	05c73544 	strbeq	r3, [r7, #1348]	; 0x544
    2e48:	e08c3001 	add	r3, ip, r1
    2e4c:	e0813083 	add	r3, r1, r3, lsl #1
    2e50:	e0823103 	add	r3, r2, r3, lsl #2
    2e54:	e5d35544 	ldrb	r5, [r3, #1348]	; 0x544
    2e58:	e3550001 	cmp	r5, #1
    2e5c:	03a05002 	moveq	r5, #2
    2e60:	05c35544 	strbeq	r5, [r3, #1348]	; 0x544
    2e64:	e08c3001 	add	r3, ip, r1
    2e68:	e0813083 	add	r3, r1, r3, lsl #1
    2e6c:	e0823103 	add	r3, r2, r3, lsl #2
    2e70:	e5d35544 	ldrb	r5, [r3, #1348]	; 0x544
    2e74:	e3550002 	cmp	r5, #2
    2e78:	e1a08a01 	lsl	r8, r1, #20
    2e7c:	0a000162 	beq	340c <isr+0x1504>
    2e80:	e5d35544 	ldrb	r5, [r3, #1348]	; 0x544
    2e84:	e3550003 	cmp	r5, #3
    2e88:	1afffedf 	bne	2a0c <isr+0xb04>
    2e8c:	e3a05000 	mov	r5, #0
    2e90:	e3a07000 	mov	r7, #0
    2e94:	e3a0b801 	mov	fp, #65536	; 0x10000
    2e98:	e3a0a001 	mov	sl, #1
    2e9c:	e3a09004 	mov	r9, #4
    2ea0:	e2888309 	add	r8, r8, #603979776	; 0x24000000
    2ea4:	e5884008 	str	r4, [r8, #8]
    2ea8:	e588500c 	str	r5, [r8, #12]
    2eac:	e5886010 	str	r6, [r8, #16]
    2eb0:	e5887014 	str	r7, [r8, #20]
    2eb4:	e588b018 	str	fp, [r8, #24]
    2eb8:	e5c8a007 	strb	sl, [r8, #7]
    2ebc:	e5c39544 	strb	r9, [r3, #1348]	; 0x544
    2ec0:	eafffed1 	b	2a0c <isr+0xb04>
    2ec4:	80000a98 	mulhi	r0, r8, sl
    2ec8:	80000a90 	mulhi	r0, r0, sl
    2ecc:	00004204 	andeq	r4, r0, r4, lsl #4
    2ed0:	24040058 	strcs	r0, [r4], #-88	; 0xffffffa8
    2ed4:	230180a7 	movwcs	r8, #4263	; 0x10a7
    2ed8:	21010020 	tstcs	r1, r0, lsr #32
    2edc:	2701c237 	smladxcs	r1, r7, r2, ip
    2ee0:	26030027 	strcs	r0, [r3], -r7, lsr #32
    2ee4:	2502c030 	strcs	ip, [r2, #-48]	; 0xffffffd0
    2ee8:	2701c238 	smladxcs	r1, r8, r2, ip
    2eec:	2701c248 	strcs	ip, [r1, -r8, asr #4]
    2ef0:	22030098 	andcs	r0, r3, #152	; 0x98
    2ef4:	220300a8 	andcs	r0, r3, #168	; 0xa8
    2ef8:	220300c0 	andcs	r0, r3, #192	; 0xc0
    2efc:	220300c8 	andcs	r0, r3, #200	; 0xc8
    2f00:	22030020 	andcs	r0, r3, #32
    2f04:	230180a8 	movwcs	r8, #4264	; 0x10a8
    2f08:	230180c8 	movwcs	r8, #4296	; 0x10c8
    2f0c:	21040028 	tstcs	r4, r8, lsr #32
    2f10:	21040038 	tstcs	r4, r8, lsr r0
    2f14:	24040028 	strcs	r0, [r4], #-40	; 0xffffffd8
    2f18:	24040038 	strcs	r0, [r4], #-56	; 0xffffffc8
    2f1c:	24040048 	strcs	r0, [r4], #-72	; 0xffffffb8
    2f20:	24040050 	strcs	r0, [r4], #-80	; 0xffffffb0
    2f24:	24040027 	strcs	r0, [r4], #-39	; 0xffffffd9
    2f28:	26030028 	strcs	r0, [r3], -r8, lsr #32
    2f2c:	26030038 			; <UNDEFINED> instruction: 0x26030038
    2f30:	2502c028 	strcs	ip, [r2, #-40]	; 0xffffffd8
    2f34:	2502c027 	strcs	ip, [r2, #-39]	; 0xffffffd9
    2f38:	e08c3001 	add	r3, ip, r1
    2f3c:	e0813083 	add	r3, r1, r3, lsl #1
    2f40:	e0828103 	add	r8, r2, r3, lsl #2
    2f44:	e5d84704 	ldrb	r4, [r8, #1796]	; 0x704
    2f48:	e0833004 	add	r3, r3, r4
    2f4c:	e2833f6e 	add	r3, r3, #440	; 0x1b8
    2f50:	e2833002 	add	r3, r3, #2
    2f54:	e7926103 	ldr	r6, [r2, r3, lsl #2]
    2f58:	e5d836fc 	ldrb	r3, [r8, #1788]	; 0x6fc
    2f5c:	e3530000 	cmp	r3, #0
    2f60:	e1a03a01 	lsl	r3, r1, #20
    2f64:	e2833425 	add	r3, r3, #620756992	; 0x25000000
    2f68:	1a0000f5 	bne	3344 <isr+0x143c>
    2f6c:	e3a09001 	mov	r9, #1
    2f70:	e3a05000 	mov	r5, #0
    2f74:	e3a06000 	mov	r6, #0
    2f78:	e3a07000 	mov	r7, #0
    2f7c:	e3a0a903 	mov	sl, #49152	; 0xc000
    2f80:	e2834020 	add	r4, r3, #32
    2f84:	e5836008 	str	r6, [r3, #8]
    2f88:	e583700c 	str	r7, [r3, #12]
    2f8c:	e5834010 	str	r4, [r3, #16]
    2f90:	e5835014 	str	r5, [r3, #20]
    2f94:	e583a018 	str	sl, [r3, #24]
    2f98:	e5c39007 	strb	r9, [r3, #7]
    2f9c:	e5c896fc 	strb	r9, [r8, #1788]	; 0x6fc
    2fa0:	eafffe99 	b	2a0c <isr+0xb04>
    2fa4:	e08c3001 	add	r3, ip, r1
    2fa8:	e0813083 	add	r3, r1, r3, lsl #1
    2fac:	e0828103 	add	r8, r2, r3, lsl #2
    2fb0:	e5d84394 	ldrb	r4, [r8, #916]	; 0x394
    2fb4:	e0833004 	add	r3, r3, r4
    2fb8:	e28330de 	add	r3, r3, #222	; 0xde
    2fbc:	e7926103 	ldr	r6, [r2, r3, lsl #2]
    2fc0:	e5d8338c 	ldrb	r3, [r8, #908]	; 0x38c
    2fc4:	e3530000 	cmp	r3, #0
    2fc8:	e1a03a01 	lsl	r3, r1, #20
    2fcc:	e2833423 	add	r3, r3, #587202560	; 0x23000000
    2fd0:	1a000087 	bne	31f4 <isr+0x12ec>
    2fd4:	e3a09001 	mov	r9, #1
    2fd8:	e3a05000 	mov	r5, #0
    2fdc:	e3a06000 	mov	r6, #0
    2fe0:	e3a07000 	mov	r7, #0
    2fe4:	e3a0a801 	mov	sl, #65536	; 0x10000
    2fe8:	e2834020 	add	r4, r3, #32
    2fec:	e5836008 	str	r6, [r3, #8]
    2ff0:	e583700c 	str	r7, [r3, #12]
    2ff4:	e5834010 	str	r4, [r3, #16]
    2ff8:	e5835014 	str	r5, [r3, #20]
    2ffc:	e583a018 	str	sl, [r3, #24]
    3000:	e5c39007 	strb	r9, [r3, #7]
    3004:	e5c8938c 	strb	r9, [r8, #908]	; 0x38c
    3008:	eafffe7f 	b	2a0c <isr+0xb04>
    300c:	e08c3001 	add	r3, ip, r1
    3010:	e0813083 	add	r3, r1, r3, lsl #1
    3014:	e0828103 	add	r8, r2, r3, lsl #2
    3018:	e5d84a74 	ldrb	r4, [r8, #2676]	; 0xa74
    301c:	e0833004 	add	r3, r3, r4
    3020:	e2833fa5 	add	r3, r3, #660	; 0x294
    3024:	e2833002 	add	r3, r3, #2
    3028:	e7926103 	ldr	r6, [r2, r3, lsl #2]
    302c:	e5d83a6c 	ldrb	r3, [r8, #2668]	; 0xa6c
    3030:	e3530000 	cmp	r3, #0
    3034:	e1a03a01 	lsl	r3, r1, #20
    3038:	e2833427 	add	r3, r3, #654311424	; 0x27000000
    303c:	1a000082 	bne	324c <isr+0x1344>
    3040:	e3a04000 	mov	r4, #0
    3044:	e3a05000 	mov	r5, #0
    3048:	e3a09001 	mov	r9, #1
    304c:	e3a07000 	mov	r7, #0
    3050:	e5834008 	str	r4, [r3, #8]
    3054:	e583500c 	str	r5, [r3, #12]
    3058:	e51f4194 	ldr	r4, [pc, #-404]	; 2ecc <isr+0xfc4>
    305c:	e2836020 	add	r6, r3, #32
    3060:	e5836010 	str	r6, [r3, #16]
    3064:	e5837014 	str	r7, [r3, #20]
    3068:	e5834018 	str	r4, [r3, #24]
    306c:	e5c39007 	strb	r9, [r3, #7]
    3070:	e5c89a6c 	strb	r9, [r8, #2668]	; 0xa6c
    3074:	eafffe64 	b	2a0c <isr+0xb04>
    3078:	e5954530 	ldr	r4, [r5, #1328]	; 0x530
    307c:	e08c5001 	add	r5, ip, r1
    3080:	e0815085 	add	r5, r1, r5, lsl #1
    3084:	e0825105 	add	r5, r2, r5, lsl #2
    3088:	e5d5b54e 	ldrb	fp, [r5, #1358]	; 0x54e
    308c:	e35b0000 	cmp	fp, #0
    3090:	1a000002 	bne	30a0 <isr+0x1198>
    3094:	e3540000 	cmp	r4, #0
    3098:	05954534 	ldreq	r4, [r5, #1332]	; 0x534
    309c:	1a00002d 	bne	3158 <isr+0x1250>
    30a0:	e08c5001 	add	r5, ip, r1
    30a4:	e0815085 	add	r5, r1, r5, lsl #1
    30a8:	e0825105 	add	r5, r2, r5, lsl #2
    30ac:	e5d5b54f 	ldrb	fp, [r5, #1359]	; 0x54f
    30b0:	e35b0000 	cmp	fp, #0
    30b4:	1a000002 	bne	30c4 <isr+0x11bc>
    30b8:	e3540000 	cmp	r4, #0
    30bc:	05954538 	ldreq	r4, [r5, #1336]	; 0x538
    30c0:	1afffbfe 	bne	20c0 <isr+0x1b8>
    30c4:	e08c5001 	add	r5, ip, r1
    30c8:	e0815085 	add	r5, r1, r5, lsl #1
    30cc:	e0825105 	add	r5, r2, r5, lsl #2
    30d0:	e5d5b550 	ldrb	fp, [r5, #1360]	; 0x550
    30d4:	e35b0000 	cmp	fp, #0
    30d8:	1afffc0c 	bne	2110 <isr+0x208>
    30dc:	e3540000 	cmp	r4, #0
    30e0:	1afffc02 	bne	20f0 <isr+0x1e8>
    30e4:	e595453c 	ldr	r4, [r5, #1340]	; 0x53c
    30e8:	eafffc08 	b	2110 <isr+0x208>
    30ec:	e5d6801c 	ldrb	r8, [r6, #28]
    30f0:	e20880ff 	and	r8, r8, #255	; 0xff
    30f4:	e3580001 	cmp	r8, #1
    30f8:	0a000069 	beq	32a4 <isr+0x139c>
    30fc:	e5d6401c 	ldrb	r4, [r6, #28]
    3100:	e3540002 	cmp	r4, #2
    3104:	0a0000a4 	beq	339c <isr+0x1494>
    3108:	e5d6401c 	ldrb	r4, [r6, #28]
    310c:	e3540003 	cmp	r4, #3
    3110:	1afffdf8 	bne	28f8 <isr+0x9f0>
    3114:	e1a0400a 	mov	r4, sl
    3118:	e3a05000 	mov	r5, #0
    311c:	e3a0a801 	mov	sl, #65536	; 0x10000
    3120:	e5874008 	str	r4, [r7, #8]
    3124:	e587500c 	str	r5, [r7, #12]
    3128:	e3a09001 	mov	r9, #1
    312c:	e3a08004 	mov	r8, #4
    3130:	e3a04000 	mov	r4, #0
    3134:	e3a05000 	mov	r5, #0
    3138:	e5874010 	str	r4, [r7, #16]
    313c:	e5875014 	str	r5, [r7, #20]
    3140:	e587a018 	str	sl, [r7, #24]
    3144:	e5c79007 	strb	r9, [r7, #7]
    3148:	e5c6801c 	strb	r8, [r6, #28]
    314c:	eafffde9 	b	28f8 <isr+0x9f0>
    3150:	e59a7004 	ldr	r7, [sl, #4]
    3154:	eafffbc5 	b	2070 <isr+0x168>
    3158:	e3590000 	cmp	r9, #0
    315c:	01a05008 	moveq	r5, r8
    3160:	13a05000 	movne	r5, #0
    3164:	e3550000 	cmp	r5, #0
    3168:	0a00026c 	beq	3b20 <isr+0x1c18>
    316c:	e08c5001 	add	r5, ip, r1
    3170:	e0815085 	add	r5, r1, r5, lsl #1
    3174:	e0825105 	add	r5, r2, r5, lsl #2
    3178:	e5959534 	ldr	r9, [r5, #1332]	; 0x534
    317c:	e5d5b54f 	ldrb	fp, [r5, #1359]	; 0x54f
    3180:	e35b0000 	cmp	fp, #0
    3184:	0afffbcd 	beq	20c0 <isr+0x1b8>
    3188:	e5d55550 	ldrb	r5, [r5, #1360]	; 0x550
    318c:	e3550000 	cmp	r5, #0
    3190:	1afffbde 	bne	2110 <isr+0x208>
    3194:	eafffbd5 	b	20f0 <isr+0x1e8>
    3198:	e08c7001 	add	r7, ip, r1
    319c:	e0817087 	add	r7, r1, r7, lsl #1
    31a0:	e0874006 	add	r4, r7, r6
    31a4:	e2844070 	add	r4, r4, #112	; 0x70
    31a8:	e0827107 	add	r7, r2, r7, lsl #2
    31ac:	e7924104 	ldr	r4, [r2, r4, lsl #2]
    31b0:	e5d761dd 	ldrb	r6, [r7, #477]	; 0x1dd
    31b4:	e21660ff 	ands	r6, r6, #255	; 0xff
    31b8:	13a06000 	movne	r6, #0
    31bc:	1afffd49 	bne	26e8 <isr+0x7e0>
    31c0:	e3540000 	cmp	r4, #0
    31c4:	11a08006 	movne	r8, r6
    31c8:	1afffd5b 	bne	273c <isr+0x834>
    31cc:	e1a06004 	mov	r6, r4
    31d0:	eafffd40 	b	26d8 <isr+0x7d0>
    31d4:	e08c5001 	add	r5, ip, r1
    31d8:	e0815085 	add	r5, r1, r5, lsl #1
    31dc:	e0854004 	add	r4, r5, r4
    31e0:	e3a05000 	mov	r5, #0
    31e4:	e2844f53 	add	r4, r4, #332	; 0x14c
    31e8:	e7924104 	ldr	r4, [r2, r4, lsl #2]
    31ec:	e58d5000 	str	r5, [sp]
    31f0:	eafffb8b 	b	2024 <isr+0x11c>
    31f4:	e5d8438c 	ldrb	r4, [r8, #908]	; 0x38c
    31f8:	e20440ff 	and	r4, r4, #255	; 0xff
    31fc:	e3540001 	cmp	r4, #1
    3200:	0a00010d 	beq	363c <isr+0x1734>
    3204:	e5d8438c 	ldrb	r4, [r8, #908]	; 0x38c
    3208:	e3540003 	cmp	r4, #3
    320c:	1afffdfe 	bne	2a0c <isr+0xb04>
    3210:	e5954004 	ldr	r4, [r5, #4]
    3214:	e3a07000 	mov	r7, #0
    3218:	e3a05000 	mov	r5, #0
    321c:	e3a0b901 	mov	fp, #16384	; 0x4000
    3220:	e3a0a001 	mov	sl, #1
    3224:	e3a09004 	mov	r9, #4
    3228:	e594400c 	ldr	r4, [r4, #12]
    322c:	e5836008 	str	r6, [r3, #8]
    3230:	e583700c 	str	r7, [r3, #12]
    3234:	e5834010 	str	r4, [r3, #16]
    3238:	e5835014 	str	r5, [r3, #20]
    323c:	e583b018 	str	fp, [r3, #24]
    3240:	e5c3a007 	strb	sl, [r3, #7]
    3244:	e5c8938c 	strb	r9, [r8, #908]	; 0x38c
    3248:	eafffdef 	b	2a0c <isr+0xb04>
    324c:	e5d84a6c 	ldrb	r4, [r8, #2668]	; 0xa6c
    3250:	e20440ff 	and	r4, r4, #255	; 0xff
    3254:	e3540001 	cmp	r4, #1
    3258:	0a000119 	beq	36c4 <isr+0x17bc>
    325c:	e5d84a6c 	ldrb	r4, [r8, #2668]	; 0xa6c
    3260:	e3540003 	cmp	r4, #3
    3264:	1afffde8 	bne	2a0c <isr+0xb04>
    3268:	e5954004 	ldr	r4, [r5, #4]
    326c:	e3a07000 	mov	r7, #0
    3270:	e3a05000 	mov	r5, #0
    3274:	e3a0b903 	mov	fp, #49152	; 0xc000
    3278:	e3a0a001 	mov	sl, #1
    327c:	e3a09004 	mov	r9, #4
    3280:	e5944004 	ldr	r4, [r4, #4]
    3284:	e5836008 	str	r6, [r3, #8]
    3288:	e583700c 	str	r7, [r3, #12]
    328c:	e5834010 	str	r4, [r3, #16]
    3290:	e5835014 	str	r5, [r3, #20]
    3294:	e583b018 	str	fp, [r3, #24]
    3298:	e5c3a007 	strb	sl, [r3, #7]
    329c:	e5c89a6c 	strb	r9, [r8, #2668]	; 0xa6c
    32a0:	eafffdd9 	b	2a0c <isr+0xb04>
    32a4:	e51f43d4 	ldr	r4, [pc, #-980]	; 2ed8 <isr+0xfd0>
    32a8:	e0894004 	add	r4, r9, r4
    32ac:	e1a09004 	mov	r9, r4
    32b0:	e3a0a000 	mov	sl, #0
    32b4:	e1a04005 	mov	r4, r5
    32b8:	e3a05000 	mov	r5, #0
    32bc:	e88d0600 	stm	sp, {r9, sl}
    32c0:	e3a0a801 	mov	sl, #65536	; 0x10000
    32c4:	e3a09002 	mov	r9, #2
    32c8:	e5874008 	str	r4, [r7, #8]
    32cc:	e587500c 	str	r5, [r7, #12]
    32d0:	e89d0030 	ldm	sp, {r4, r5}
    32d4:	e5874010 	str	r4, [r7, #16]
    32d8:	e5875014 	str	r5, [r7, #20]
    32dc:	e587a018 	str	sl, [r7, #24]
    32e0:	e5c78007 	strb	r8, [r7, #7]
    32e4:	e5c6901c 	strb	r9, [r6, #28]
    32e8:	eafffd82 	b	28f8 <isr+0x9f0>
    32ec:	e5d848b4 	ldrb	r4, [r8, #2228]	; 0x8b4
    32f0:	e20440ff 	and	r4, r4, #255	; 0xff
    32f4:	e3540001 	cmp	r4, #1
    32f8:	0a0000fd 	beq	36f4 <isr+0x17ec>
    32fc:	e5d848b4 	ldrb	r4, [r8, #2228]	; 0x8b4
    3300:	e3540003 	cmp	r4, #3
    3304:	1afffdc0 	bne	2a0c <isr+0xb04>
    3308:	e5954004 	ldr	r4, [r5, #4]
    330c:	e3a07000 	mov	r7, #0
    3310:	e3a05000 	mov	r5, #0
    3314:	e3a0b901 	mov	fp, #16384	; 0x4000
    3318:	e3a0a001 	mov	sl, #1
    331c:	e3a09004 	mov	r9, #4
    3320:	e5944004 	ldr	r4, [r4, #4]
    3324:	e5836008 	str	r6, [r3, #8]
    3328:	e583700c 	str	r7, [r3, #12]
    332c:	e5834010 	str	r4, [r3, #16]
    3330:	e5835014 	str	r5, [r3, #20]
    3334:	e583b018 	str	fp, [r3, #24]
    3338:	e5c3a007 	strb	sl, [r3, #7]
    333c:	e5c898b4 	strb	r9, [r8, #2228]	; 0x8b4
    3340:	eafffdb1 	b	2a0c <isr+0xb04>
    3344:	e5d846fc 	ldrb	r4, [r8, #1788]	; 0x6fc
    3348:	e20440ff 	and	r4, r4, #255	; 0xff
    334c:	e3540001 	cmp	r4, #1
    3350:	0a0000f3 	beq	3724 <isr+0x181c>
    3354:	e5d846fc 	ldrb	r4, [r8, #1788]	; 0x6fc
    3358:	e3540003 	cmp	r4, #3
    335c:	1afffdaa 	bne	2a0c <isr+0xb04>
    3360:	e5954004 	ldr	r4, [r5, #4]
    3364:	e3a07000 	mov	r7, #0
    3368:	e3a05000 	mov	r5, #0
    336c:	e3a0b801 	mov	fp, #65536	; 0x10000
    3370:	e3a0a001 	mov	sl, #1
    3374:	e3a09004 	mov	r9, #4
    3378:	e5944004 	ldr	r4, [r4, #4]
    337c:	e5836008 	str	r6, [r3, #8]
    3380:	e583700c 	str	r7, [r3, #12]
    3384:	e5834010 	str	r4, [r3, #16]
    3388:	e5835014 	str	r5, [r3, #20]
    338c:	e583b018 	str	fp, [r3, #24]
    3390:	e5c3a007 	strb	sl, [r3, #7]
    3394:	e5c896fc 	strb	r9, [r8, #1788]	; 0x6fc
    3398:	eafffd9b 	b	2a0c <isr+0xb04>
    339c:	e3a04080 	mov	r4, #128	; 0x80
    33a0:	e3a07001 	mov	r7, #1
    33a4:	e3a05003 	mov	r5, #3
    33a8:	e51f84a4 	ldr	r8, [pc, #-1188]	; 2f0c <isr+0x1004>
    33ac:	e7884a01 	str	r4, [r8, r1, lsl #20]
    33b0:	e2888008 	add	r8, r8, #8
    33b4:	e7884a01 	str	r4, [r8, r1, lsl #20]
    33b8:	e51f44b0 	ldr	r4, [pc, #-1200]	; 2f10 <isr+0x1008>
    33bc:	e784aa01 	str	sl, [r4, r1, lsl #20]
    33c0:	e2444011 	sub	r4, r4, #17
    33c4:	e7c47a01 	strb	r7, [r4, r1, lsl #20]
    33c8:	e5c6501c 	strb	r5, [r6, #28]
    33cc:	eafffd49 	b	28f8 <isr+0x9f0>
    33d0:	e51f44d8 	ldr	r4, [pc, #-1240]	; 2f00 <isr+0xff8>
    33d4:	e3a06000 	mov	r6, #0
    33d8:	e0854004 	add	r4, r5, r4
    33dc:	e3a07000 	mov	r7, #0
    33e0:	e3a05000 	mov	r5, #0
    33e4:	e3a0b000 	mov	fp, #0
    33e8:	e3a0a002 	mov	sl, #2
    33ec:	e5886008 	str	r6, [r8, #8]
    33f0:	e588700c 	str	r7, [r8, #12]
    33f4:	e5884010 	str	r4, [r8, #16]
    33f8:	e5885014 	str	r5, [r8, #20]
    33fc:	e588b018 	str	fp, [r8, #24]
    3400:	e5c89007 	strb	r9, [r8, #7]
    3404:	e5c3a1d4 	strb	sl, [r3, #468]	; 0x1d4
    3408:	eafffd7f 	b	2a0c <isr+0xb04>
    340c:	e3a09901 	mov	r9, #16384	; 0x4000
    3410:	e3a05000 	mov	r5, #0
    3414:	e3a07001 	mov	r7, #1
    3418:	e3a06003 	mov	r6, #3
    341c:	e51f8510 	ldr	r8, [pc, #-1296]	; 2f14 <isr+0x100c>
    3420:	e7889a01 	str	r9, [r8, r1, lsl #20]
    3424:	e2888008 	add	r8, r8, #8
    3428:	e7c85a01 	strb	r5, [r8, r1, lsl #20]
    342c:	e2888008 	add	r8, r8, #8
    3430:	e7c85a01 	strb	r5, [r8, r1, lsl #20]
    3434:	e2888008 	add	r8, r8, #8
    3438:	e7c85a01 	strb	r5, [r8, r1, lsl #20]
    343c:	e2888008 	add	r8, r8, #8
    3440:	e7885a01 	str	r5, [r8, r1, lsl #20]
    3444:	e2888008 	add	r8, r8, #8
    3448:	e7885a01 	str	r5, [r8, r1, lsl #20]
    344c:	e51f5584 	ldr	r5, [pc, #-1412]	; 2ed0 <isr+0xfc8>
    3450:	e7854a01 	str	r4, [r5, r1, lsl #20]
    3454:	e51f4538 	ldr	r4, [pc, #-1336]	; 2f24 <isr+0x101c>
    3458:	e7c47a01 	strb	r7, [r4, r1, lsl #20]
    345c:	e5c36544 	strb	r6, [r3, #1348]	; 0x544
    3460:	eafffd69 	b	2a0c <isr+0xb04>
    3464:	e3a05080 	mov	r5, #128	; 0x80
    3468:	e3a04000 	mov	r4, #0
    346c:	e3a08001 	mov	r8, #1
    3470:	e3a07003 	mov	r7, #3
    3474:	e51f958c 	ldr	r9, [pc, #-1420]	; 2ef0 <isr+0xfe8>
    3478:	e7895a01 	str	r5, [r9, r1, lsl #20]
    347c:	e2899008 	add	r9, r9, #8
    3480:	e7895a01 	str	r5, [r9, r1, lsl #20]
    3484:	e51f5598 	ldr	r5, [pc, #-1432]	; 2ef4 <isr+0xfec>
    3488:	e7854a01 	str	r4, [r5, r1, lsl #20]
    348c:	e2855008 	add	r5, r5, #8
    3490:	e7854a01 	str	r4, [r5, r1, lsl #20]
    3494:	e2855008 	add	r5, r5, #8
    3498:	e7c54a01 	strb	r4, [r5, r1, lsl #20]
    349c:	e2855008 	add	r5, r5, #8
    34a0:	e7854a01 	str	r4, [r5, r1, lsl #20]
    34a4:	e51f45b0 	ldr	r4, [pc, #-1456]	; 2efc <isr+0xff4>
    34a8:	e7846a01 	str	r6, [r4, r1, lsl #20]
    34ac:	e2444031 	sub	r4, r4, #49	; 0x31
    34b0:	e7c48a01 	strb	r8, [r4, r1, lsl #20]
    34b4:	e5c371d4 	strb	r7, [r3, #468]	; 0x1d4
    34b8:	eafffd53 	b	2a0c <isr+0xb04>
    34bc:	e5d9438c 	ldrb	r4, [r9, #908]	; 0x38c
    34c0:	e20440ff 	and	r4, r4, #255	; 0xff
    34c4:	e3540001 	cmp	r4, #1
    34c8:	0a0000e7 	beq	386c <isr+0x1964>
    34cc:	e5d9438c 	ldrb	r4, [r9, #908]	; 0x38c
    34d0:	e3540003 	cmp	r4, #3
    34d4:	1afffc68 	bne	267c <isr+0x774>
    34d8:	e1a04007 	mov	r4, r7
    34dc:	e3a05000 	mov	r5, #0
    34e0:	e3a0b02c 	mov	fp, #44	; 0x2c
    34e4:	e5884008 	str	r4, [r8, #8]
    34e8:	e588500c 	str	r5, [r8, #12]
    34ec:	e3a0a901 	mov	sl, #16384	; 0x4000
    34f0:	e3a09001 	mov	r9, #1
    34f4:	e3a07004 	mov	r7, #4
    34f8:	e3a04000 	mov	r4, #0
    34fc:	e3a05000 	mov	r5, #0
    3500:	e0262b91 	mla	r6, r1, fp, r2
    3504:	e5884010 	str	r4, [r8, #16]
    3508:	e5885014 	str	r5, [r8, #20]
    350c:	e588a018 	str	sl, [r8, #24]
    3510:	e5c89007 	strb	r9, [r8, #7]
    3514:	e5c6738c 	strb	r7, [r6, #908]	; 0x38c
    3518:	eafffc57 	b	267c <isr+0x774>
    351c:	e5d946fc 	ldrb	r4, [r9, #1788]	; 0x6fc
    3520:	e20440ff 	and	r4, r4, #255	; 0xff
    3524:	e3540001 	cmp	r4, #1
    3528:	0a00017e 	beq	3b28 <isr+0x1c20>
    352c:	e5d946fc 	ldrb	r4, [r9, #1788]	; 0x6fc
    3530:	e3540003 	cmp	r4, #3
    3534:	1afffc1b 	bne	25a8 <isr+0x6a0>
    3538:	e1a04007 	mov	r4, r7
    353c:	e3a05000 	mov	r5, #0
    3540:	e3a0b02c 	mov	fp, #44	; 0x2c
    3544:	e5884008 	str	r4, [r8, #8]
    3548:	e588500c 	str	r5, [r8, #12]
    354c:	e3a0a801 	mov	sl, #65536	; 0x10000
    3550:	e3a09001 	mov	r9, #1
    3554:	e3a07004 	mov	r7, #4
    3558:	e3a04000 	mov	r4, #0
    355c:	e3a05000 	mov	r5, #0
    3560:	e0262b91 	mla	r6, r1, fp, r2
    3564:	e5884010 	str	r4, [r8, #16]
    3568:	e5885014 	str	r5, [r8, #20]
    356c:	e588a018 	str	sl, [r8, #24]
    3570:	e5c89007 	strb	r9, [r8, #7]
    3574:	e5c676fc 	strb	r7, [r6, #1788]	; 0x6fc
    3578:	eafffc0a 	b	25a8 <isr+0x6a0>
    357c:	e5d948b4 	ldrb	r4, [r9, #2228]	; 0x8b4
    3580:	e20440ff 	and	r4, r4, #255	; 0xff
    3584:	e3540001 	cmp	r4, #1
    3588:	0a000147 	beq	3aac <isr+0x1ba4>
    358c:	e5d948b4 	ldrb	r4, [r9, #2228]	; 0x8b4
    3590:	e3540003 	cmp	r4, #3
    3594:	1afffbcd 	bne	24d0 <isr+0x5c8>
    3598:	e1a04007 	mov	r4, r7
    359c:	e3a05000 	mov	r5, #0
    35a0:	e3a0b02c 	mov	fp, #44	; 0x2c
    35a4:	e5884008 	str	r4, [r8, #8]
    35a8:	e588500c 	str	r5, [r8, #12]
    35ac:	e3a0a901 	mov	sl, #16384	; 0x4000
    35b0:	e3a09001 	mov	r9, #1
    35b4:	e3a07004 	mov	r7, #4
    35b8:	e3a04000 	mov	r4, #0
    35bc:	e3a05000 	mov	r5, #0
    35c0:	e0262b91 	mla	r6, r1, fp, r2
    35c4:	e5884010 	str	r4, [r8, #16]
    35c8:	e5885014 	str	r5, [r8, #20]
    35cc:	e588a018 	str	sl, [r8, #24]
    35d0:	e5c89007 	strb	r9, [r8, #7]
    35d4:	e5c678b4 	strb	r7, [r6, #2228]	; 0x8b4
    35d8:	eafffbbc 	b	24d0 <isr+0x5c8>
    35dc:	e5d94a6c 	ldrb	r4, [r9, #2668]	; 0xa6c
    35e0:	e20440ff 	and	r4, r4, #255	; 0xff
    35e4:	e3540001 	cmp	r4, #1
    35e8:	0a000061 	beq	3774 <isr+0x186c>
    35ec:	e5d94a6c 	ldrb	r4, [r9, #2668]	; 0xa6c
    35f0:	e3540003 	cmp	r4, #3
    35f4:	1afffb80 	bne	23fc <isr+0x4f4>
    35f8:	e1a04007 	mov	r4, r7
    35fc:	e3a05000 	mov	r5, #0
    3600:	e3a0b02c 	mov	fp, #44	; 0x2c
    3604:	e5884008 	str	r4, [r8, #8]
    3608:	e588500c 	str	r5, [r8, #12]
    360c:	e3a0a903 	mov	sl, #49152	; 0xc000
    3610:	e3a09001 	mov	r9, #1
    3614:	e3a07004 	mov	r7, #4
    3618:	e3a04000 	mov	r4, #0
    361c:	e3a05000 	mov	r5, #0
    3620:	e0262b91 	mla	r6, r1, fp, r2
    3624:	e5884010 	str	r4, [r8, #16]
    3628:	e5885014 	str	r5, [r8, #20]
    362c:	e588a018 	str	sl, [r8, #24]
    3630:	e5c89007 	strb	r9, [r8, #7]
    3634:	e5c67a6c 	strb	r7, [r6, #2668]	; 0xa6c
    3638:	eafffb6f 	b	23fc <isr+0x4f4>
    363c:	e3a03080 	mov	r3, #128	; 0x80
    3640:	e51f7744 	ldr	r7, [pc, #-1860]	; 2f04 <isr+0xffc>
    3644:	e7873a01 	str	r3, [r7, r1, lsl #20]
    3648:	e2877008 	add	r7, r7, #8
    364c:	e7873a01 	str	r3, [r7, r1, lsl #20]
    3650:	e3a03000 	mov	r3, #0
    3654:	e3a05003 	mov	r5, #3
    3658:	e2877008 	add	r7, r7, #8
    365c:	e7873a01 	str	r3, [r7, r1, lsl #20]
    3660:	e2877008 	add	r7, r7, #8
    3664:	e7873a01 	str	r3, [r7, r1, lsl #20]
    3668:	e51f379c 	ldr	r3, [pc, #-1948]	; 2ed4 <isr+0xfcc>
    366c:	e2877008 	add	r7, r7, #8
    3670:	e7876a01 	str	r6, [r7, r1, lsl #20]
    3674:	e7c34a01 	strb	r4, [r3, r1, lsl #20]
    3678:	e5c8538c 	strb	r5, [r8, #908]	; 0x38c
    367c:	eafffce2 	b	2a0c <isr+0xb04>
    3680:	e51f47b0 	ldr	r4, [pc, #-1968]	; 2ed8 <isr+0xfd0>
    3684:	e3a05000 	mov	r5, #0
    3688:	e0864004 	add	r4, r6, r4
    368c:	e3a07000 	mov	r7, #0
    3690:	e3a06000 	mov	r6, #0
    3694:	e3a0b801 	mov	fp, #65536	; 0x10000
    3698:	e3a0a002 	mov	sl, #2
    369c:	e5836008 	str	r6, [r3, #8]
    36a0:	e583700c 	str	r7, [r3, #12]
    36a4:	e5834010 	str	r4, [r3, #16]
    36a8:	e5835014 	str	r5, [r3, #20]
    36ac:	e583b018 	str	fp, [r3, #24]
    36b0:	e5c39007 	strb	r9, [r3, #7]
    36b4:	e5c8a01c 	strb	sl, [r8, #28]
    36b8:	eafffcd3 	b	2a0c <isr+0xb04>
    36bc:	e1a08000 	mov	r8, r0
    36c0:	eafffc1d 	b	273c <isr+0x834>
    36c4:	e3a03080 	mov	r3, #128	; 0x80
    36c8:	e3a05003 	mov	r5, #3
    36cc:	e51f77ec 	ldr	r7, [pc, #-2028]	; 2ee8 <isr+0xfe0>
    36d0:	e7873a01 	str	r3, [r7, r1, lsl #20]
    36d4:	e2877008 	add	r7, r7, #8
    36d8:	e7873a01 	str	r3, [r7, r1, lsl #20]
    36dc:	e51f3808 	ldr	r3, [pc, #-2056]	; 2edc <isr+0xfd4>
    36e0:	e2877008 	add	r7, r7, #8
    36e4:	e7876a01 	str	r6, [r7, r1, lsl #20]
    36e8:	e7c34a01 	strb	r4, [r3, r1, lsl #20]
    36ec:	e5c85a6c 	strb	r5, [r8, #2668]	; 0xa6c
    36f0:	eafffcc5 	b	2a0c <isr+0xb04>
    36f4:	e3a03080 	mov	r3, #128	; 0x80
    36f8:	e3a05003 	mov	r5, #3
    36fc:	e51f77dc 	ldr	r7, [pc, #-2012]	; 2f28 <isr+0x1020>
    3700:	e7873a01 	str	r3, [r7, r1, lsl #20]
    3704:	e2877008 	add	r7, r7, #8
    3708:	e7873a01 	str	r3, [r7, r1, lsl #20]
    370c:	e51f3834 	ldr	r3, [pc, #-2100]	; 2ee0 <isr+0xfd8>
    3710:	e2877008 	add	r7, r7, #8
    3714:	e7876a01 	str	r6, [r7, r1, lsl #20]
    3718:	e7c34a01 	strb	r4, [r3, r1, lsl #20]
    371c:	e5c858b4 	strb	r5, [r8, #2228]	; 0x8b4
    3720:	eafffcb9 	b	2a0c <isr+0xb04>
    3724:	e3a07901 	mov	r7, #16384	; 0x4000
    3728:	e3a03003 	mov	r3, #3
    372c:	e51f5804 	ldr	r5, [pc, #-2052]	; 2f30 <isr+0x1028>
    3730:	e7857a01 	str	r7, [r5, r1, lsl #20]
    3734:	e51f7858 	ldr	r7, [pc, #-2136]	; 2ee4 <isr+0xfdc>
    3738:	e2455001 	sub	r5, r5, #1
    373c:	e7876a01 	str	r6, [r7, r1, lsl #20]
    3740:	e7c54a01 	strb	r4, [r5, r1, lsl #20]
    3744:	e5c836fc 	strb	r3, [r8, #1788]	; 0x6fc
    3748:	eafffcaf 	b	2a0c <isr+0xb04>
    374c:	e3a07000 	mov	r7, #0
    3750:	e3a05000 	mov	r5, #0
    3754:	e3a0a801 	mov	sl, #65536	; 0x10000
    3758:	e5886008 	str	r6, [r8, #8]
    375c:	e588700c 	str	r7, [r8, #12]
    3760:	e5884010 	str	r4, [r8, #16]
    3764:	e5885014 	str	r5, [r8, #20]
    3768:	e588a018 	str	sl, [r8, #24]
    376c:	e5c89007 	strb	r9, [r8, #7]
    3770:	eafffc28 	b	2818 <isr+0x910>
    3774:	e3a0902c 	mov	r9, #44	; 0x2c
    3778:	e3a06080 	mov	r6, #128	; 0x80
    377c:	e3a08003 	mov	r8, #3
    3780:	e0252991 	mla	r5, r1, r9, r2
    3784:	e51f98a4 	ldr	r9, [pc, #-2212]	; 2ee8 <isr+0xfe0>
    3788:	e7896a01 	str	r6, [r9, r1, lsl #20]
    378c:	e2899008 	add	r9, r9, #8
    3790:	e7896a01 	str	r6, [r9, r1, lsl #20]
    3794:	e51f68b0 	ldr	r6, [pc, #-2224]	; 2eec <isr+0xfe4>
    3798:	e7867a01 	str	r7, [r6, r1, lsl #20]
    379c:	e2466011 	sub	r6, r6, #17
    37a0:	e7c64a01 	strb	r4, [r6, r1, lsl #20]
    37a4:	e5c58a6c 	strb	r8, [r5, #2668]	; 0xa6c
    37a8:	eafffb13 	b	23fc <isr+0x4f4>
    37ac:	e3a0a02c 	mov	sl, #44	; 0x2c
    37b0:	e3a06080 	mov	r6, #128	; 0x80
    37b4:	e3a09001 	mov	r9, #1
    37b8:	e3a08003 	mov	r8, #3
    37bc:	e0252a91 	mla	r5, r1, sl, r2
    37c0:	e51fa8d8 	ldr	sl, [pc, #-2264]	; 2ef0 <isr+0xfe8>
    37c4:	e78a6a01 	str	r6, [sl, r1, lsl #20]
    37c8:	e28aa008 	add	sl, sl, #8
    37cc:	e78a6a01 	str	r6, [sl, r1, lsl #20]
    37d0:	e51f68e4 	ldr	r6, [pc, #-2276]	; 2ef4 <isr+0xfec>
    37d4:	e7867a01 	str	r7, [r6, r1, lsl #20]
    37d8:	e59d7000 	ldr	r7, [sp]
    37dc:	e2866008 	add	r6, r6, #8
    37e0:	e7867a01 	str	r7, [r6, r1, lsl #20]
    37e4:	e59da014 	ldr	sl, [sp, #20]
    37e8:	e51f78f8 	ldr	r7, [pc, #-2296]	; 2ef8 <isr+0xff0>
    37ec:	e2866008 	add	r6, r6, #8
    37f0:	e7c6aa01 	strb	sl, [r6, r1, lsl #20]
    37f4:	e7874a01 	str	r4, [r7, r1, lsl #20]
    37f8:	e51fa904 	ldr	sl, [pc, #-2308]	; 2efc <isr+0xff4>
    37fc:	e59d4008 	ldr	r4, [sp, #8]
    3800:	e2466021 	sub	r6, r6, #33	; 0x21
    3804:	e78a4a01 	str	r4, [sl, r1, lsl #20]
    3808:	e7c69a01 	strb	r9, [r6, r1, lsl #20]
    380c:	e5c581d4 	strb	r8, [r5, #468]	; 0x1d4
    3810:	eafffc00 	b	2818 <isr+0x910>
    3814:	e51f491c 	ldr	r4, [pc, #-2332]	; 2f00 <isr+0xff8>
    3818:	e08b4004 	add	r4, fp, r4
    381c:	e1a09004 	mov	r9, r4
    3820:	e3a0a000 	mov	sl, #0
    3824:	e3a04002 	mov	r4, #2
    3828:	e3a0b000 	mov	fp, #0
    382c:	e58d9008 	str	r9, [sp, #8]
    3830:	e58da00c 	str	sl, [sp, #12]
    3834:	e59d9000 	ldr	r9, [sp]
    3838:	e0090997 	mul	r9, r7, r9
    383c:	e59da010 	ldr	sl, [sp, #16]
    3840:	e1a07419 	lsl	r7, r9, r4
    3844:	e588a008 	str	sl, [r8, #8]
    3848:	e588b00c 	str	fp, [r8, #12]
    384c:	e28da008 	add	sl, sp, #8
    3850:	e89a0600 	ldm	sl, {r9, sl}
    3854:	e5889010 	str	r9, [r8, #16]
    3858:	e588a014 	str	sl, [r8, #20]
    385c:	e5887018 	str	r7, [r8, #24]
    3860:	e5c86007 	strb	r6, [r8, #7]
    3864:	e5c541d4 	strb	r4, [r5, #468]	; 0x1d4
    3868:	eafffbea 	b	2818 <isr+0x910>
    386c:	e3a0a02c 	mov	sl, #44	; 0x2c
    3870:	e3a08080 	mov	r8, #128	; 0x80
    3874:	e3a09003 	mov	r9, #3
    3878:	e0252a91 	mla	r5, r1, sl, r2
    387c:	e596b004 	ldr	fp, [r6, #4]
    3880:	e596a008 	ldr	sl, [r6, #8]
    3884:	e51f6988 	ldr	r6, [pc, #-2440]	; 2f04 <isr+0xffc>
    3888:	e7868a01 	str	r8, [r6, r1, lsl #20]
    388c:	e2866008 	add	r6, r6, #8
    3890:	e7868a01 	str	r8, [r6, r1, lsl #20]
    3894:	e2866008 	add	r6, r6, #8
    3898:	e786ba01 	str	fp, [r6, r1, lsl #20]
    389c:	e51f899c 	ldr	r8, [pc, #-2460]	; 2f08 <isr+0x1000>
    38a0:	e2866008 	add	r6, r6, #8
    38a4:	e786aa01 	str	sl, [r6, r1, lsl #20]
    38a8:	e2466019 	sub	r6, r6, #25
    38ac:	e7887a01 	str	r7, [r8, r1, lsl #20]
    38b0:	e7c64a01 	strb	r4, [r6, r1, lsl #20]
    38b4:	e5c5938c 	strb	r9, [r5, #908]	; 0x38c
    38b8:	eafffb6f 	b	267c <isr+0x774>
    38bc:	e3a03080 	mov	r3, #128	; 0x80
    38c0:	e3a06001 	mov	r6, #1
    38c4:	e3a05003 	mov	r5, #3
    38c8:	e51f79c4 	ldr	r7, [pc, #-2500]	; 2f0c <isr+0x1004>
    38cc:	e7873a01 	str	r3, [r7, r1, lsl #20]
    38d0:	e2877008 	add	r7, r7, #8
    38d4:	e7873a01 	str	r3, [r7, r1, lsl #20]
    38d8:	e51f39d0 	ldr	r3, [pc, #-2512]	; 2f10 <isr+0x1008>
    38dc:	e7834a01 	str	r4, [r3, r1, lsl #20]
    38e0:	e2433011 	sub	r3, r3, #17
    38e4:	e7c36a01 	strb	r6, [r3, r1, lsl #20]
    38e8:	e5c8501c 	strb	r5, [r8, #28]
    38ec:	eafffc46 	b	2a0c <isr+0xb04>
    38f0:	e3a08002 	mov	r8, #2
    38f4:	e08c5001 	add	r5, ip, r1
    38f8:	e0815085 	add	r5, r1, r5, lsl #1
    38fc:	e082b105 	add	fp, r2, r5, lsl #2
    3900:	e20880ff 	and	r8, r8, #255	; 0xff
    3904:	e5cb854c 	strb	r8, [fp, #1356]	; 0x54c
    3908:	e5db854c 	ldrb	r8, [fp, #1356]	; 0x54c
    390c:	e0855008 	add	r5, r5, r8
    3910:	e2855f53 	add	r5, r5, #332	; 0x14c
    3914:	e7925105 	ldr	r5, [r2, r5, lsl #2]
    3918:	e5db8544 	ldrb	r8, [fp, #1348]	; 0x544
    391c:	e3580000 	cmp	r8, #0
    3920:	e5da8008 	ldrb	r8, [sl, #8]
    3924:	e58d8008 	str	r8, [sp, #8]
    3928:	e5da800a 	ldrb	r8, [sl, #10]
    392c:	e58d5010 	str	r5, [sp, #16]
    3930:	e1a05a01 	lsl	r5, r1, #20
    3934:	e58d8014 	str	r8, [sp, #20]
    3938:	e2858309 	add	r8, r5, #603979776	; 0x24000000
    393c:	1a000004 	bne	3954 <isr+0x1a4c>
    3940:	e3a0a001 	mov	sl, #1
    3944:	e59d5000 	ldr	r5, [sp]
    3948:	e3550000 	cmp	r5, #0
    394c:	e5cba544 	strb	sl, [fp, #1348]	; 0x544
    3950:	1a000063 	bne	3ae4 <isr+0x1bdc>
    3954:	e08c5001 	add	r5, ip, r1
    3958:	e0815085 	add	r5, r1, r5, lsl #1
    395c:	e0825105 	add	r5, r2, r5, lsl #2
    3960:	e5d55544 	ldrb	r5, [r5, #1348]	; 0x544
    3964:	e3550001 	cmp	r5, #1
    3968:	0a000039 	beq	3a54 <isr+0x1b4c>
    396c:	e08c5001 	add	r5, ip, r1
    3970:	e0815085 	add	r5, r1, r5, lsl #1
    3974:	e0825105 	add	r5, r2, r5, lsl #2
    3978:	e5d57544 	ldrb	r7, [r5, #1348]	; 0x544
    397c:	e3570002 	cmp	r7, #2
    3980:	0a000019 	beq	39ec <isr+0x1ae4>
    3984:	e5d54544 	ldrb	r4, [r5, #1348]	; 0x544
    3988:	e3540003 	cmp	r4, #3
    398c:	1a00000f 	bne	39d0 <isr+0x1ac8>
    3990:	e3a05000 	mov	r5, #0
    3994:	e3a0b02c 	mov	fp, #44	; 0x2c
    3998:	e59d4010 	ldr	r4, [sp, #16]
    399c:	e3a0a801 	mov	sl, #65536	; 0x10000
    39a0:	e5884008 	str	r4, [r8, #8]
    39a4:	e588500c 	str	r5, [r8, #12]
    39a8:	e3a09001 	mov	r9, #1
    39ac:	e3a07004 	mov	r7, #4
    39b0:	e3a04000 	mov	r4, #0
    39b4:	e3a05000 	mov	r5, #0
    39b8:	e0262b91 	mla	r6, r1, fp, r2
    39bc:	e5884010 	str	r4, [r8, #16]
    39c0:	e5885014 	str	r5, [r8, #20]
    39c4:	e588a018 	str	sl, [r8, #24]
    39c8:	e5c89007 	strb	r9, [r8, #7]
    39cc:	e5c67544 	strb	r7, [r6, #1348]	; 0x544
    39d0:	e08c4001 	add	r4, ip, r1
    39d4:	e0814084 	add	r4, r1, r4, lsl #1
    39d8:	e0824104 	add	r4, r2, r4, lsl #2
    39dc:	e5d44544 	ldrb	r4, [r4, #1348]	; 0x544
    39e0:	e3540003 	cmp	r4, #3
    39e4:	1afff9c9 	bne	2110 <isr+0x208>
    39e8:	eafffbc8 	b	2910 <isr+0xa08>
    39ec:	e3a0702c 	mov	r7, #44	; 0x2c
    39f0:	e3a08901 	mov	r8, #16384	; 0x4000
    39f4:	e3a0a001 	mov	sl, #1
    39f8:	e3a0b003 	mov	fp, #3
    39fc:	e0252791 	mla	r5, r1, r7, r2
    3a00:	e51f7af4 	ldr	r7, [pc, #-2804]	; 2f14 <isr+0x100c>
    3a04:	e7878a01 	str	r8, [r7, r1, lsl #20]
    3a08:	e2877008 	add	r7, r7, #8
    3a0c:	e7c76a01 	strb	r6, [r7, r1, lsl #20]
    3a10:	e51f6b00 	ldr	r6, [pc, #-2816]	; 2f18 <isr+0x1010>
    3a14:	e59d7008 	ldr	r7, [sp, #8]
    3a18:	e59d8014 	ldr	r8, [sp, #20]
    3a1c:	e7c67a01 	strb	r7, [r6, r1, lsl #20]
    3a20:	e51f7b0c 	ldr	r7, [pc, #-2828]	; 2f1c <isr+0x1014>
    3a24:	e2866008 	add	r6, r6, #8
    3a28:	e7c68a01 	strb	r8, [r6, r1, lsl #20]
    3a2c:	e7874a01 	str	r4, [r7, r1, lsl #20]
    3a30:	e51f8b18 	ldr	r8, [pc, #-2840]	; 2f20 <isr+0x1018>
    3a34:	e51f4b18 	ldr	r4, [pc, #-2840]	; 2f24 <isr+0x101c>
    3a38:	e59d7010 	ldr	r7, [sp, #16]
    3a3c:	e2866018 	add	r6, r6, #24
    3a40:	e7889a01 	str	r9, [r8, r1, lsl #20]
    3a44:	e7867a01 	str	r7, [r6, r1, lsl #20]
    3a48:	e7c4aa01 	strb	sl, [r4, r1, lsl #20]
    3a4c:	e5c5b544 	strb	fp, [r5, #1348]	; 0x544
    3a50:	eaffffde 	b	39d0 <isr+0x1ac8>
    3a54:	e3a0b02c 	mov	fp, #44	; 0x2c
    3a58:	e3a0a002 	mov	sl, #2
    3a5c:	e0252b91 	mla	r5, r1, fp, r2
    3a60:	e3570000 	cmp	r7, #0
    3a64:	e5c5a544 	strb	sl, [r5, #1348]	; 0x544
    3a68:	0affffbf 	beq	396c <isr+0x1a64>
    3a6c:	e1a04009 	mov	r4, r9
    3a70:	e1a06007 	mov	r6, r7
    3a74:	e3a05000 	mov	r5, #0
    3a78:	e3a07000 	mov	r7, #0
    3a7c:	e59d9008 	ldr	r9, [sp, #8]
    3a80:	e3590000 	cmp	r9, #0
    3a84:	e5886008 	str	r6, [r8, #8]
    3a88:	e588700c 	str	r7, [r8, #12]
    3a8c:	e5884010 	str	r4, [r8, #16]
    3a90:	e5885014 	str	r5, [r8, #20]
    3a94:	13a04004 	movne	r4, #4
    3a98:	03a04801 	moveq	r4, #65536	; 0x10000
    3a9c:	e5884018 	str	r4, [r8, #24]
    3aa0:	e3a04001 	mov	r4, #1
    3aa4:	e5c84007 	strb	r4, [r8, #7]
    3aa8:	eaffffc8 	b	39d0 <isr+0x1ac8>
    3aac:	e3a0902c 	mov	r9, #44	; 0x2c
    3ab0:	e3a06080 	mov	r6, #128	; 0x80
    3ab4:	e3a08003 	mov	r8, #3
    3ab8:	e0252991 	mla	r5, r1, r9, r2
    3abc:	e51f9b9c 	ldr	r9, [pc, #-2972]	; 2f28 <isr+0x1020>
    3ac0:	e7896a01 	str	r6, [r9, r1, lsl #20]
    3ac4:	e2899008 	add	r9, r9, #8
    3ac8:	e7896a01 	str	r6, [r9, r1, lsl #20]
    3acc:	e51f6ba8 	ldr	r6, [pc, #-2984]	; 2f2c <isr+0x1024>
    3ad0:	e7867a01 	str	r7, [r6, r1, lsl #20]
    3ad4:	e2466011 	sub	r6, r6, #17
    3ad8:	e7c64a01 	strb	r4, [r6, r1, lsl #20]
    3adc:	e5c588b4 	strb	r8, [r5, #2228]	; 0x8b4
    3ae0:	eafffa7a 	b	24d0 <isr+0x5c8>
    3ae4:	e1a06005 	mov	r6, r5
    3ae8:	e3a07000 	mov	r7, #0
    3aec:	e3a05000 	mov	r5, #0
    3af0:	e3a09801 	mov	r9, #65536	; 0x10000
    3af4:	e5886008 	str	r6, [r8, #8]
    3af8:	e588700c 	str	r7, [r8, #12]
    3afc:	e5884010 	str	r4, [r8, #16]
    3b00:	e5885014 	str	r5, [r8, #20]
    3b04:	e5889018 	str	r9, [r8, #24]
    3b08:	e5c8a007 	strb	sl, [r8, #7]
    3b0c:	eaffffaf 	b	39d0 <isr+0x1ac8>
    3b10:	e1a08000 	mov	r8, r0
    3b14:	eaffff76 	b	38f4 <isr+0x19ec>
    3b18:	e1a0800b 	mov	r8, fp
    3b1c:	eaffff74 	b	38f4 <isr+0x19ec>
    3b20:	e3a08001 	mov	r8, #1
    3b24:	eaffff72 	b	38f4 <isr+0x19ec>
    3b28:	e3a0802c 	mov	r8, #44	; 0x2c
    3b2c:	e3a09901 	mov	r9, #16384	; 0x4000
    3b30:	e3a06003 	mov	r6, #3
    3b34:	e0252891 	mla	r5, r1, r8, r2
    3b38:	e51f8c10 	ldr	r8, [pc, #-3088]	; 2f30 <isr+0x1028>
    3b3c:	e7889a01 	str	r9, [r8, r1, lsl #20]
    3b40:	e2888008 	add	r8, r8, #8
    3b44:	e7887a01 	str	r7, [r8, r1, lsl #20]
    3b48:	e51f7c1c 	ldr	r7, [pc, #-3100]	; 2f34 <isr+0x102c>
    3b4c:	e7c74a01 	strb	r4, [r7, r1, lsl #20]
    3b50:	e5c566fc 	strb	r6, [r5, #1788]	; 0x6fc
    3b54:	eafffa93 	b	25a8 <isr+0x6a0>

00003b58 <add_canny_non_max>:
    3b58:	e92d4ff0 	push	{r4, r5, r6, r7, r8, r9, sl, fp, lr}
    3b5c:	e3a0000c 	mov	r0, #12
    3b60:	e24dd02c 	sub	sp, sp, #44	; 0x2c
    3b64:	ebfff228 	bl	40c <get_memory>
    3b68:	e1a04000 	mov	r4, r0
    3b6c:	e3a00f4b 	mov	r0, #300	; 0x12c
    3b70:	ebfff225 	bl	40c <get_memory>
    3b74:	e1a03000 	mov	r3, r0
    3b78:	e3a00801 	mov	r0, #65536	; 0x10000
    3b7c:	e58d3010 	str	r3, [sp, #16]
    3b80:	ebfff221 	bl	40c <get_memory>
    3b84:	e5840000 	str	r0, [r4]
    3b88:	e3a00801 	mov	r0, #65536	; 0x10000
    3b8c:	ebfff21e 	bl	40c <get_memory>
    3b90:	e5840004 	str	r0, [r4, #4]
    3b94:	e3a00801 	mov	r0, #65536	; 0x10000
    3b98:	ebfff21b 	bl	40c <get_memory>
    3b9c:	e3a03000 	mov	r3, #0
    3ba0:	e1a05000 	mov	r5, r0
    3ba4:	e3a01001 	mov	r1, #1
    3ba8:	e3e08000 	mvn	r8, #0
    3bac:	e59d6010 	ldr	r6, [sp, #16]
    3bb0:	e59d0010 	ldr	r0, [sp, #16]
    3bb4:	e59d2010 	ldr	r2, [sp, #16]
    3bb8:	e5845008 	str	r5, [r4, #8]
    3bbc:	e59dc010 	ldr	ip, [sp, #16]
    3bc0:	e5863000 	str	r3, [r6]
    3bc4:	e5804004 	str	r4, [r0, #4]
    3bc8:	e59d0010 	ldr	r0, [sp, #16]
    3bcc:	e5823008 	str	r3, [r2, #8]
    3bd0:	e59d2010 	ldr	r2, [sp, #16]
    3bd4:	e58c300c 	str	r3, [ip, #12]
    3bd8:	e59dc010 	ldr	ip, [sp, #16]
    3bdc:	e58030d8 	str	r3, [r0, #216]	; 0xd8
    3be0:	e59d0010 	ldr	r0, [sp, #16]
    3be4:	e58230ec 	str	r3, [r2, #236]	; 0xec
    3be8:	e59d2010 	ldr	r2, [sp, #16]
    3bec:	e58c30dc 	str	r3, [ip, #220]	; 0xdc
    3bf0:	e59dc010 	ldr	ip, [sp, #16]
    3bf4:	e58030f0 	str	r3, [r0, #240]	; 0xf0
    3bf8:	e59d0010 	ldr	r0, [sp, #16]
    3bfc:	e58230e0 	str	r3, [r2, #224]	; 0xe0
    3c00:	e59d2010 	ldr	r2, [sp, #16]
    3c04:	e58c30f4 	str	r3, [ip, #244]	; 0xf4
    3c08:	e59fe11c 	ldr	lr, [pc, #284]	; 3d2c <add_canny_non_max+0x1d4>
    3c0c:	e59dc010 	ldr	ip, [sp, #16]
    3c10:	e58030e4 	str	r3, [r0, #228]	; 0xe4
    3c14:	e58230f8 	str	r3, [r2, #248]	; 0xf8
    3c18:	e59d0010 	ldr	r0, [sp, #16]
    3c1c:	e59d2010 	ldr	r2, [sp, #16]
    3c20:	e58c30e8 	str	r3, [ip, #232]	; 0xe8
    3c24:	e58d3004 	str	r3, [sp, #4]
    3c28:	e58030fc 	str	r3, [r0, #252]	; 0xfc
    3c2c:	e5821100 	str	r1, [r2, #256]	; 0x100
    3c30:	e8be000f 	ldm	lr!, {r0, r1, r2, r3}
    3c34:	e28dc014 	add	ip, sp, #20
    3c38:	e8ac000f 	stmia	ip!, {r0, r1, r2, r3}
    3c3c:	e8940840 	ldm	r4, {r6, fp}
    3c40:	e59e3000 	ldr	r3, [lr]
    3c44:	e24bbc02 	sub	fp, fp, #512	; 0x200
    3c48:	e2455c02 	sub	r5, r5, #512	; 0x200
    3c4c:	e58c3000 	str	r3, [ip]
    3c50:	e04b3006 	sub	r3, fp, r6
    3c54:	e58d3008 	str	r3, [sp, #8]
    3c58:	e0453006 	sub	r3, r5, r6
    3c5c:	e59f70cc 	ldr	r7, [pc, #204]	; 3d30 <add_canny_non_max+0x1d8>
    3c60:	e58d300c 	str	r3, [sp, #12]
    3c64:	e2866f7f 	add	r6, r6, #508	; 0x1fc
    3c68:	e59d3004 	ldr	r3, [sp, #4]
    3c6c:	e1a04003 	mov	r4, r3
    3c70:	e0842497 	umull	r2, r4, r7, r4
    3c74:	e1a04124 	lsr	r4, r4, #2
    3c78:	e0844104 	add	r4, r4, r4, lsl #2
    3c7c:	e1a05003 	mov	r5, r3
    3c80:	e0434004 	sub	r4, r3, r4
    3c84:	e59d3008 	ldr	r3, [sp, #8]
    3c88:	e0839006 	add	r9, r3, r6
    3c8c:	e59d300c 	ldr	r3, [sp, #12]
    3c90:	e246ac02 	sub	sl, r6, #512	; 0x200
    3c94:	e083b006 	add	fp, r3, r6
    3c98:	e1a00005 	mov	r0, r5
    3c9c:	eb000929 	bl	6148 <__aeabi_i2f>
    3ca0:	e284c001 	add	ip, r4, #1
    3ca4:	e08e3c97 	umull	r3, lr, r7, ip
    3ca8:	e28d3028 	add	r3, sp, #40	; 0x28
    3cac:	e5aa0004 	str	r0, [sl, #4]!
    3cb0:	e0834104 	add	r4, r3, r4, lsl #2
    3cb4:	e5140014 	ldr	r0, [r4, #-20]	; 0xffffffec
    3cb8:	e1a0412e 	lsr	r4, lr, #2
    3cbc:	e2855001 	add	r5, r5, #1
    3cc0:	e0844104 	add	r4, r4, r4, lsl #2
    3cc4:	e15a0006 	cmp	sl, r6
    3cc8:	e5a90004 	str	r0, [r9, #4]!
    3ccc:	e205507f 	and	r5, r5, #127	; 0x7f
    3cd0:	e04c4004 	sub	r4, ip, r4
    3cd4:	e5ab8004 	str	r8, [fp, #4]!
    3cd8:	1affffee 	bne	3c98 <add_canny_non_max+0x140>
    3cdc:	e59d3004 	ldr	r3, [sp, #4]
    3ce0:	e2833001 	add	r3, r3, #1
    3ce4:	e3530080 	cmp	r3, #128	; 0x80
    3ce8:	e58d3004 	str	r3, [sp, #4]
    3cec:	e28a6c02 	add	r6, sl, #512	; 0x200
    3cf0:	1affffdc 	bne	3c68 <add_canny_non_max+0x110>
    3cf4:	e3a02001 	mov	r2, #1
    3cf8:	e59f1034 	ldr	r1, [pc, #52]	; 3d34 <add_canny_non_max+0x1dc>
    3cfc:	e59f3034 	ldr	r3, [pc, #52]	; 3d38 <add_canny_non_max+0x1e0>
    3d00:	e5911000 	ldr	r1, [r1]
    3d04:	e5933000 	ldr	r3, [r3]
    3d08:	e5911000 	ldr	r1, [r1]
    3d0c:	e5933000 	ldr	r3, [r3]
    3d10:	e5911000 	ldr	r1, [r1]
    3d14:	e59d0010 	ldr	r0, [sp, #16]
    3d18:	e5810000 	str	r0, [r1]
    3d1c:	e5832000 	str	r2, [r3]
    3d20:	e28dd02c 	add	sp, sp, #44	; 0x2c
    3d24:	e8bd4ff0 	pop	{r4, r5, r6, r7, r8, r9, sl, fp, lr}
    3d28:	e12fff1e 	bx	lr
    3d2c:	00006d7c 	andeq	r6, r0, ip, ror sp
    3d30:	cccccccd 	stclgt	12, cr12, [ip], {205}	; 0xcd
    3d34:	800016a0 	andhi	r1, r0, r0, lsr #13
    3d38:	800016a4 	andhi	r1, r0, r4, lsr #13

00003d3c <canny_non_max_check_output>:
    3d3c:	e92d4ff0 	push	{r4, r5, r6, r7, r8, r9, sl, fp, lr}
    3d40:	e1a04000 	mov	r4, r0
    3d44:	e3a0b000 	mov	fp, #0
    3d48:	e24dd01c 	sub	sp, sp, #28
    3d4c:	e59f0254 	ldr	r0, [pc, #596]	; 3fa8 <canny_non_max_check_output+0x26c>
    3d50:	e58db00c 	str	fp, [sp, #12]
    3d54:	eb000e99 	bl	77c0 <puts>
    3d58:	e5943008 	ldr	r3, [r4, #8]
    3d5c:	e2433004 	sub	r3, r3, #4
    3d60:	e58d3010 	str	r3, [sp, #16]
    3d64:	e5943004 	ldr	r3, [r4, #4]
    3d68:	e594a000 	ldr	sl, [r4]
    3d6c:	e58d3008 	str	r3, [sp, #8]
    3d70:	e59d200c 	ldr	r2, [sp, #12]
    3d74:	e242107f 	sub	r1, r2, #127	; 0x7f
    3d78:	e2713000 	rsbs	r3, r1, #0
    3d7c:	e0a33001 	adc	r3, r3, r1
    3d80:	e28a6c02 	add	r6, sl, #512	; 0x200
    3d84:	e3520000 	cmp	r2, #0
    3d88:	e58d6014 	str	r6, [sp, #20]
    3d8c:	11a09003 	movne	r9, r3
    3d90:	03a09001 	moveq	r9, #1
    3d94:	e24a5c02 	sub	r5, sl, #512	; 0x200
    3d98:	e59d7010 	ldr	r7, [sp, #16]
    3d9c:	e3a04000 	mov	r4, #0
    3da0:	ea00001b 	b	3e14 <canny_non_max_check_output+0xd8>
    3da4:	e59f1200 	ldr	r1, [pc, #512]	; 3fac <canny_non_max_check_output+0x270>
    3da8:	e1a00008 	mov	r0, r8
    3dac:	eb000a07 	bl	65d0 <__aeabi_fcmplt>
    3db0:	e3500000 	cmp	r0, #0
    3db4:	0a000032 	beq	3e84 <canny_non_max_check_output+0x148>
    3db8:	e51a3004 	ldr	r3, [sl, #-4]
    3dbc:	e59a1004 	ldr	r1, [sl, #4]
    3dc0:	e58d3004 	str	r3, [sp, #4]
    3dc4:	e59a8000 	ldr	r8, [sl]
    3dc8:	e1a00008 	mov	r0, r8
    3dcc:	eb000a0b 	bl	6600 <__aeabi_fcmpge>
    3dd0:	e3500000 	cmp	r0, #0
    3dd4:	0a000005 	beq	3df0 <canny_non_max_check_output+0xb4>
    3dd8:	e59d1004 	ldr	r1, [sp, #4]
    3ddc:	e1a00008 	mov	r0, r8
    3de0:	eb000a06 	bl	6600 <__aeabi_fcmpge>
    3de4:	e3500000 	cmp	r0, #0
    3de8:	11a00008 	movne	r0, r8
    3dec:	1b000a0f 	blne	6630 <__aeabi_f2uiz>
    3df0:	e5b73004 	ldr	r3, [r7, #4]!
    3df4:	e2844001 	add	r4, r4, #1
    3df8:	e1530000 	cmp	r3, r0
    3dfc:	128bb001 	addne	fp, fp, #1
    3e00:	e3540080 	cmp	r4, #128	; 0x80
    3e04:	e28aa004 	add	sl, sl, #4
    3e08:	e2866004 	add	r6, r6, #4
    3e0c:	e2855004 	add	r5, r5, #4
    3e10:	0a000050 	beq	3f58 <canny_non_max_check_output+0x21c>
    3e14:	e3590000 	cmp	r9, #0
    3e18:	13a00000 	movne	r0, #0
    3e1c:	1afffff3 	bne	3df0 <canny_non_max_check_output+0xb4>
    3e20:	e354007f 	cmp	r4, #127	; 0x7f
    3e24:	13540000 	cmpne	r4, #0
    3e28:	01a00009 	moveq	r0, r9
    3e2c:	0affffef 	beq	3df0 <canny_non_max_check_output+0xb4>
    3e30:	e59d3008 	ldr	r3, [sp, #8]
    3e34:	e7930104 	ldr	r0, [r3, r4, lsl #2]
    3e38:	eb00066a 	bl	57e8 <__aeabi_f2d>
    3e3c:	e28f3f57 	add	r3, pc, #348	; 0x15c
    3e40:	e893000c 	ldm	r3, {r2, r3}
    3e44:	eb000696 	bl	58a4 <__aeabi_dmul>
    3e48:	eb000822 	bl	5ed8 <__aeabi_d2f>
    3e4c:	e3a01000 	mov	r1, #0
    3e50:	e1a08000 	mov	r8, r0
    3e54:	eb0009dd 	bl	65d0 <__aeabi_fcmplt>
    3e58:	e3500000 	cmp	r0, #0
    3e5c:	0a000003 	beq	3e70 <canny_non_max_check_output+0x134>
    3e60:	e1a00008 	mov	r0, r8
    3e64:	e59f1144 	ldr	r1, [pc, #324]	; 3fb0 <canny_non_max_check_output+0x274>
    3e68:	eb000845 	bl	5f84 <__addsf3>
    3e6c:	e1a08000 	mov	r8, r0
    3e70:	e3a01000 	mov	r1, #0
    3e74:	e1a00008 	mov	r0, r8
    3e78:	eb0009e0 	bl	6600 <__aeabi_fcmpge>
    3e7c:	e3500000 	cmp	r0, #0
    3e80:	1affffc7 	bne	3da4 <canny_non_max_check_output+0x68>
    3e84:	e59f1128 	ldr	r1, [pc, #296]	; 3fb4 <canny_non_max_check_output+0x278>
    3e88:	e1a00008 	mov	r0, r8
    3e8c:	eb0009db 	bl	6600 <__aeabi_fcmpge>
    3e90:	e3500000 	cmp	r0, #0
    3e94:	0a000004 	beq	3eac <canny_non_max_check_output+0x170>
    3e98:	e59f1110 	ldr	r1, [pc, #272]	; 3fb0 <canny_non_max_check_output+0x274>
    3e9c:	e1a00008 	mov	r0, r8
    3ea0:	eb0009d0 	bl	65e8 <__aeabi_fcmple>
    3ea4:	e3500000 	cmp	r0, #0
    3ea8:	1affffc2 	bne	3db8 <canny_non_max_check_output+0x7c>
    3eac:	e59f10f8 	ldr	r1, [pc, #248]	; 3fac <canny_non_max_check_output+0x270>
    3eb0:	e1a00008 	mov	r0, r8
    3eb4:	eb0009d1 	bl	6600 <__aeabi_fcmpge>
    3eb8:	e3500000 	cmp	r0, #0
    3ebc:	0a000007 	beq	3ee0 <canny_non_max_check_output+0x1a4>
    3ec0:	e59f10f0 	ldr	r1, [pc, #240]	; 3fb8 <canny_non_max_check_output+0x27c>
    3ec4:	e1a00008 	mov	r0, r8
    3ec8:	eb0009c0 	bl	65d0 <__aeabi_fcmplt>
    3ecc:	e3500000 	cmp	r0, #0
    3ed0:	15953004 	ldrne	r3, [r5, #4]
    3ed4:	15161004 	ldrne	r1, [r6, #-4]
    3ed8:	158d3004 	strne	r3, [sp, #4]
    3edc:	1affffb8 	bne	3dc4 <canny_non_max_check_output+0x88>
    3ee0:	e59f10d0 	ldr	r1, [pc, #208]	; 3fb8 <canny_non_max_check_output+0x27c>
    3ee4:	e1a00008 	mov	r0, r8
    3ee8:	eb0009c4 	bl	6600 <__aeabi_fcmpge>
    3eec:	e3500000 	cmp	r0, #0
    3ef0:	0a000007 	beq	3f14 <canny_non_max_check_output+0x1d8>
    3ef4:	e59f10c0 	ldr	r1, [pc, #192]	; 3fbc <canny_non_max_check_output+0x280>
    3ef8:	e1a00008 	mov	r0, r8
    3efc:	eb0009b3 	bl	65d0 <__aeabi_fcmplt>
    3f00:	e3500000 	cmp	r0, #0
    3f04:	15953000 	ldrne	r3, [r5]
    3f08:	15961000 	ldrne	r1, [r6]
    3f0c:	158d3004 	strne	r3, [sp, #4]
    3f10:	1affffab 	bne	3dc4 <canny_non_max_check_output+0x88>
    3f14:	e59f10a0 	ldr	r1, [pc, #160]	; 3fbc <canny_non_max_check_output+0x280>
    3f18:	e1a00008 	mov	r0, r8
    3f1c:	eb0009b7 	bl	6600 <__aeabi_fcmpge>
    3f20:	e3500000 	cmp	r0, #0
    3f24:	0a000007 	beq	3f48 <canny_non_max_check_output+0x20c>
    3f28:	e1a00008 	mov	r0, r8
    3f2c:	e59f1080 	ldr	r1, [pc, #128]	; 3fb4 <canny_non_max_check_output+0x278>
    3f30:	eb0009a6 	bl	65d0 <__aeabi_fcmplt>
    3f34:	e3500000 	cmp	r0, #0
    3f38:	15963004 	ldrne	r3, [r6, #4]
    3f3c:	15151004 	ldrne	r1, [r5, #-4]
    3f40:	158d3004 	strne	r3, [sp, #4]
    3f44:	1affff9e 	bne	3dc4 <canny_non_max_check_output+0x88>
    3f48:	e59f3070 	ldr	r3, [pc, #112]	; 3fc0 <canny_non_max_check_output+0x284>
    3f4c:	e58d3004 	str	r3, [sp, #4]
    3f50:	e1a01003 	mov	r1, r3
    3f54:	eaffff9a 	b	3dc4 <canny_non_max_check_output+0x88>
    3f58:	e59d300c 	ldr	r3, [sp, #12]
    3f5c:	e2833001 	add	r3, r3, #1
    3f60:	e58d300c 	str	r3, [sp, #12]
    3f64:	e3530080 	cmp	r3, #128	; 0x80
    3f68:	e59d3010 	ldr	r3, [sp, #16]
    3f6c:	e2833c02 	add	r3, r3, #512	; 0x200
    3f70:	e58d3010 	str	r3, [sp, #16]
    3f74:	e59d3008 	ldr	r3, [sp, #8]
    3f78:	e2833c02 	add	r3, r3, #512	; 0x200
    3f7c:	e58d3008 	str	r3, [sp, #8]
    3f80:	e59da014 	ldr	sl, [sp, #20]
    3f84:	1affff79 	bne	3d70 <canny_non_max_check_output+0x34>
    3f88:	e1a0100b 	mov	r1, fp
    3f8c:	e59f0030 	ldr	r0, [pc, #48]	; 3fc4 <canny_non_max_check_output+0x288>
    3f90:	eb000db5 	bl	766c <printf>
    3f94:	e28dd01c 	add	sp, sp, #28
    3f98:	e8bd4ff0 	pop	{r4, r5, r6, r7, r8, r9, sl, fp, lr}
    3f9c:	e12fff1e 	bx	lr
    3fa0:	1a63c1f8 	bne	18f4788 <__ascii_wctomb+0x18e3b50>
    3fa4:	404ca5dc 	ldrdmi	sl, [ip], #-92	; 0xffffffa4
    3fa8:	00006db8 			; <UNDEFINED> instruction: 0x00006db8
    3fac:	41b40000 			; <UNDEFINED> instruction: 0x41b40000
    3fb0:	43340000 	teqmi	r4, #0
    3fb4:	431d8000 	tstmi	sp, #0
    3fb8:	42870000 	addmi	r0, r7, #0
    3fbc:	42e10000 	rscmi	r0, r1, #0
    3fc0:	437f0000 	cmnmi	pc, #0
    3fc4:	00006dd0 	ldrdeq	r6, [r0], -r0

00003fc8 <add_convolution>:
    3fc8:	e92d41f0 	push	{r4, r5, r6, r7, r8, lr}
    3fcc:	e3a00018 	mov	r0, #24
    3fd0:	e24dd008 	sub	sp, sp, #8
    3fd4:	ebfff10c 	bl	40c <get_memory>
    3fd8:	e1a05000 	mov	r5, r0
    3fdc:	e3a00f4b 	mov	r0, #300	; 0x12c
    3fe0:	ebfff109 	bl	40c <get_memory>
    3fe4:	e1a03000 	mov	r3, r0
    3fe8:	e3a00801 	mov	r0, #65536	; 0x10000
    3fec:	e58d3004 	str	r3, [sp, #4]
    3ff0:	ebfff105 	bl	40c <get_memory>
    3ff4:	e5850000 	str	r0, [r5]
    3ff8:	e3a00801 	mov	r0, #65536	; 0x10000
    3ffc:	ebfff102 	bl	40c <get_memory>
    4000:	e5850014 	str	r0, [r5, #20]
    4004:	e3a00064 	mov	r0, #100	; 0x64
    4008:	ebfff0ff 	bl	40c <get_memory>
    400c:	e3a01005 	mov	r1, #5
    4010:	e3a03000 	mov	r3, #0
    4014:	e1a08000 	mov	r8, r0
    4018:	e3a02001 	mov	r2, #1
    401c:	e5851008 	str	r1, [r5, #8]
    4020:	e585100c 	str	r1, [r5, #12]
    4024:	e59d0004 	ldr	r0, [sp, #4]
    4028:	e59d1004 	ldr	r1, [sp, #4]
    402c:	e5858004 	str	r8, [r5, #4]
    4030:	e5c53010 	strb	r3, [r5, #16]
    4034:	e5802000 	str	r2, [r0]
    4038:	e5815004 	str	r5, [r1, #4]
    403c:	e59d1004 	ldr	r1, [sp, #4]
    4040:	e5813008 	str	r3, [r1, #8]
    4044:	e59d1004 	ldr	r1, [sp, #4]
    4048:	e581300c 	str	r3, [r1, #12]
    404c:	e59d1004 	ldr	r1, [sp, #4]
    4050:	e58130d8 	str	r3, [r1, #216]	; 0xd8
    4054:	e59d1004 	ldr	r1, [sp, #4]
    4058:	e58130ec 	str	r3, [r1, #236]	; 0xec
    405c:	e59d1004 	ldr	r1, [sp, #4]
    4060:	e58130dc 	str	r3, [r1, #220]	; 0xdc
    4064:	e59d1004 	ldr	r1, [sp, #4]
    4068:	e58130f0 	str	r3, [r1, #240]	; 0xf0
    406c:	e59d1004 	ldr	r1, [sp, #4]
    4070:	e58130e0 	str	r3, [r1, #224]	; 0xe0
    4074:	e59d1004 	ldr	r1, [sp, #4]
    4078:	e58130f4 	str	r3, [r1, #244]	; 0xf4
    407c:	e59d1004 	ldr	r1, [sp, #4]
    4080:	e58130e4 	str	r3, [r1, #228]	; 0xe4
    4084:	e59d1004 	ldr	r1, [sp, #4]
    4088:	e58130f8 	str	r3, [r1, #248]	; 0xf8
    408c:	e59d1004 	ldr	r1, [sp, #4]
    4090:	e58130e8 	str	r3, [r1, #232]	; 0xe8
    4094:	e59d1004 	ldr	r1, [sp, #4]
    4098:	e1a04003 	mov	r4, r3
    409c:	e58130fc 	str	r3, [r1, #252]	; 0xfc
    40a0:	e59d3004 	ldr	r3, [sp, #4]
    40a4:	e5956000 	ldr	r6, [r5]
    40a8:	e5955014 	ldr	r5, [r5, #20]
    40ac:	e59f7128 	ldr	r7, [pc, #296]	; 41dc <add_convolution+0x214>
    40b0:	e5832100 	str	r2, [r3, #256]	; 0x100
    40b4:	e2466004 	sub	r6, r6, #4
    40b8:	e2455004 	sub	r5, r5, #4
    40bc:	e20400ff 	and	r0, r4, #255	; 0xff
    40c0:	e2800001 	add	r0, r0, #1
    40c4:	eb00081f 	bl	6148 <__aeabi_i2f>
    40c8:	e2844001 	add	r4, r4, #1
    40cc:	e3540901 	cmp	r4, #16384	; 0x4000
    40d0:	e5a60004 	str	r0, [r6, #4]!
    40d4:	e5a57004 	str	r7, [r5, #4]!
    40d8:	1afffff7 	bne	40bc <add_convolution+0xf4>
    40dc:	e3a00101 	mov	r0, #1073741824	; 0x40000000
    40e0:	e59f10f8 	ldr	r1, [pc, #248]	; 41e0 <add_convolution+0x218>
    40e4:	e59f30f8 	ldr	r3, [pc, #248]	; 41e4 <add_convolution+0x21c>
    40e8:	e5911000 	ldr	r1, [r1]
    40ec:	e5933000 	ldr	r3, [r3]
    40f0:	e5911004 	ldr	r1, [r1, #4]
    40f4:	e3a0c5fe 	mov	ip, #1065353216	; 0x3f800000
    40f8:	e5911000 	ldr	r1, [r1]
    40fc:	e5933004 	ldr	r3, [r3, #4]
    4100:	e5880004 	str	r0, [r8, #4]
    4104:	e59f00dc 	ldr	r0, [pc, #220]	; 41e8 <add_convolution+0x220>
    4108:	e588000c 	str	r0, [r8, #12]
    410c:	e59f00d8 	ldr	r0, [pc, #216]	; 41ec <add_convolution+0x224>
    4110:	e5880014 	str	r0, [r8, #20]
    4114:	e3a00441 	mov	r0, #1090519040	; 0x41000000
    4118:	e3a02001 	mov	r2, #1
    411c:	e588c000 	str	ip, [r8]
    4120:	e59fc0c8 	ldr	ip, [pc, #200]	; 41f0 <add_convolution+0x228>
    4124:	e588c008 	str	ip, [r8, #8]
    4128:	e59fc0c4 	ldr	ip, [pc, #196]	; 41f4 <add_convolution+0x22c>
    412c:	e588c010 	str	ip, [r8, #16]
    4130:	e59fc0c0 	ldr	ip, [pc, #192]	; 41f8 <add_convolution+0x230>
    4134:	e588001c 	str	r0, [r8, #28]
    4138:	e588c018 	str	ip, [r8, #24]
    413c:	e59f00b8 	ldr	r0, [pc, #184]	; 41fc <add_convolution+0x234>
    4140:	e59fc0b8 	ldr	ip, [pc, #184]	; 4200 <add_convolution+0x238>
    4144:	e5880024 	str	r0, [r8, #36]	; 0x24
    4148:	e588c020 	str	ip, [r8, #32]
    414c:	e59f00b0 	ldr	r0, [pc, #176]	; 4204 <add_convolution+0x23c>
    4150:	e59fc0b0 	ldr	ip, [pc, #176]	; 4208 <add_convolution+0x240>
    4154:	e588002c 	str	r0, [r8, #44]	; 0x2c
    4158:	e588c028 	str	ip, [r8, #40]	; 0x28
    415c:	e59f00a8 	ldr	r0, [pc, #168]	; 420c <add_convolution+0x244>
    4160:	e59fc0a8 	ldr	ip, [pc, #168]	; 4210 <add_convolution+0x248>
    4164:	e5880034 	str	r0, [r8, #52]	; 0x34
    4168:	e588c030 	str	ip, [r8, #48]	; 0x30
    416c:	e59f00a0 	ldr	r0, [pc, #160]	; 4214 <add_convolution+0x24c>
    4170:	e59fc0a0 	ldr	ip, [pc, #160]	; 4218 <add_convolution+0x250>
    4174:	e588003c 	str	r0, [r8, #60]	; 0x3c
    4178:	e588c038 	str	ip, [r8, #56]	; 0x38
    417c:	e59f0098 	ldr	r0, [pc, #152]	; 421c <add_convolution+0x254>
    4180:	e59fc098 	ldr	ip, [pc, #152]	; 4220 <add_convolution+0x258>
    4184:	e5880044 	str	r0, [r8, #68]	; 0x44
    4188:	e588c040 	str	ip, [r8, #64]	; 0x40
    418c:	e59f0090 	ldr	r0, [pc, #144]	; 4224 <add_convolution+0x25c>
    4190:	e59fc090 	ldr	ip, [pc, #144]	; 4228 <add_convolution+0x260>
    4194:	e588004c 	str	r0, [r8, #76]	; 0x4c
    4198:	e588c048 	str	ip, [r8, #72]	; 0x48
    419c:	e59f0088 	ldr	r0, [pc, #136]	; 422c <add_convolution+0x264>
    41a0:	e59fc088 	ldr	ip, [pc, #136]	; 4230 <add_convolution+0x268>
    41a4:	e5880054 	str	r0, [r8, #84]	; 0x54
    41a8:	e588c050 	str	ip, [r8, #80]	; 0x50
    41ac:	e59f0080 	ldr	r0, [pc, #128]	; 4234 <add_convolution+0x26c>
    41b0:	e59fc080 	ldr	ip, [pc, #128]	; 4238 <add_convolution+0x270>
    41b4:	e588005c 	str	r0, [r8, #92]	; 0x5c
    41b8:	e588c058 	str	ip, [r8, #88]	; 0x58
    41bc:	e59d0004 	ldr	r0, [sp, #4]
    41c0:	e59fc074 	ldr	ip, [pc, #116]	; 423c <add_convolution+0x274>
    41c4:	e588c060 	str	ip, [r8, #96]	; 0x60
    41c8:	e5810000 	str	r0, [r1]
    41cc:	e5832000 	str	r2, [r3]
    41d0:	e28dd008 	add	sp, sp, #8
    41d4:	e8bd41f0 	pop	{r4, r5, r6, r7, r8, lr}
    41d8:	e12fff1e 	bx	lr
    41dc:	bf800000 	svclt	0x00800000
    41e0:	800016a0 	andhi	r1, r0, r0, lsr #13
    41e4:	800016a4 	andhi	r1, r0, r4, lsr #13
    41e8:	40800000 	addmi	r0, r0, r0
    41ec:	40c00000 	sbcmi	r0, r0, r0
    41f0:	40400000 	submi	r0, r0, r0
    41f4:	40a00000 	adcmi	r0, r0, r0
    41f8:	40e00000 	rscmi	r0, r0, r0
    41fc:	41200000 			; <UNDEFINED> instruction: 0x41200000
    4200:	41100000 	tstmi	r0, r0
    4204:	41400000 	mrsmi	r0, (UNDEF: 64)
    4208:	41300000 	teqmi	r0, r0
    420c:	41600000 	cmnmi	r0, r0
    4210:	41500000 	cmpmi	r0, r0
    4214:	41800000 	orrmi	r0, r0, r0
    4218:	41700000 	cmnmi	r0, r0
    421c:	41900000 	orrsmi	r0, r0, r0
    4220:	41880000 	orrmi	r0, r8, r0
    4224:	41a00000 	movmi	r0, r0
    4228:	41980000 	orrsmi	r0, r8, r0
    422c:	41b00000 	movsmi	r0, r0
    4230:	41a80000 			; <UNDEFINED> instruction: 0x41a80000
    4234:	41c00000 	bicmi	r0, r0, r0
    4238:	41b80000 			; <UNDEFINED> instruction: 0x41b80000
    423c:	41c80000 	bicmi	r0, r8, r0

00004240 <convolution_check_output>:
    4240:	e92d4ff0 	push	{r4, r5, r6, r7, r8, r9, sl, fp, lr}
    4244:	e1a04000 	mov	r4, r0
    4248:	e24dd044 	sub	sp, sp, #68	; 0x44
    424c:	e59f024c 	ldr	r0, [pc, #588]	; 44a0 <convolution_check_output+0x260>
    4250:	eb000d5a 	bl	77c0 <puts>
    4254:	e5946008 	ldr	r6, [r4, #8]
    4258:	e2463001 	sub	r3, r6, #1
    425c:	e0833fa3 	add	r3, r3, r3, lsr #31
    4260:	e594500c 	ldr	r5, [r4, #12]
    4264:	e1a030c3 	asr	r3, r3, #1
    4268:	e594c000 	ldr	ip, [r4]
    426c:	e063eb83 	rsb	lr, r3, r3, lsl #23
    4270:	e08cc48e 	add	ip, ip, lr, lsl #9
    4274:	e2452001 	sub	r2, r5, #1
    4278:	e0822fa2 	add	r2, r2, r2, lsr #31
    427c:	e5940004 	ldr	r0, [r4, #4]
    4280:	e58dc014 	str	ip, [sp, #20]
    4284:	e046c003 	sub	ip, r6, r3
    4288:	e1a020c2 	asr	r2, r2, #1
    428c:	e58dc000 	str	ip, [sp]
    4290:	e263c000 	rsb	ip, r3, #0
    4294:	e2633080 	rsb	r3, r3, #128	; 0x80
    4298:	e58d3034 	str	r3, [sp, #52]	; 0x34
    429c:	e0803102 	add	r3, r0, r2, lsl #2
    42a0:	e58d3030 	str	r3, [sp, #48]	; 0x30
    42a4:	e0453002 	sub	r3, r5, r2
    42a8:	e58d303c 	str	r3, [sp, #60]	; 0x3c
    42ac:	e2623000 	rsb	r3, r2, #0
    42b0:	e5941014 	ldr	r1, [r4, #20]
    42b4:	e58d3038 	str	r3, [sp, #56]	; 0x38
    42b8:	e2623080 	rsb	r3, r2, #128	; 0x80
    42bc:	e58d3024 	str	r3, [sp, #36]	; 0x24
    42c0:	e1a03105 	lsl	r3, r5, #2
    42c4:	e58d3008 	str	r3, [sp, #8]
    42c8:	e2413004 	sub	r3, r1, #4
    42cc:	e58d302c 	str	r3, [sp, #44]	; 0x2c
    42d0:	e5d43010 	ldrb	r3, [r4, #16]
    42d4:	e58d3028 	str	r3, [sp, #40]	; 0x28
    42d8:	e3a03000 	mov	r3, #0
    42dc:	e58d6020 	str	r6, [sp, #32]
    42e0:	e58d5004 	str	r5, [sp, #4]
    42e4:	e58dc018 	str	ip, [sp, #24]
    42e8:	e58d301c 	str	r3, [sp, #28]
    42ec:	e59d3030 	ldr	r3, [sp, #48]	; 0x30
    42f0:	e58d300c 	str	r3, [sp, #12]
    42f4:	e59d302c 	ldr	r3, [sp, #44]	; 0x2c
    42f8:	e59d603c 	ldr	r6, [sp, #60]	; 0x3c
    42fc:	e59d9038 	ldr	r9, [sp, #56]	; 0x38
    4300:	e58d3010 	str	r3, [sp, #16]
    4304:	e59d3020 	ldr	r3, [sp, #32]
    4308:	e3530000 	cmp	r3, #0
    430c:	da00005f 	ble	4490 <convolution_check_output+0x250>
    4310:	e59da014 	ldr	sl, [sp, #20]
    4314:	e1a0300a 	mov	r3, sl
    4318:	e59db00c 	ldr	fp, [sp, #12]
    431c:	e3a07000 	mov	r7, #0
    4320:	e1a0a00b 	mov	sl, fp
    4324:	e1a0b003 	mov	fp, r3
    4328:	e59d8018 	ldr	r8, [sp, #24]
    432c:	e59d3004 	ldr	r3, [sp, #4]
    4330:	e3530000 	cmp	r3, #0
    4334:	da000016 	ble	4394 <convolution_check_output+0x154>
    4338:	e358007f 	cmp	r8, #127	; 0x7f
    433c:	83a05000 	movhi	r5, #0
    4340:	93a05001 	movls	r5, #1
    4344:	e1a04009 	mov	r4, r9
    4348:	ea000002 	b	4358 <convolution_check_output+0x118>
    434c:	e2844001 	add	r4, r4, #1
    4350:	e1540006 	cmp	r4, r6
    4354:	0a00000e 	beq	4394 <convolution_check_output+0x154>
    4358:	e354007f 	cmp	r4, #127	; 0x7f
    435c:	83a03000 	movhi	r3, #0
    4360:	92053001 	andls	r3, r5, #1
    4364:	e3530000 	cmp	r3, #0
    4368:	0afffff7 	beq	434c <convolution_check_output+0x10c>
    436c:	e79a1104 	ldr	r1, [sl, r4, lsl #2]
    4370:	e79b0104 	ldr	r0, [fp, r4, lsl #2]
    4374:	eb0007aa 	bl	6224 <__aeabi_fmul>
    4378:	e1a01000 	mov	r1, r0
    437c:	e1a00007 	mov	r0, r7
    4380:	eb0006ff 	bl	5f84 <__addsf3>
    4384:	e2844001 	add	r4, r4, #1
    4388:	e1540006 	cmp	r4, r6
    438c:	e1a07000 	mov	r7, r0
    4390:	1afffff0 	bne	4358 <convolution_check_output+0x118>
    4394:	e59d3000 	ldr	r3, [sp]
    4398:	e2888001 	add	r8, r8, #1
    439c:	e1530008 	cmp	r3, r8
    43a0:	e59d3008 	ldr	r3, [sp, #8]
    43a4:	e28bbc02 	add	fp, fp, #512	; 0x200
    43a8:	e08aa003 	add	sl, sl, r3
    43ac:	1affffde 	bne	432c <convolution_check_output+0xec>
    43b0:	e59d3028 	ldr	r3, [sp, #40]	; 0x28
    43b4:	e3530000 	cmp	r3, #0
    43b8:	0a000009 	beq	43e4 <convolution_check_output+0x1a4>
    43bc:	e3a01000 	mov	r1, #0
    43c0:	e1a00007 	mov	r0, r7
    43c4:	eb000881 	bl	65d0 <__aeabi_fcmplt>
    43c8:	e3500000 	cmp	r0, #0
    43cc:	01a00007 	moveq	r0, r7
    43d0:	12870102 	addne	r0, r7, #-2147483648	; 0x80000000
    43d4:	eb000895 	bl	6630 <__aeabi_f2uiz>
    43d8:	e20000ff 	and	r0, r0, #255	; 0xff
    43dc:	eb000757 	bl	6140 <__aeabi_ui2f>
    43e0:	e1a07000 	mov	r7, r0
    43e4:	e59d3010 	ldr	r3, [sp, #16]
    43e8:	e5b31004 	ldr	r1, [r3, #4]!
    43ec:	e1a00007 	mov	r0, r7
    43f0:	e58d3010 	str	r3, [sp, #16]
    43f4:	eb0006e1 	bl	5f80 <__aeabi_fsub>
    43f8:	e3c00102 	bic	r0, r0, #-2147483648	; 0x80000000
    43fc:	eb0004f9 	bl	57e8 <__aeabi_f2d>
    4400:	e28f3090 	add	r3, pc, #144	; 0x90
    4404:	e893000c 	ldm	r3, {r2, r3}
    4408:	eb000697 	bl	5e6c <__aeabi_dcmpgt>
    440c:	e3500000 	cmp	r0, #0
    4410:	159d301c 	ldrne	r3, [sp, #28]
    4414:	12833001 	addne	r3, r3, #1
    4418:	158d301c 	strne	r3, [sp, #28]
    441c:	e59d3024 	ldr	r3, [sp, #36]	; 0x24
    4420:	e2899001 	add	r9, r9, #1
    4424:	e1530009 	cmp	r3, r9
    4428:	e59d300c 	ldr	r3, [sp, #12]
    442c:	e2433004 	sub	r3, r3, #4
    4430:	e58d300c 	str	r3, [sp, #12]
    4434:	e2866001 	add	r6, r6, #1
    4438:	1affffb1 	bne	4304 <convolution_check_output+0xc4>
    443c:	e59d3018 	ldr	r3, [sp, #24]
    4440:	e59d2034 	ldr	r2, [sp, #52]	; 0x34
    4444:	e2833001 	add	r3, r3, #1
    4448:	e58d3018 	str	r3, [sp, #24]
    444c:	e1530002 	cmp	r3, r2
    4450:	e59d302c 	ldr	r3, [sp, #44]	; 0x2c
    4454:	e2833c02 	add	r3, r3, #512	; 0x200
    4458:	e58d302c 	str	r3, [sp, #44]	; 0x2c
    445c:	e59d3000 	ldr	r3, [sp]
    4460:	e2833001 	add	r3, r3, #1
    4464:	e58d3000 	str	r3, [sp]
    4468:	e59d3014 	ldr	r3, [sp, #20]
    446c:	e2833c02 	add	r3, r3, #512	; 0x200
    4470:	e58d3014 	str	r3, [sp, #20]
    4474:	1affff9c 	bne	42ec <convolution_check_output+0xac>
    4478:	e59d101c 	ldr	r1, [sp, #28]
    447c:	e59f0020 	ldr	r0, [pc, #32]	; 44a4 <convolution_check_output+0x264>
    4480:	eb000c79 	bl	766c <printf>
    4484:	e28dd044 	add	sp, sp, #68	; 0x44
    4488:	e8bd4ff0 	pop	{r4, r5, r6, r7, r8, r9, sl, fp, lr}
    448c:	e12fff1e 	bx	lr
    4490:	e3a07000 	mov	r7, #0
    4494:	eaffffd2 	b	43e4 <convolution_check_output+0x1a4>
    4498:	eb1c432d 	bl	715154 <__ascii_wctomb+0x70451c>
    449c:	3f1a36e2 	svccc	0x001a36e2
    44a0:	00006df0 	strdeq	r6, [r0], -r0
    44a4:	00006e10 	andeq	r6, r0, r0, lsl lr

000044a8 <add_edge_tracking>:
    44a8:	e92d4030 	push	{r4, r5, lr}
    44ac:	e3a00010 	mov	r0, #16
    44b0:	e24dd00c 	sub	sp, sp, #12
    44b4:	ebffefd4 	bl	40c <get_memory>
    44b8:	e1a04000 	mov	r4, r0
    44bc:	e3a00f4b 	mov	r0, #300	; 0x12c
    44c0:	ebffefd1 	bl	40c <get_memory>
    44c4:	e1a03000 	mov	r3, r0
    44c8:	e3a00801 	mov	r0, #65536	; 0x10000
    44cc:	e58d3004 	str	r3, [sp, #4]
    44d0:	ebffefcd 	bl	40c <get_memory>
    44d4:	e5840000 	str	r0, [r4]
    44d8:	e3a00901 	mov	r0, #16384	; 0x4000
    44dc:	ebffefca 	bl	40c <get_memory>
    44e0:	e3a0343f 	mov	r3, #1056964608	; 0x3f000000
    44e4:	e3a01002 	mov	r1, #2
    44e8:	e3a0c000 	mov	ip, #0
    44ec:	e3a02001 	mov	r2, #1
    44f0:	e3a0e080 	mov	lr, #128	; 0x80
    44f4:	e3e05000 	mvn	r5, #0
    44f8:	e5843004 	str	r3, [r4, #4]
    44fc:	e59f30f4 	ldr	r3, [pc, #244]	; 45f8 <add_edge_tracking+0x150>
    4500:	e5843008 	str	r3, [r4, #8]
    4504:	e59d3004 	ldr	r3, [sp, #4]
    4508:	e584000c 	str	r0, [r4, #12]
    450c:	e5831000 	str	r1, [r3]
    4510:	e59d1004 	ldr	r1, [sp, #4]
    4514:	e59d3004 	ldr	r3, [sp, #4]
    4518:	e5814004 	str	r4, [r1, #4]
    451c:	e59d1004 	ldr	r1, [sp, #4]
    4520:	e583c008 	str	ip, [r3, #8]
    4524:	e59d3004 	ldr	r3, [sp, #4]
    4528:	e581c00c 	str	ip, [r1, #12]
    452c:	e59d1004 	ldr	r1, [sp, #4]
    4530:	e583c0d8 	str	ip, [r3, #216]	; 0xd8
    4534:	e59d3004 	ldr	r3, [sp, #4]
    4538:	e581c0ec 	str	ip, [r1, #236]	; 0xec
    453c:	e59d1004 	ldr	r1, [sp, #4]
    4540:	e583c0dc 	str	ip, [r3, #220]	; 0xdc
    4544:	e59d3004 	ldr	r3, [sp, #4]
    4548:	e581c0f0 	str	ip, [r1, #240]	; 0xf0
    454c:	e59d1004 	ldr	r1, [sp, #4]
    4550:	e583c0e0 	str	ip, [r3, #224]	; 0xe0
    4554:	e59d3004 	ldr	r3, [sp, #4]
    4558:	e581c0f4 	str	ip, [r1, #244]	; 0xf4
    455c:	e59d1004 	ldr	r1, [sp, #4]
    4560:	e583c0e4 	str	ip, [r3, #228]	; 0xe4
    4564:	e59d3004 	ldr	r3, [sp, #4]
    4568:	e581c0f8 	str	ip, [r1, #248]	; 0xf8
    456c:	e59d1004 	ldr	r1, [sp, #4]
    4570:	e583c0e8 	str	ip, [r3, #232]	; 0xe8
    4574:	e59d3004 	ldr	r3, [sp, #4]
    4578:	e581c0fc 	str	ip, [r1, #252]	; 0xfc
    457c:	e5832100 	str	r2, [r3, #256]	; 0x100
    4580:	e5942000 	ldr	r2, [r4]
    4584:	e782c48c 	str	ip, [r2, ip, lsl #9]
    4588:	e7c0538c 	strb	r5, [r0, ip, lsl #7]
    458c:	e24e307f 	sub	r3, lr, #127	; 0x7f
    4590:	e594200c 	ldr	r2, [r4, #12]
    4594:	e5941000 	ldr	r1, [r4]
    4598:	e781c103 	str	ip, [r1, r3, lsl #2]
    459c:	e7c25003 	strb	r5, [r2, r3]
    45a0:	e2833001 	add	r3, r3, #1
    45a4:	e153000e 	cmp	r3, lr
    45a8:	1afffff8 	bne	4590 <add_edge_tracking+0xe8>
    45ac:	e28cc001 	add	ip, ip, #1
    45b0:	e35c0080 	cmp	ip, #128	; 0x80
    45b4:	e28ee080 	add	lr, lr, #128	; 0x80
    45b8:	1594000c 	ldrne	r0, [r4, #12]
    45bc:	1affffef 	bne	4580 <add_edge_tracking+0xd8>
    45c0:	e3a02001 	mov	r2, #1
    45c4:	e59f1030 	ldr	r1, [pc, #48]	; 45fc <add_edge_tracking+0x154>
    45c8:	e59f3030 	ldr	r3, [pc, #48]	; 4600 <add_edge_tracking+0x158>
    45cc:	e5911000 	ldr	r1, [r1]
    45d0:	e5933000 	ldr	r3, [r3]
    45d4:	e5911008 	ldr	r1, [r1, #8]
    45d8:	e5933008 	ldr	r3, [r3, #8]
    45dc:	e5911000 	ldr	r1, [r1]
    45e0:	e59d0004 	ldr	r0, [sp, #4]
    45e4:	e5810000 	str	r0, [r1]
    45e8:	e5832000 	str	r2, [r3]
    45ec:	e28dd00c 	add	sp, sp, #12
    45f0:	e8bd4030 	pop	{r4, r5, lr}
    45f4:	e12fff1e 	bx	lr
    45f8:	3f00c49c 	svccc	0x0000c49c
    45fc:	800016a0 	andhi	r1, r0, r0, lsr #13
    4600:	800016a4 	andhi	r1, r0, r4, lsr #13

00004604 <edge_tracking_check_output>:
    4604:	e92d4070 	push	{r4, r5, r6, lr}
    4608:	e1a04000 	mov	r4, r0
    460c:	e59f00b4 	ldr	r0, [pc, #180]	; 46c8 <edge_tracking_check_output+0xc4>
    4610:	eb000c6a 	bl	77c0 <puts>
    4614:	e3a0e000 	mov	lr, #0
    4618:	e1a0500e 	mov	r5, lr
    461c:	e1a0100e 	mov	r1, lr
    4620:	e594c00c 	ldr	ip, [r4, #12]
    4624:	e59f40a0 	ldr	r4, [pc, #160]	; 46cc <edge_tracking_check_output+0xc8>
    4628:	e28cc07f 	add	ip, ip, #127	; 0x7f
    462c:	e245007f 	sub	r0, r5, #127	; 0x7f
    4630:	e2702000 	rsbs	r2, r0, #0
    4634:	e0a22000 	adc	r2, r2, r0
    4638:	e3550000 	cmp	r5, #0
    463c:	03a02001 	moveq	r2, #1
    4640:	e3520000 	cmp	r2, #0
    4644:	124c3080 	subne	r3, ip, #128	; 0x80
    4648:	1a000018 	bne	46b0 <edge_tracking_check_output+0xac>
    464c:	e24c0080 	sub	r0, ip, #128	; 0x80
    4650:	e3520000 	cmp	r2, #0
    4654:	1352007f 	cmpne	r2, #127	; 0x7f
    4658:	03a03001 	moveq	r3, #1
    465c:	13a03000 	movne	r3, #0
    4660:	e082600e 	add	r6, r2, lr
    4664:	e1560004 	cmp	r6, r4
    4668:	d3833001 	orrle	r3, r3, #1
    466c:	e5f06001 	ldrb	r6, [r0, #1]!
    4670:	e2433001 	sub	r3, r3, #1
    4674:	e20330ff 	and	r3, r3, #255	; 0xff
    4678:	e1560003 	cmp	r6, r3
    467c:	e2822001 	add	r2, r2, #1
    4680:	12811001 	addne	r1, r1, #1
    4684:	e3520080 	cmp	r2, #128	; 0x80
    4688:	1afffff0 	bne	4650 <edge_tracking_check_output+0x4c>
    468c:	e2855001 	add	r5, r5, #1
    4690:	e3550080 	cmp	r5, #128	; 0x80
    4694:	e28cc080 	add	ip, ip, #128	; 0x80
    4698:	e28ee080 	add	lr, lr, #128	; 0x80
    469c:	1affffe2 	bne	462c <edge_tracking_check_output+0x28>
    46a0:	e59f0028 	ldr	r0, [pc, #40]	; 46d0 <edge_tracking_check_output+0xcc>
    46a4:	eb000bf0 	bl	766c <printf>
    46a8:	e8bd4070 	pop	{r4, r5, r6, lr}
    46ac:	e12fff1e 	bx	lr
    46b0:	e5f32001 	ldrb	r2, [r3, #1]!
    46b4:	e3520000 	cmp	r2, #0
    46b8:	12811001 	addne	r1, r1, #1
    46bc:	e153000c 	cmp	r3, ip
    46c0:	1afffffa 	bne	46b0 <edge_tracking_check_output+0xac>
    46c4:	eafffff0 	b	468c <edge_tracking_check_output+0x88>
    46c8:	00006e38 	andeq	r6, r0, r8, lsr lr
    46cc:	00001f7f 	andeq	r1, r0, pc, ror pc
    46d0:	00006e4c 	andeq	r6, r0, ip, asr #28

000046d4 <add_elem_matrix>:
    46d4:	e92d41f0 	push	{r4, r5, r6, r7, r8, lr}
    46d8:	e3a00010 	mov	r0, #16
    46dc:	e24dd008 	sub	sp, sp, #8
    46e0:	ebffef49 	bl	40c <get_memory>
    46e4:	e1a05000 	mov	r5, r0
    46e8:	e3a00f4b 	mov	r0, #300	; 0x12c
    46ec:	ebffef46 	bl	40c <get_memory>
    46f0:	e1a03000 	mov	r3, r0
    46f4:	e3a00801 	mov	r0, #65536	; 0x10000
    46f8:	e58d3004 	str	r3, [sp, #4]
    46fc:	ebffef42 	bl	40c <get_memory>
    4700:	e5850000 	str	r0, [r5]
    4704:	e3a00801 	mov	r0, #65536	; 0x10000
    4708:	ebffef3f 	bl	40c <get_memory>
    470c:	e5850004 	str	r0, [r5, #4]
    4710:	e3a00801 	mov	r0, #65536	; 0x10000
    4714:	ebffef3c 	bl	40c <get_memory>
    4718:	e3a03000 	mov	r3, #0
    471c:	e3a02001 	mov	r2, #1
    4720:	e3a0e003 	mov	lr, #3
    4724:	e1a04003 	mov	r4, r3
    4728:	e59d1004 	ldr	r1, [sp, #4]
    472c:	e585000c 	str	r0, [r5, #12]
    4730:	e1c530b8 	strh	r3, [r5, #8]
    4734:	e5c5200a 	strb	r2, [r5, #10]
    4738:	e59dc004 	ldr	ip, [sp, #4]
    473c:	e581e000 	str	lr, [r1]
    4740:	e59d1004 	ldr	r1, [sp, #4]
    4744:	e58c5004 	str	r5, [ip, #4]
    4748:	e59dc004 	ldr	ip, [sp, #4]
    474c:	e5813008 	str	r3, [r1, #8]
    4750:	e59d1004 	ldr	r1, [sp, #4]
    4754:	e58c300c 	str	r3, [ip, #12]
    4758:	e59dc004 	ldr	ip, [sp, #4]
    475c:	e58130d8 	str	r3, [r1, #216]	; 0xd8
    4760:	e59d1004 	ldr	r1, [sp, #4]
    4764:	e58c30ec 	str	r3, [ip, #236]	; 0xec
    4768:	e59dc004 	ldr	ip, [sp, #4]
    476c:	e58130dc 	str	r3, [r1, #220]	; 0xdc
    4770:	e59d1004 	ldr	r1, [sp, #4]
    4774:	e58c30f0 	str	r3, [ip, #240]	; 0xf0
    4778:	e59dc004 	ldr	ip, [sp, #4]
    477c:	e58130e0 	str	r3, [r1, #224]	; 0xe0
    4780:	e59d1004 	ldr	r1, [sp, #4]
    4784:	e58c30f4 	str	r3, [ip, #244]	; 0xf4
    4788:	e59dc004 	ldr	ip, [sp, #4]
    478c:	e58130e4 	str	r3, [r1, #228]	; 0xe4
    4790:	e59d1004 	ldr	r1, [sp, #4]
    4794:	e58c30f8 	str	r3, [ip, #248]	; 0xf8
    4798:	e59dc004 	ldr	ip, [sp, #4]
    479c:	e58130e8 	str	r3, [r1, #232]	; 0xe8
    47a0:	e59d1004 	ldr	r1, [sp, #4]
    47a4:	e58c30fc 	str	r3, [ip, #252]	; 0xfc
    47a8:	e5812100 	str	r2, [r1, #256]	; 0x100
    47ac:	e5957000 	ldr	r7, [r5]
    47b0:	e5956004 	ldr	r6, [r5, #4]
    47b4:	e59f806c 	ldr	r8, [pc, #108]	; 4828 <add_elem_matrix+0x154>
    47b8:	e2405004 	sub	r5, r0, #4
    47bc:	e2477004 	sub	r7, r7, #4
    47c0:	e2466004 	sub	r6, r6, #4
    47c4:	e204007f 	and	r0, r4, #127	; 0x7f
    47c8:	e2800001 	add	r0, r0, #1
    47cc:	eb00065d 	bl	6148 <__aeabi_i2f>
    47d0:	e5a70004 	str	r0, [r7, #4]!
    47d4:	e2640901 	rsb	r0, r4, #16384	; 0x4000
    47d8:	eb00065a 	bl	6148 <__aeabi_i2f>
    47dc:	e2844001 	add	r4, r4, #1
    47e0:	e3540901 	cmp	r4, #16384	; 0x4000
    47e4:	e5a60004 	str	r0, [r6, #4]!
    47e8:	e5a58004 	str	r8, [r5, #4]!
    47ec:	1afffff4 	bne	47c4 <add_elem_matrix+0xf0>
    47f0:	e3a02001 	mov	r2, #1
    47f4:	e59f1030 	ldr	r1, [pc, #48]	; 482c <add_elem_matrix+0x158>
    47f8:	e59f3030 	ldr	r3, [pc, #48]	; 4830 <add_elem_matrix+0x15c>
    47fc:	e5911000 	ldr	r1, [r1]
    4800:	e5933000 	ldr	r3, [r3]
    4804:	e591100c 	ldr	r1, [r1, #12]
    4808:	e593300c 	ldr	r3, [r3, #12]
    480c:	e5911000 	ldr	r1, [r1]
    4810:	e59d0004 	ldr	r0, [sp, #4]
    4814:	e5810000 	str	r0, [r1]
    4818:	e5832000 	str	r2, [r3]
    481c:	e28dd008 	add	sp, sp, #8
    4820:	e8bd41f0 	pop	{r4, r5, r6, r7, r8, lr}
    4824:	e12fff1e 	bx	lr
    4828:	bf800000 	svclt	0x00800000
    482c:	800016a0 	andhi	r1, r0, r0, lsr #13
    4830:	800016a4 	andhi	r1, r0, r4, lsr #13

00004834 <elem_matrix_check_output>:
    4834:	e92d4ff8 	push	{r3, r4, r5, r6, r7, r8, r9, sl, fp, lr}
    4838:	e1a05000 	mov	r5, r0
    483c:	e3a0a000 	mov	sl, #0
    4840:	e3a0b5fe 	mov	fp, #1065353216	; 0x3f800000
    4844:	e59f0084 	ldr	r0, [pc, #132]	; 48d0 <elem_matrix_check_output+0x9c>
    4848:	eb000bdc 	bl	77c0 <puts>
    484c:	e8950050 	ldm	r5, {r4, r6}
    4850:	e595500c 	ldr	r5, [r5, #12]
    4854:	e2847cff 	add	r7, r4, #65280	; 0xff00
    4858:	e28f9068 	add	r9, pc, #104	; 0x68
    485c:	e8990300 	ldm	r9, {r8, r9}
    4860:	e28770fc 	add	r7, r7, #252	; 0xfc
    4864:	e2444004 	sub	r4, r4, #4
    4868:	e2466004 	sub	r6, r6, #4
    486c:	e2455004 	sub	r5, r5, #4
    4870:	e5b61004 	ldr	r1, [r6, #4]!
    4874:	e1a0000b 	mov	r0, fp
    4878:	eb0005c0 	bl	5f80 <__aeabi_fsub>
    487c:	e5b41004 	ldr	r1, [r4, #4]!
    4880:	eb0005bf 	bl	5f84 <__addsf3>
    4884:	e5b51004 	ldr	r1, [r5, #4]!
    4888:	eb0005bc 	bl	5f80 <__aeabi_fsub>
    488c:	e3c00102 	bic	r0, r0, #-2147483648	; 0x80000000
    4890:	eb0003d4 	bl	57e8 <__aeabi_f2d>
    4894:	e1a02008 	mov	r2, r8
    4898:	e1a03009 	mov	r3, r9
    489c:	eb000572 	bl	5e6c <__aeabi_dcmpgt>
    48a0:	e3500000 	cmp	r0, #0
    48a4:	128aa001 	addne	sl, sl, #1
    48a8:	e1570004 	cmp	r7, r4
    48ac:	1affffef 	bne	4870 <elem_matrix_check_output+0x3c>
    48b0:	e1a0100a 	mov	r1, sl
    48b4:	e59f0018 	ldr	r0, [pc, #24]	; 48d4 <elem_matrix_check_output+0xa0>
    48b8:	eb000b6b 	bl	766c <printf>
    48bc:	e8bd4ff8 	pop	{r3, r4, r5, r6, r7, r8, r9, sl, fp, lr}
    48c0:	e12fff1e 	bx	lr
    48c4:	e1a00000 	nop			; (mov r0, r0)
    48c8:	eb1c432d 	bl	715584 <__ascii_wctomb+0x70494c>
    48cc:	3f1a36e2 	svccc	0x001a36e2
    48d0:	00006e6c 	andeq	r6, r0, ip, ror #28
    48d4:	00006e80 	andeq	r6, r0, r0, lsl #29

000048d8 <add_grayscale>:
    48d8:	e92d4070 	push	{r4, r5, r6, lr}
    48dc:	e3a00008 	mov	r0, #8
    48e0:	e24dd008 	sub	sp, sp, #8
    48e4:	ebffeec8 	bl	40c <get_memory>
    48e8:	e1a04000 	mov	r4, r0
    48ec:	e3a00f4b 	mov	r0, #300	; 0x12c
    48f0:	ebffeec5 	bl	40c <get_memory>
    48f4:	e1a03000 	mov	r3, r0
    48f8:	e3a00903 	mov	r0, #49152	; 0xc000
    48fc:	e58d3004 	str	r3, [sp, #4]
    4900:	ebffeec1 	bl	40c <get_memory>
    4904:	e5840000 	str	r0, [r4]
    4908:	e3a00801 	mov	r0, #65536	; 0x10000
    490c:	ebffeebe 	bl	40c <get_memory>
    4910:	e3a05001 	mov	r5, #1
    4914:	e3a06004 	mov	r6, #4
    4918:	e3a0e000 	mov	lr, #0
    491c:	e5840004 	str	r0, [r4, #4]
    4920:	e1a01005 	mov	r1, r5
    4924:	e59d0004 	ldr	r0, [sp, #4]
    4928:	e3a02002 	mov	r2, #2
    492c:	e5806000 	str	r6, [r0]
    4930:	e59d0004 	ldr	r0, [sp, #4]
    4934:	e5804004 	str	r4, [r0, #4]
    4938:	e59d0004 	ldr	r0, [sp, #4]
    493c:	e580e008 	str	lr, [r0, #8]
    4940:	e59d0004 	ldr	r0, [sp, #4]
    4944:	e580e00c 	str	lr, [r0, #12]
    4948:	e59d0004 	ldr	r0, [sp, #4]
    494c:	e580e0d8 	str	lr, [r0, #216]	; 0xd8
    4950:	e59d0004 	ldr	r0, [sp, #4]
    4954:	e580e0ec 	str	lr, [r0, #236]	; 0xec
    4958:	e59d0004 	ldr	r0, [sp, #4]
    495c:	e580e0dc 	str	lr, [r0, #220]	; 0xdc
    4960:	e59d0004 	ldr	r0, [sp, #4]
    4964:	e580e0f0 	str	lr, [r0, #240]	; 0xf0
    4968:	e59d0004 	ldr	r0, [sp, #4]
    496c:	e580e0e0 	str	lr, [r0, #224]	; 0xe0
    4970:	e59d0004 	ldr	r0, [sp, #4]
    4974:	e580e0f4 	str	lr, [r0, #244]	; 0xf4
    4978:	e59d0004 	ldr	r0, [sp, #4]
    497c:	e580e0e4 	str	lr, [r0, #228]	; 0xe4
    4980:	e59d0004 	ldr	r0, [sp, #4]
    4984:	e580e0f8 	str	lr, [r0, #248]	; 0xf8
    4988:	e59d0004 	ldr	r0, [sp, #4]
    498c:	e580e0e8 	str	lr, [r0, #232]	; 0xe8
    4990:	e59d0004 	ldr	r0, [sp, #4]
    4994:	e580e0fc 	str	lr, [r0, #252]	; 0xfc
    4998:	e59d0004 	ldr	r0, [sp, #4]
    499c:	e1a0c00e 	mov	ip, lr
    49a0:	e1a0300e 	mov	r3, lr
    49a4:	e5805100 	str	r5, [r0, #256]	; 0x100
    49a8:	e59fe06c 	ldr	lr, [pc, #108]	; 4a1c <add_grayscale+0x144>
    49ac:	e5940000 	ldr	r0, [r4]
    49b0:	e7c03003 	strb	r3, [r0, r3]
    49b4:	e5940000 	ldr	r0, [r4]
    49b8:	e7c01001 	strb	r1, [r0, r1]
    49bc:	e5940000 	ldr	r0, [r4]
    49c0:	e7c02002 	strb	r2, [r0, r2]
    49c4:	e2833003 	add	r3, r3, #3
    49c8:	e5940004 	ldr	r0, [r4, #4]
    49cc:	e3530903 	cmp	r3, #49152	; 0xc000
    49d0:	e780e00c 	str	lr, [r0, ip]
    49d4:	e2811003 	add	r1, r1, #3
    49d8:	e2822003 	add	r2, r2, #3
    49dc:	e28cc004 	add	ip, ip, #4
    49e0:	1afffff1 	bne	49ac <add_grayscale+0xd4>
    49e4:	e3a02001 	mov	r2, #1
    49e8:	e59f1030 	ldr	r1, [pc, #48]	; 4a20 <add_grayscale+0x148>
    49ec:	e59f3030 	ldr	r3, [pc, #48]	; 4a24 <add_grayscale+0x14c>
    49f0:	e5911000 	ldr	r1, [r1]
    49f4:	e5933000 	ldr	r3, [r3]
    49f8:	e5911010 	ldr	r1, [r1, #16]
    49fc:	e5933010 	ldr	r3, [r3, #16]
    4a00:	e5911000 	ldr	r1, [r1]
    4a04:	e59d0004 	ldr	r0, [sp, #4]
    4a08:	e5810000 	str	r0, [r1]
    4a0c:	e5832000 	str	r2, [r3]
    4a10:	e28dd008 	add	sp, sp, #8
    4a14:	e8bd4070 	pop	{r4, r5, r6, lr}
    4a18:	e12fff1e 	bx	lr
    4a1c:	bf800000 	svclt	0x00800000
    4a20:	800016a0 	andhi	r1, r0, r0, lsr #13
    4a24:	800016a4 	andhi	r1, r0, r4, lsr #13

00004a28 <grayscale_check_output>:
    4a28:	e92d4ff8 	push	{r3, r4, r5, r6, r7, r8, r9, sl, fp, lr}
    4a2c:	e1a05000 	mov	r5, r0
    4a30:	e3a08000 	mov	r8, #0
    4a34:	e59f00fc 	ldr	r0, [pc, #252]	; 4b38 <grayscale_check_output+0x110>
    4a38:	eb000b60 	bl	77c0 <puts>
    4a3c:	e8950030 	ldm	r5, {r4, r5}
    4a40:	e28fb0d0 	add	fp, pc, #208	; 0xd0
    4a44:	e89b0c00 	ldm	fp, {sl, fp}
    4a48:	e2455004 	sub	r5, r5, #4
    4a4c:	e2849903 	add	r9, r4, #49152	; 0xc000
    4a50:	e5d40001 	ldrb	r0, [r4, #1]
    4a54:	eb000359 	bl	57c0 <__aeabi_i2d>
    4a58:	e1a0200a 	mov	r2, sl
    4a5c:	e1a0300b 	mov	r3, fp
    4a60:	eb00038f 	bl	58a4 <__aeabi_dmul>
    4a64:	e1a06000 	mov	r6, r0
    4a68:	e5d40000 	ldrb	r0, [r4]
    4a6c:	e1a07001 	mov	r7, r1
    4a70:	eb000352 	bl	57c0 <__aeabi_i2d>
    4a74:	e28f30a4 	add	r3, pc, #164	; 0xa4
    4a78:	e893000c 	ldm	r3, {r2, r3}
    4a7c:	eb000388 	bl	58a4 <__aeabi_dmul>
    4a80:	e1a02000 	mov	r2, r0
    4a84:	e1a03001 	mov	r3, r1
    4a88:	e1a00006 	mov	r0, r6
    4a8c:	e1a01007 	mov	r1, r7
    4a90:	eb00027d 	bl	548c <__adddf3>
    4a94:	e1a06000 	mov	r6, r0
    4a98:	e5d40002 	ldrb	r0, [r4, #2]
    4a9c:	e1a07001 	mov	r7, r1
    4aa0:	eb000346 	bl	57c0 <__aeabi_i2d>
    4aa4:	e28f307c 	add	r3, pc, #124	; 0x7c
    4aa8:	e893000c 	ldm	r3, {r2, r3}
    4aac:	eb00037c 	bl	58a4 <__aeabi_dmul>
    4ab0:	e1a02000 	mov	r2, r0
    4ab4:	e1a03001 	mov	r3, r1
    4ab8:	e1a00006 	mov	r0, r6
    4abc:	e1a01007 	mov	r1, r7
    4ac0:	eb000271 	bl	548c <__adddf3>
    4ac4:	eb0004ee 	bl	5e84 <__aeabi_d2uiz>
    4ac8:	e20000ff 	and	r0, r0, #255	; 0xff
    4acc:	eb00059b 	bl	6140 <__aeabi_ui2f>
    4ad0:	e1a01000 	mov	r1, r0
    4ad4:	e5b50004 	ldr	r0, [r5, #4]!
    4ad8:	eb000528 	bl	5f80 <__aeabi_fsub>
    4adc:	e3c00102 	bic	r0, r0, #-2147483648	; 0x80000000
    4ae0:	eb000340 	bl	57e8 <__aeabi_f2d>
    4ae4:	e28f3044 	add	r3, pc, #68	; 0x44
    4ae8:	e893000c 	ldm	r3, {r2, r3}
    4aec:	eb0004de 	bl	5e6c <__aeabi_dcmpgt>
    4af0:	e2844003 	add	r4, r4, #3
    4af4:	e3500000 	cmp	r0, #0
    4af8:	12888001 	addne	r8, r8, #1
    4afc:	e1590004 	cmp	r9, r4
    4b00:	1affffd2 	bne	4a50 <grayscale_check_output+0x28>
    4b04:	e1a01008 	mov	r1, r8
    4b08:	e59f002c 	ldr	r0, [pc, #44]	; 4b3c <grayscale_check_output+0x114>
    4b0c:	eb000ad6 	bl	766c <printf>
    4b10:	e8bd4ff8 	pop	{r3, r4, r5, r6, r7, r8, r9, sl, fp, lr}
    4b14:	e12fff1e 	bx	lr
    4b18:	1c432ca5 	mcrrne	12, 10, r2, r3, cr5
    4b1c:	3fe6e2eb 	svccc	0x00e6e2eb
    4b20:	0f9096bc 	svceq	0x009096bc
    4b24:	3fcb367a 	svccc	0x00cb367a
    4b28:	fec56d5d 	vudot.u8	q11, <illegal reg q2.5>, d13[0]
    4b2c:	3fb27bb2 	svccc	0x00b27bb2
    4b30:	eb1c432d 	bl	7157ec <__ascii_wctomb+0x704bb4>
    4b34:	3f1a36e2 	svccc	0x001a36e2
    4b38:	00006ea0 	andeq	r6, r0, r0, lsr #29
    4b3c:	00006ebc 			; <UNDEFINED> instruction: 0x00006ebc

00004b40 <add_harris_non_max>:
    4b40:	e92d4ff0 	push	{r4, r5, r6, r7, r8, r9, sl, fp, lr}
    4b44:	e3a00008 	mov	r0, #8
    4b48:	e24dd05c 	sub	sp, sp, #92	; 0x5c
    4b4c:	ebffee2e 	bl	40c <get_memory>
    4b50:	e1a0a000 	mov	sl, r0
    4b54:	e3a00f4b 	mov	r0, #300	; 0x12c
    4b58:	ebffee2b 	bl	40c <get_memory>
    4b5c:	e1a03000 	mov	r3, r0
    4b60:	e3a00801 	mov	r0, #65536	; 0x10000
    4b64:	e58d3054 	str	r3, [sp, #84]	; 0x54
    4b68:	ebffee27 	bl	40c <get_memory>
    4b6c:	e58a0000 	str	r0, [sl]
    4b70:	e3a00901 	mov	r0, #16384	; 0x4000
    4b74:	ebffee24 	bl	40c <get_memory>
    4b78:	e58a0004 	str	r0, [sl, #4]
    4b7c:	e3a00901 	mov	r0, #16384	; 0x4000
    4b80:	ebffee21 	bl	40c <get_memory>
    4b84:	e3a05005 	mov	r5, #5
    4b88:	e3a03000 	mov	r3, #0
    4b8c:	e59d4054 	ldr	r4, [sp, #84]	; 0x54
    4b90:	e58d001c 	str	r0, [sp, #28]
    4b94:	e59de054 	ldr	lr, [sp, #84]	; 0x54
    4b98:	e59dc054 	ldr	ip, [sp, #84]	; 0x54
    4b9c:	e59d0054 	ldr	r0, [sp, #84]	; 0x54
    4ba0:	e59d1054 	ldr	r1, [sp, #84]	; 0x54
    4ba4:	e59d9054 	ldr	r9, [sp, #84]	; 0x54
    4ba8:	e59d8054 	ldr	r8, [sp, #84]	; 0x54
    4bac:	e59db054 	ldr	fp, [sp, #84]	; 0x54
    4bb0:	e59d6054 	ldr	r6, [sp, #84]	; 0x54
    4bb4:	e5845000 	str	r5, [r4]
    4bb8:	e58ea004 	str	sl, [lr, #4]
    4bbc:	e59d5054 	ldr	r5, [sp, #84]	; 0x54
    4bc0:	e58c3008 	str	r3, [ip, #8]
    4bc4:	e580300c 	str	r3, [r0, #12]
    4bc8:	e58130d8 	str	r3, [r1, #216]	; 0xd8
    4bcc:	e58930ec 	str	r3, [r9, #236]	; 0xec
    4bd0:	e58830dc 	str	r3, [r8, #220]	; 0xdc
    4bd4:	e58b30f0 	str	r3, [fp, #240]	; 0xf0
    4bd8:	e58630e0 	str	r3, [r6, #224]	; 0xe0
    4bdc:	e59d601c 	ldr	r6, [sp, #28]
    4be0:	e58530f4 	str	r3, [r5, #244]	; 0xf4
    4be4:	e1a05006 	mov	r5, r6
    4be8:	e59d4054 	ldr	r4, [sp, #84]	; 0x54
    4bec:	e59de054 	ldr	lr, [sp, #84]	; 0x54
    4bf0:	e59dc054 	ldr	ip, [sp, #84]	; 0x54
    4bf4:	e2868c01 	add	r8, r6, #256	; 0x100
    4bf8:	e58430e4 	str	r3, [r4, #228]	; 0xe4
    4bfc:	e2866080 	add	r6, r6, #128	; 0x80
    4c00:	e2454001 	sub	r4, r5, #1
    4c04:	e59d0054 	ldr	r0, [sp, #84]	; 0x54
    4c08:	e3a02001 	mov	r2, #1
    4c0c:	e59d1054 	ldr	r1, [sp, #84]	; 0x54
    4c10:	e58d8038 	str	r8, [sp, #56]	; 0x38
    4c14:	e58d3034 	str	r3, [sp, #52]	; 0x34
    4c18:	e58d6048 	str	r6, [sp, #72]	; 0x48
    4c1c:	e58d400c 	str	r4, [sp, #12]
    4c20:	e58e30f8 	str	r3, [lr, #248]	; 0xf8
    4c24:	e58c30e8 	str	r3, [ip, #232]	; 0xe8
    4c28:	e3a0c002 	mov	ip, #2
    4c2c:	e3e0807f 	mvn	r8, #127	; 0x7f
    4c30:	e1a09003 	mov	r9, r3
    4c34:	e58030fc 	str	r3, [r0, #252]	; 0xfc
    4c38:	e58d204c 	str	r2, [sp, #76]	; 0x4c
    4c3c:	e58dc024 	str	ip, [sp, #36]	; 0x24
    4c40:	e5812100 	str	r2, [r1, #256]	; 0x100
    4c44:	e59d3038 	ldr	r3, [sp, #56]	; 0x38
    4c48:	e59d2034 	ldr	r2, [sp, #52]	; 0x34
    4c4c:	e2833001 	add	r3, r3, #1
    4c50:	e0433002 	sub	r3, r3, r2
    4c54:	e58d3044 	str	r3, [sp, #68]	; 0x44
    4c58:	e59d3024 	ldr	r3, [sp, #36]	; 0x24
    4c5c:	e353007f 	cmp	r3, #127	; 0x7f
    4c60:	c3a03000 	movgt	r3, #0
    4c64:	d3a03001 	movle	r3, #1
    4c68:	e58d3040 	str	r3, [sp, #64]	; 0x40
    4c6c:	e3a03002 	mov	r3, #2
    4c70:	e58d3008 	str	r3, [sp, #8]
    4c74:	e59d3048 	ldr	r3, [sp, #72]	; 0x48
    4c78:	e0433002 	sub	r3, r3, r2
    4c7c:	e58d303c 	str	r3, [sp, #60]	; 0x3c
    4c80:	e59d301c 	ldr	r3, [sp, #28]
    4c84:	e2821c01 	add	r1, r2, #256	; 0x100
    4c88:	e2811001 	add	r1, r1, #1
    4c8c:	e2833001 	add	r3, r3, #1
    4c90:	e58d1004 	str	r1, [sp, #4]
    4c94:	e282b001 	add	fp, r2, #1
    4c98:	e2826081 	add	r6, r2, #129	; 0x81
    4c9c:	e58d3020 	str	r3, [sp, #32]
    4ca0:	ea000042 	b	4db0 <add_harris_non_max+0x270>
    4ca4:	e59d0004 	ldr	r0, [sp, #4]
    4ca8:	e59a1000 	ldr	r1, [sl]
    4cac:	e1a02100 	lsl	r2, r0, #2
    4cb0:	e2425004 	sub	r5, r2, #4
    4cb4:	e3590006 	cmp	r9, #6
    4cb8:	e0813005 	add	r3, r1, r5
    4cbc:	e2407001 	sub	r7, r0, #1
    4cc0:	0a0000b0 	beq	4f88 <add_harris_non_max+0x448>
    4cc4:	e59d0004 	ldr	r0, [sp, #4]
    4cc8:	e58d3028 	str	r3, [sp, #40]	; 0x28
    4ccc:	eb00051d 	bl	6148 <__aeabi_i2f>
    4cd0:	e3a01000 	mov	r1, #0
    4cd4:	e59d3028 	ldr	r3, [sp, #40]	; 0x28
    4cd8:	e59d2004 	ldr	r2, [sp, #4]
    4cdc:	e5830000 	str	r0, [r3]
    4ce0:	e59d300c 	ldr	r3, [sp, #12]
    4ce4:	e7c31002 	strb	r1, [r3, r2]
    4ce8:	e59a3004 	ldr	r3, [sl, #4]
    4cec:	e28d0034 	add	r0, sp, #52	; 0x34
    4cf0:	e7c38007 	strb	r8, [r3, r7]
    4cf4:	e8900009 	ldm	r0, {r0, r3}
    4cf8:	e59a1000 	ldr	r1, [sl]
    4cfc:	e2855004 	add	r5, r5, #4
    4d00:	e3590007 	cmp	r9, #7
    4d04:	e0433000 	sub	r3, r3, r0
    4d08:	e0817005 	add	r7, r1, r5
    4d0c:	e083300b 	add	r3, r3, fp
    4d10:	158d202c 	strne	r2, [sp, #44]	; 0x2c
    4d14:	128b5c01 	addne	r5, fp, #256	; 0x100
    4d18:	1a0000ab 	bne	4fcc <add_harris_non_max+0x48c>
    4d1c:	e3a03447 	mov	r3, #1191182336	; 0x47000000
    4d20:	e7813005 	str	r3, [r1, r5]
    4d24:	e3e01000 	mvn	r1, #0
    4d28:	e59d301c 	ldr	r3, [sp, #28]
    4d2c:	e7c31002 	strb	r1, [r3, r2]
    4d30:	e59d1010 	ldr	r1, [sp, #16]
    4d34:	e59a3004 	ldr	r3, [sl, #4]
    4d38:	e3510000 	cmp	r1, #0
    4d3c:	e7c38002 	strb	r8, [r3, r2]
    4d40:	0a00000a 	beq	4d70 <add_harris_non_max+0x230>
    4d44:	e59a3000 	ldr	r3, [sl]
    4d48:	e2820002 	add	r0, r2, #2
    4d4c:	e0834004 	add	r4, r3, r4
    4d50:	eb0004fc 	bl	6148 <__aeabi_i2f>
    4d54:	e3a02000 	mov	r2, #0
    4d58:	e59d3044 	ldr	r3, [sp, #68]	; 0x44
    4d5c:	e5840404 	str	r0, [r4, #1028]	; 0x404
    4d60:	e7c3200b 	strb	r2, [r3, fp]
    4d64:	e59a3004 	ldr	r3, [sl, #4]
    4d68:	e083300b 	add	r3, r3, fp
    4d6c:	e5c38101 	strb	r8, [r3, #257]	; 0x101
    4d70:	e2893001 	add	r3, r9, #1
    4d74:	e59f94f4 	ldr	r9, [pc, #1268]	; 5270 <add_harris_non_max+0x730>
    4d78:	e0892993 	umull	r2, r9, r3, r9
    4d7c:	e59d2008 	ldr	r2, [sp, #8]
    4d80:	e2822003 	add	r2, r2, #3
    4d84:	e58d2008 	str	r2, [sp, #8]
    4d88:	e3520083 	cmp	r2, #131	; 0x83
    4d8c:	e59d2004 	ldr	r2, [sp, #4]
    4d90:	e1a090a9 	lsr	r9, r9, #1
    4d94:	e0899189 	add	r9, r9, r9, lsl #3
    4d98:	e2822003 	add	r2, r2, #3
    4d9c:	e58d2004 	str	r2, [sp, #4]
    4da0:	e28bb003 	add	fp, fp, #3
    4da4:	e2866003 	add	r6, r6, #3
    4da8:	e0439009 	sub	r9, r3, r9
    4dac:	0a000109 	beq	51d8 <add_harris_non_max+0x698>
    4db0:	e1a0410b 	lsl	r4, fp, #2
    4db4:	e2443004 	sub	r3, r4, #4
    4db8:	e3590000 	cmp	r9, #0
    4dbc:	e58d3018 	str	r3, [sp, #24]
    4dc0:	e24b5001 	sub	r5, fp, #1
    4dc4:	e59a7000 	ldr	r7, [sl]
    4dc8:	0a0000d3 	beq	511c <add_harris_non_max+0x5dc>
    4dcc:	e1a0000b 	mov	r0, fp
    4dd0:	eb0004dc 	bl	6148 <__aeabi_i2f>
    4dd4:	e3a02000 	mov	r2, #0
    4dd8:	e2443004 	sub	r3, r4, #4
    4ddc:	e7870003 	str	r0, [r7, r3]
    4de0:	e59d300c 	ldr	r3, [sp, #12]
    4de4:	e7c3200b 	strb	r2, [r3, fp]
    4de8:	e59a3004 	ldr	r3, [sl, #4]
    4dec:	e7c38005 	strb	r8, [r3, r5]
    4df0:	e59a3000 	ldr	r3, [sl]
    4df4:	e3590001 	cmp	r9, #1
    4df8:	e0835004 	add	r5, r3, r4
    4dfc:	13a03000 	movne	r3, #0
    4e00:	e59d201c 	ldr	r2, [sp, #28]
    4e04:	158d3014 	strne	r3, [sp, #20]
    4e08:	e082700b 	add	r7, r2, fp
    4e0c:	0a0000d8 	beq	5174 <add_harris_non_max+0x634>
    4e10:	e28b0001 	add	r0, fp, #1
    4e14:	eb0004cb 	bl	6148 <__aeabi_i2f>
    4e18:	e3a03000 	mov	r3, #0
    4e1c:	e5850000 	str	r0, [r5]
    4e20:	e5c73000 	strb	r3, [r7]
    4e24:	e59d2008 	ldr	r2, [sp, #8]
    4e28:	e59a3004 	ldr	r3, [sl, #4]
    4e2c:	e352007f 	cmp	r2, #127	; 0x7f
    4e30:	e7c3800b 	strb	r8, [r3, fp]
    4e34:	c3a03000 	movgt	r3, #0
    4e38:	c58d3010 	strgt	r3, [sp, #16]
    4e3c:	ca000010 	bgt	4e84 <add_harris_non_max+0x344>
    4e40:	e3590002 	cmp	r9, #2
    4e44:	e28b5001 	add	r5, fp, #1
    4e48:	e2847004 	add	r7, r4, #4
    4e4c:	e59a3000 	ldr	r3, [sl]
    4e50:	0a0000bf 	beq	5154 <add_harris_non_max+0x614>
    4e54:	e28b0002 	add	r0, fp, #2
    4e58:	e58d3010 	str	r3, [sp, #16]
    4e5c:	eb0004b9 	bl	6148 <__aeabi_i2f>
    4e60:	e3a02000 	mov	r2, #0
    4e64:	e59d3010 	ldr	r3, [sp, #16]
    4e68:	e7830007 	str	r0, [r3, r7]
    4e6c:	e59d3020 	ldr	r3, [sp, #32]
    4e70:	e7c3200b 	strb	r2, [r3, fp]
    4e74:	e59a3004 	ldr	r3, [sl, #4]
    4e78:	e7c38005 	strb	r8, [r3, r5]
    4e7c:	e3a03001 	mov	r3, #1
    4e80:	e58d3010 	str	r3, [sp, #16]
    4e84:	e1a05106 	lsl	r5, r6, #2
    4e88:	e3590003 	cmp	r9, #3
    4e8c:	e2453004 	sub	r3, r5, #4
    4e90:	e2467001 	sub	r7, r6, #1
    4e94:	e59a2000 	ldr	r2, [sl]
    4e98:	0a000069 	beq	5044 <add_harris_non_max+0x504>
    4e9c:	e1a00006 	mov	r0, r6
    4ea0:	e58d202c 	str	r2, [sp, #44]	; 0x2c
    4ea4:	e58d3028 	str	r3, [sp, #40]	; 0x28
    4ea8:	eb0004a6 	bl	6148 <__aeabi_i2f>
    4eac:	e59d3028 	ldr	r3, [sp, #40]	; 0x28
    4eb0:	e59d202c 	ldr	r2, [sp, #44]	; 0x2c
    4eb4:	e7820003 	str	r0, [r2, r3]
    4eb8:	e3a02000 	mov	r2, #0
    4ebc:	e59d300c 	ldr	r3, [sp, #12]
    4ec0:	e7c32006 	strb	r2, [r3, r6]
    4ec4:	e59a3004 	ldr	r3, [sl, #4]
    4ec8:	e7c38007 	strb	r8, [r3, r7]
    4ecc:	e59d203c 	ldr	r2, [sp, #60]	; 0x3c
    4ed0:	e59a1000 	ldr	r1, [sl]
    4ed4:	e3590004 	cmp	r9, #4
    4ed8:	e0813005 	add	r3, r1, r5
    4edc:	e082200b 	add	r2, r2, fp
    4ee0:	1a0000ba 	bne	51d0 <add_harris_non_max+0x690>
    4ee4:	e3a03447 	mov	r3, #1191182336	; 0x47000000
    4ee8:	e3e02000 	mvn	r2, #0
    4eec:	e7813005 	str	r3, [r1, r5]
    4ef0:	e59d301c 	ldr	r3, [sp, #28]
    4ef4:	e7c32006 	strb	r2, [r3, r6]
    4ef8:	e59d2010 	ldr	r2, [sp, #16]
    4efc:	e59a3004 	ldr	r3, [sl, #4]
    4f00:	e3520000 	cmp	r2, #0
    4f04:	e7c38006 	strb	r8, [r3, r6]
    4f08:	11a03002 	movne	r3, r2
    4f0c:	12867001 	addne	r7, r6, #1
    4f10:	158d3014 	strne	r3, [sp, #20]
    4f14:	0a0000cf 	beq	5258 <add_harris_non_max+0x718>
    4f18:	e3590005 	cmp	r9, #5
    4f1c:	e2855004 	add	r5, r5, #4
    4f20:	e59a3000 	ldr	r3, [sl]
    4f24:	0a000069 	beq	50d0 <add_harris_non_max+0x590>
    4f28:	e2860002 	add	r0, r6, #2
    4f2c:	e58d3028 	str	r3, [sp, #40]	; 0x28
    4f30:	eb000484 	bl	6148 <__aeabi_i2f>
    4f34:	e3a02000 	mov	r2, #0
    4f38:	e59d3028 	ldr	r3, [sp, #40]	; 0x28
    4f3c:	e7830005 	str	r0, [r3, r5]
    4f40:	e59d3020 	ldr	r3, [sp, #32]
    4f44:	e7c32006 	strb	r2, [r3, r6]
    4f48:	e59a3004 	ldr	r3, [sl, #4]
    4f4c:	e7c38007 	strb	r8, [r3, r7]
    4f50:	e59d3024 	ldr	r3, [sp, #36]	; 0x24
    4f54:	e353007f 	cmp	r3, #127	; 0x7f
    4f58:	daffff51 	ble	4ca4 <add_harris_non_max+0x164>
    4f5c:	e59d3014 	ldr	r3, [sp, #20]
    4f60:	e3530000 	cmp	r3, #0
    4f64:	1affff81 	bne	4d70 <add_harris_non_max+0x230>
    4f68:	e3a01447 	mov	r1, #1191182336	; 0x47000000
    4f6c:	e59a3000 	ldr	r3, [sl]
    4f70:	e59d2018 	ldr	r2, [sp, #24]
    4f74:	e7831002 	str	r1, [r3, r2]
    4f78:	e3e02000 	mvn	r2, #0
    4f7c:	e59d300c 	ldr	r3, [sp, #12]
    4f80:	e7c3200b 	strb	r2, [r3, fp]
    4f84:	eaffff79 	b	4d70 <add_harris_non_max+0x230>
    4f88:	e3a03447 	mov	r3, #1191182336	; 0x47000000
    4f8c:	e7813005 	str	r3, [r1, r5]
    4f90:	e3e01000 	mvn	r1, #0
    4f94:	e59d300c 	ldr	r3, [sp, #12]
    4f98:	e7c31000 	strb	r1, [r3, r0]
    4f9c:	e59a3004 	ldr	r3, [sl, #4]
    4fa0:	e7c38007 	strb	r8, [r3, r7]
    4fa4:	e59a1000 	ldr	r1, [sl]
    4fa8:	e0817002 	add	r7, r1, r2
    4fac:	e3a02001 	mov	r2, #1
    4fb0:	e28d0034 	add	r0, sp, #52	; 0x34
    4fb4:	e8900009 	ldm	r0, {r0, r3}
    4fb8:	e28b5c01 	add	r5, fp, #256	; 0x100
    4fbc:	e0433000 	sub	r3, r3, r0
    4fc0:	e58d502c 	str	r5, [sp, #44]	; 0x2c
    4fc4:	e58d2014 	str	r2, [sp, #20]
    4fc8:	e083300b 	add	r3, r3, fp
    4fcc:	e2855001 	add	r5, r5, #1
    4fd0:	e1a00005 	mov	r0, r5
    4fd4:	e58d3028 	str	r3, [sp, #40]	; 0x28
    4fd8:	eb00045a 	bl	6148 <__aeabi_i2f>
    4fdc:	e3a02000 	mov	r2, #0
    4fe0:	e59d3028 	ldr	r3, [sp, #40]	; 0x28
    4fe4:	e5870000 	str	r0, [r7]
    4fe8:	e59d1010 	ldr	r1, [sp, #16]
    4fec:	e5c32000 	strb	r2, [r3]
    4ff0:	e59d2040 	ldr	r2, [sp, #64]	; 0x40
    4ff4:	e59a3004 	ldr	r3, [sl, #4]
    4ff8:	e1120001 	tst	r2, r1
    4ffc:	e59d202c 	ldr	r2, [sp, #44]	; 0x2c
    5000:	e7c38002 	strb	r8, [r3, r2]
    5004:	0affffd4 	beq	4f5c <add_harris_non_max+0x41c>
    5008:	e2844b01 	add	r4, r4, #1024	; 0x400
    500c:	e3590008 	cmp	r9, #8
    5010:	e2844004 	add	r4, r4, #4
    5014:	e59a7000 	ldr	r7, [sl]
    5018:	0a00005b 	beq	518c <add_harris_non_max+0x64c>
    501c:	e59d3004 	ldr	r3, [sp, #4]
    5020:	e2830002 	add	r0, r3, #2
    5024:	eb000447 	bl	6148 <__aeabi_i2f>
    5028:	e3a02000 	mov	r2, #0
    502c:	e59d3044 	ldr	r3, [sp, #68]	; 0x44
    5030:	e7870004 	str	r0, [r7, r4]
    5034:	e7c3200b 	strb	r2, [r3, fp]
    5038:	e59a3004 	ldr	r3, [sl, #4]
    503c:	e7c38005 	strb	r8, [r3, r5]
    5040:	eaffffc5 	b	4f5c <add_harris_non_max+0x41c>
    5044:	e3a01447 	mov	r1, #1191182336	; 0x47000000
    5048:	e7821003 	str	r1, [r2, r3]
    504c:	e3e02000 	mvn	r2, #0
    5050:	e3a00001 	mov	r0, #1
    5054:	e59d300c 	ldr	r3, [sp, #12]
    5058:	e7c32006 	strb	r2, [r3, r6]
    505c:	e59a3004 	ldr	r3, [sl, #4]
    5060:	e7c38007 	strb	r8, [r3, r7]
    5064:	e59d203c 	ldr	r2, [sp, #60]	; 0x3c
    5068:	e59a3000 	ldr	r3, [sl]
    506c:	e58d0014 	str	r0, [sp, #20]
    5070:	e28b1080 	add	r1, fp, #128	; 0x80
    5074:	e0833005 	add	r3, r3, r5
    5078:	e082200b 	add	r2, r2, fp
    507c:	e2867001 	add	r7, r6, #1
    5080:	e1a00007 	mov	r0, r7
    5084:	e58d2030 	str	r2, [sp, #48]	; 0x30
    5088:	e58d102c 	str	r1, [sp, #44]	; 0x2c
    508c:	e58d3028 	str	r3, [sp, #40]	; 0x28
    5090:	eb00042c 	bl	6148 <__aeabi_i2f>
    5094:	e59d3028 	ldr	r3, [sp, #40]	; 0x28
    5098:	e5830000 	str	r0, [r3]
    509c:	e3a03000 	mov	r3, #0
    50a0:	e59d2030 	ldr	r2, [sp, #48]	; 0x30
    50a4:	e5c23000 	strb	r3, [r2]
    50a8:	e59d2010 	ldr	r2, [sp, #16]
    50ac:	e59a3004 	ldr	r3, [sl, #4]
    50b0:	e59d102c 	ldr	r1, [sp, #44]	; 0x2c
    50b4:	e3520000 	cmp	r2, #0
    50b8:	e7c38001 	strb	r8, [r3, r1]
    50bc:	0affffa3 	beq	4f50 <add_harris_non_max+0x410>
    50c0:	e3590005 	cmp	r9, #5
    50c4:	e2855004 	add	r5, r5, #4
    50c8:	e59a3000 	ldr	r3, [sl]
    50cc:	1affff95 	bne	4f28 <add_harris_non_max+0x3e8>
    50d0:	e3a02447 	mov	r2, #1191182336	; 0x47000000
    50d4:	e7832005 	str	r2, [r3, r5]
    50d8:	e3e02000 	mvn	r2, #0
    50dc:	e59d3020 	ldr	r3, [sp, #32]
    50e0:	e7c32006 	strb	r2, [r3, r6]
    50e4:	e59d2024 	ldr	r2, [sp, #36]	; 0x24
    50e8:	e59a3004 	ldr	r3, [sl, #4]
    50ec:	e352007f 	cmp	r2, #127	; 0x7f
    50f0:	e7c38007 	strb	r8, [r3, r7]
    50f4:	caffff1d 	bgt	4d70 <add_harris_non_max+0x230>
    50f8:	e3a03001 	mov	r3, #1
    50fc:	e59d2004 	ldr	r2, [sp, #4]
    5100:	e58d3014 	str	r3, [sp, #20]
    5104:	e1a05102 	lsl	r5, r2, #2
    5108:	e59a3000 	ldr	r3, [sl]
    510c:	e2455004 	sub	r5, r5, #4
    5110:	e0833005 	add	r3, r3, r5
    5114:	e2427001 	sub	r7, r2, #1
    5118:	eafffee9 	b	4cc4 <add_harris_non_max+0x184>
    511c:	e3a02447 	mov	r2, #1191182336	; 0x47000000
    5120:	e7872003 	str	r2, [r7, r3]
    5124:	e3e02000 	mvn	r2, #0
    5128:	e59d300c 	ldr	r3, [sp, #12]
    512c:	e7c3200b 	strb	r2, [r3, fp]
    5130:	e59a3004 	ldr	r3, [sl, #4]
    5134:	e7c38005 	strb	r8, [r3, r5]
    5138:	e59d301c 	ldr	r3, [sp, #28]
    513c:	e083700b 	add	r7, r3, fp
    5140:	e3a03001 	mov	r3, #1
    5144:	e59a5000 	ldr	r5, [sl]
    5148:	e58d3014 	str	r3, [sp, #20]
    514c:	e0855004 	add	r5, r5, r4
    5150:	eaffff2e 	b	4e10 <add_harris_non_max+0x2d0>
    5154:	e3a02447 	mov	r2, #1191182336	; 0x47000000
    5158:	e7832007 	str	r2, [r3, r7]
    515c:	e3a03001 	mov	r3, #1
    5160:	e3e02000 	mvn	r2, #0
    5164:	e58d3014 	str	r3, [sp, #20]
    5168:	e59d3020 	ldr	r3, [sp, #32]
    516c:	e7c3200b 	strb	r2, [r3, fp]
    5170:	eaffff3f 	b	4e74 <add_harris_non_max+0x334>
    5174:	e3a01447 	mov	r1, #1191182336	; 0x47000000
    5178:	e7831004 	str	r1, [r3, r4]
    517c:	e3e03000 	mvn	r3, #0
    5180:	e58d9014 	str	r9, [sp, #20]
    5184:	e7c2300b 	strb	r3, [r2, fp]
    5188:	eaffff25 	b	4e24 <add_harris_non_max+0x2e4>
    518c:	e3a03447 	mov	r3, #1191182336	; 0x47000000
    5190:	e3e01000 	mvn	r1, #0
    5194:	e7873004 	str	r3, [r7, r4]
    5198:	e59d2004 	ldr	r2, [sp, #4]
    519c:	e59d3020 	ldr	r3, [sp, #32]
    51a0:	e7c31002 	strb	r1, [r3, r2]
    51a4:	e2822003 	add	r2, r2, #3
    51a8:	e58d2004 	str	r2, [sp, #4]
    51ac:	e59d2008 	ldr	r2, [sp, #8]
    51b0:	e59a3004 	ldr	r3, [sl, #4]
    51b4:	e2822003 	add	r2, r2, #3
    51b8:	e58d2008 	str	r2, [sp, #8]
    51bc:	e28bb003 	add	fp, fp, #3
    51c0:	e2866003 	add	r6, r6, #3
    51c4:	e7c38005 	strb	r8, [r3, r5]
    51c8:	e3a09000 	mov	r9, #0
    51cc:	eafffef7 	b	4db0 <add_harris_non_max+0x270>
    51d0:	e1a01006 	mov	r1, r6
    51d4:	eaffffa8 	b	507c <add_harris_non_max+0x53c>
    51d8:	e59d304c 	ldr	r3, [sp, #76]	; 0x4c
    51dc:	e2833003 	add	r3, r3, #3
    51e0:	e58d304c 	str	r3, [sp, #76]	; 0x4c
    51e4:	e3530082 	cmp	r3, #130	; 0x82
    51e8:	e59d3024 	ldr	r3, [sp, #36]	; 0x24
    51ec:	e2833003 	add	r3, r3, #3
    51f0:	e58d3024 	str	r3, [sp, #36]	; 0x24
    51f4:	e59d3034 	ldr	r3, [sp, #52]	; 0x34
    51f8:	e2833d06 	add	r3, r3, #384	; 0x180
    51fc:	e58d3034 	str	r3, [sp, #52]	; 0x34
    5200:	e59d3038 	ldr	r3, [sp, #56]	; 0x38
    5204:	e2833d06 	add	r3, r3, #384	; 0x180
    5208:	e58d3038 	str	r3, [sp, #56]	; 0x38
    520c:	e59d3048 	ldr	r3, [sp, #72]	; 0x48
    5210:	e2833d06 	add	r3, r3, #384	; 0x180
    5214:	e58d3048 	str	r3, [sp, #72]	; 0x48
    5218:	1afffe89 	bne	4c44 <add_harris_non_max+0x104>
    521c:	e3a02001 	mov	r2, #1
    5220:	e59f104c 	ldr	r1, [pc, #76]	; 5274 <add_harris_non_max+0x734>
    5224:	e5911000 	ldr	r1, [r1]
    5228:	e59f3048 	ldr	r3, [pc, #72]	; 5278 <add_harris_non_max+0x738>
    522c:	e5911014 	ldr	r1, [r1, #20]
    5230:	e5933000 	ldr	r3, [r3]
    5234:	e59d0054 	ldr	r0, [sp, #84]	; 0x54
    5238:	e5911000 	ldr	r1, [r1]
    523c:	e5933014 	ldr	r3, [r3, #20]
    5240:	e5810000 	str	r0, [r1]
    5244:	e59d001c 	ldr	r0, [sp, #28]
    5248:	e5832000 	str	r2, [r3]
    524c:	e28dd05c 	add	sp, sp, #92	; 0x5c
    5250:	e8bd4ff0 	pop	{r4, r5, r6, r7, r8, r9, sl, fp, lr}
    5254:	e12fff1e 	bx	lr
    5258:	e59d3024 	ldr	r3, [sp, #36]	; 0x24
    525c:	e353007f 	cmp	r3, #127	; 0x7f
    5260:	cafffec2 	bgt	4d70 <add_harris_non_max+0x230>
    5264:	e3a03001 	mov	r3, #1
    5268:	e58d3014 	str	r3, [sp, #20]
    526c:	eafffe8c 	b	4ca4 <add_harris_non_max+0x164>
    5270:	38e38e39 	stmiacc	r3!, {r0, r3, r4, r5, r9, sl, fp, pc}^
    5274:	800016a0 	andhi	r1, r0, r0, lsr #13
    5278:	800016a4 	andhi	r1, r0, r4, lsr #13

0000527c <harris_non_max_check_output>:
    527c:	e92d4070 	push	{r4, r5, r6, lr}
    5280:	e1a05000 	mov	r5, r0
    5284:	e1a04001 	mov	r4, r1
    5288:	e59f0058 	ldr	r0, [pc, #88]	; 52e8 <harris_non_max_check_output+0x6c>
    528c:	eb00094b 	bl	77c0 <puts>
    5290:	e3a01000 	mov	r1, #0
    5294:	e595e004 	ldr	lr, [r5, #4]
    5298:	e2444080 	sub	r4, r4, #128	; 0x80
    529c:	e28e5901 	add	r5, lr, #16384	; 0x4000
    52a0:	e044400e 	sub	r4, r4, lr
    52a4:	e285507f 	add	r5, r5, #127	; 0x7f
    52a8:	e28ee07f 	add	lr, lr, #127	; 0x7f
    52ac:	e24e3080 	sub	r3, lr, #128	; 0x80
    52b0:	e084200e 	add	r2, r4, lr
    52b4:	e5f3c001 	ldrb	ip, [r3, #1]!
    52b8:	e5f20001 	ldrb	r0, [r2, #1]!
    52bc:	e15c0000 	cmp	ip, r0
    52c0:	12811001 	addne	r1, r1, #1
    52c4:	e15e0003 	cmp	lr, r3
    52c8:	1afffff9 	bne	52b4 <harris_non_max_check_output+0x38>
    52cc:	e28ee080 	add	lr, lr, #128	; 0x80
    52d0:	e155000e 	cmp	r5, lr
    52d4:	1afffff4 	bne	52ac <harris_non_max_check_output+0x30>
    52d8:	e59f000c 	ldr	r0, [pc, #12]	; 52ec <harris_non_max_check_output+0x70>
    52dc:	eb0008e2 	bl	766c <printf>
    52e0:	e8bd4070 	pop	{r4, r5, r6, lr}
    52e4:	e12fff1e 	bx	lr
    52e8:	00006ee0 	andeq	r6, r0, r0, ror #29
    52ec:	00006ef8 	strdeq	r6, [r0], -r8

000052f0 <add_isp>:
    52f0:	e92d4070 	push	{r4, r5, r6, lr}
    52f4:	e3a00008 	mov	r0, #8
    52f8:	e24dd008 	sub	sp, sp, #8
    52fc:	ebffec42 	bl	40c <get_memory>
    5300:	e1a04000 	mov	r4, r0
    5304:	e3a00f4b 	mov	r0, #300	; 0x12c
    5308:	ebffec3f 	bl	40c <get_memory>
    530c:	e1a03000 	mov	r3, r0
    5310:	e59f60e0 	ldr	r6, [pc, #224]	; 53f8 <add_isp+0x108>
    5314:	e1a00006 	mov	r0, r6
    5318:	e58d3004 	str	r3, [sp, #4]
    531c:	ebffec3a 	bl	40c <get_memory>
    5320:	e5840000 	str	r0, [r4]
    5324:	e3a00903 	mov	r0, #49152	; 0xc000
    5328:	ebffec37 	bl	40c <get_memory>
    532c:	e3a0c006 	mov	ip, #6
    5330:	e3a03000 	mov	r3, #0
    5334:	e3a05001 	mov	r5, #1
    5338:	e59d1004 	ldr	r1, [sp, #4]
    533c:	e5840004 	str	r0, [r4, #4]
    5340:	e581c000 	str	ip, [r1]
    5344:	e59d1004 	ldr	r1, [sp, #4]
    5348:	e59dc004 	ldr	ip, [sp, #4]
    534c:	e5940000 	ldr	r0, [r4]
    5350:	e5814004 	str	r4, [r1, #4]
    5354:	e59d1004 	ldr	r1, [sp, #4]
    5358:	e58c3008 	str	r3, [ip, #8]
    535c:	e59dc004 	ldr	ip, [sp, #4]
    5360:	e581300c 	str	r3, [r1, #12]
    5364:	e59d1004 	ldr	r1, [sp, #4]
    5368:	e58c30d8 	str	r3, [ip, #216]	; 0xd8
    536c:	e59dc004 	ldr	ip, [sp, #4]
    5370:	e58130ec 	str	r3, [r1, #236]	; 0xec
    5374:	e59d1004 	ldr	r1, [sp, #4]
    5378:	e58c30dc 	str	r3, [ip, #220]	; 0xdc
    537c:	e59dc004 	ldr	ip, [sp, #4]
    5380:	e58130f0 	str	r3, [r1, #240]	; 0xf0
    5384:	e59d1004 	ldr	r1, [sp, #4]
    5388:	e58c30e0 	str	r3, [ip, #224]	; 0xe0
    538c:	e59dc004 	ldr	ip, [sp, #4]
    5390:	e58130f4 	str	r3, [r1, #244]	; 0xf4
    5394:	e59d1004 	ldr	r1, [sp, #4]
    5398:	e58c30e4 	str	r3, [ip, #228]	; 0xe4
    539c:	e59dc004 	ldr	ip, [sp, #4]
    53a0:	e58130f8 	str	r3, [r1, #248]	; 0xf8
    53a4:	e59d1004 	ldr	r1, [sp, #4]
    53a8:	e58c30e8 	str	r3, [ip, #232]	; 0xe8
    53ac:	e59dc004 	ldr	ip, [sp, #4]
    53b0:	e58130fc 	str	r3, [r1, #252]	; 0xfc
    53b4:	e1a02006 	mov	r2, r6
    53b8:	e3a01080 	mov	r1, #128	; 0x80
    53bc:	e58c5100 	str	r5, [ip, #256]	; 0x100
    53c0:	eb000856 	bl	7520 <memset>
    53c4:	e59f2030 	ldr	r2, [pc, #48]	; 53fc <add_isp+0x10c>
    53c8:	e59f3030 	ldr	r3, [pc, #48]	; 5400 <add_isp+0x110>
    53cc:	e5922000 	ldr	r2, [r2]
    53d0:	e5933000 	ldr	r3, [r3]
    53d4:	e5922018 	ldr	r2, [r2, #24]
    53d8:	e5933018 	ldr	r3, [r3, #24]
    53dc:	e5922000 	ldr	r2, [r2]
    53e0:	e59d1004 	ldr	r1, [sp, #4]
    53e4:	e5821000 	str	r1, [r2]
    53e8:	e5835000 	str	r5, [r3]
    53ec:	e28dd008 	add	sp, sp, #8
    53f0:	e8bd4070 	pop	{r4, r5, r6, lr}
    53f4:	e12fff1e 	bx	lr
    53f8:	00004204 	andeq	r4, r0, r4, lsl #4
    53fc:	800016a0 	andhi	r1, r0, r0, lsr #13
    5400:	800016a4 	andhi	r1, r0, r4, lsr #13

00005404 <isp_check_output>:
    5404:	e92d4010 	push	{r4, lr}
    5408:	e1a04000 	mov	r4, r0
    540c:	e59f0064 	ldr	r0, [pc, #100]	; 5478 <isp_check_output+0x74>
    5410:	eb0008ea 	bl	77c0 <puts>
    5414:	e3a01000 	mov	r1, #0
    5418:	e5940004 	ldr	r0, [r4, #4]
    541c:	e280ccc1 	add	ip, r0, #49408	; 0xc100
    5420:	e28cc080 	add	ip, ip, #128	; 0x80
    5424:	e2800d06 	add	r0, r0, #384	; 0x180
    5428:	e2403d06 	sub	r3, r0, #384	; 0x180
    542c:	e5d32000 	ldrb	r2, [r3]
    5430:	e35200b4 	cmp	r2, #180	; 0xb4
    5434:	e5d32001 	ldrb	r2, [r3, #1]
    5438:	12811001 	addne	r1, r1, #1
    543c:	e3520000 	cmp	r2, #0
    5440:	e5d32002 	ldrb	r2, [r3, #2]
    5444:	12811001 	addne	r1, r1, #1
    5448:	e2833003 	add	r3, r3, #3
    544c:	e35200b4 	cmp	r2, #180	; 0xb4
    5450:	12811001 	addne	r1, r1, #1
    5454:	e1500003 	cmp	r0, r3
    5458:	1afffff3 	bne	542c <isp_check_output+0x28>
    545c:	e2800d06 	add	r0, r0, #384	; 0x180
    5460:	e15c0000 	cmp	ip, r0
    5464:	1affffef 	bne	5428 <isp_check_output+0x24>
    5468:	e59f000c 	ldr	r0, [pc, #12]	; 547c <isp_check_output+0x78>
    546c:	eb00087e 	bl	766c <printf>
    5470:	e8bd4010 	pop	{r4, lr}
    5474:	e12fff1e 	bx	lr
    5478:	00006f24 	andeq	r6, r0, r4, lsr #30
    547c:	00006f3c 	andeq	r6, r0, ip, lsr pc

00005480 <__aeabi_drsub>:
    5480:	e2211102 	eor	r1, r1, #-2147483648	; 0x80000000
    5484:	ea000000 	b	548c <__adddf3>

00005488 <__aeabi_dsub>:
    5488:	e2233102 	eor	r3, r3, #-2147483648	; 0x80000000

0000548c <__adddf3>:
    548c:	e92d4030 	push	{r4, r5, lr}
    5490:	e1a04081 	lsl	r4, r1, #1
    5494:	e1a05083 	lsl	r5, r3, #1
    5498:	e1340005 	teq	r4, r5
    549c:	01300002 	teqeq	r0, r2
    54a0:	1194c000 	orrsne	ip, r4, r0
    54a4:	1195c002 	orrsne	ip, r5, r2
    54a8:	11f0cac4 	mvnsne	ip, r4, asr #21
    54ac:	11f0cac5 	mvnsne	ip, r5, asr #21
    54b0:	0a00008c 	beq	56e8 <__adddf3+0x25c>
    54b4:	e1a04aa4 	lsr	r4, r4, #21
    54b8:	e0745aa5 	rsbs	r5, r4, r5, lsr #21
    54bc:	b2655000 	rsblt	r5, r5, #0
    54c0:	da000006 	ble	54e0 <__adddf3+0x54>
    54c4:	e0844005 	add	r4, r4, r5
    54c8:	e0202002 	eor	r2, r0, r2
    54cc:	e0213003 	eor	r3, r1, r3
    54d0:	e0220000 	eor	r0, r2, r0
    54d4:	e0231001 	eor	r1, r3, r1
    54d8:	e0202002 	eor	r2, r0, r2
    54dc:	e0213003 	eor	r3, r1, r3
    54e0:	e3550036 	cmp	r5, #54	; 0x36
    54e4:	88bd4030 	pophi	{r4, r5, lr}
    54e8:	812fff1e 	bxhi	lr
    54ec:	e3110102 	tst	r1, #-2147483648	; 0x80000000
    54f0:	e1a01601 	lsl	r1, r1, #12
    54f4:	e3a0c601 	mov	ip, #1048576	; 0x100000
    54f8:	e18c1621 	orr	r1, ip, r1, lsr #12
    54fc:	0a000001 	beq	5508 <__adddf3+0x7c>
    5500:	e2700000 	rsbs	r0, r0, #0
    5504:	e2e11000 	rsc	r1, r1, #0
    5508:	e3130102 	tst	r3, #-2147483648	; 0x80000000
    550c:	e1a03603 	lsl	r3, r3, #12
    5510:	e18c3623 	orr	r3, ip, r3, lsr #12
    5514:	0a000001 	beq	5520 <__adddf3+0x94>
    5518:	e2722000 	rsbs	r2, r2, #0
    551c:	e2e33000 	rsc	r3, r3, #0
    5520:	e1340005 	teq	r4, r5
    5524:	0a000069 	beq	56d0 <__adddf3+0x244>
    5528:	e2444001 	sub	r4, r4, #1
    552c:	e275e020 	rsbs	lr, r5, #32
    5530:	ba000005 	blt	554c <__adddf3+0xc0>
    5534:	e1a0ce12 	lsl	ip, r2, lr
    5538:	e0900532 	adds	r0, r0, r2, lsr r5
    553c:	e2a11000 	adc	r1, r1, #0
    5540:	e0900e13 	adds	r0, r0, r3, lsl lr
    5544:	e0b11553 	adcs	r1, r1, r3, asr r5
    5548:	ea000006 	b	5568 <__adddf3+0xdc>
    554c:	e2455020 	sub	r5, r5, #32
    5550:	e28ee020 	add	lr, lr, #32
    5554:	e3520001 	cmp	r2, #1
    5558:	e1a0ce13 	lsl	ip, r3, lr
    555c:	238cc002 	orrcs	ip, ip, #2
    5560:	e0900553 	adds	r0, r0, r3, asr r5
    5564:	e0b11fc3 	adcs	r1, r1, r3, asr #31
    5568:	e2015102 	and	r5, r1, #-2147483648	; 0x80000000
    556c:	5a000002 	bpl	557c <__adddf3+0xf0>
    5570:	e27cc000 	rsbs	ip, ip, #0
    5574:	e2f00000 	rscs	r0, r0, #0
    5578:	e2e11000 	rsc	r1, r1, #0
    557c:	e3510601 	cmp	r1, #1048576	; 0x100000
    5580:	3a00000f 	bcc	55c4 <__adddf3+0x138>
    5584:	e3510602 	cmp	r1, #2097152	; 0x200000
    5588:	3a000006 	bcc	55a8 <__adddf3+0x11c>
    558c:	e1b010a1 	lsrs	r1, r1, #1
    5590:	e1b00060 	rrxs	r0, r0
    5594:	e1a0c06c 	rrx	ip, ip
    5598:	e2844001 	add	r4, r4, #1
    559c:	e1a02a84 	lsl	r2, r4, #21
    55a0:	e3720501 	cmn	r2, #4194304	; 0x400000
    55a4:	2a00006b 	bcs	5758 <__adddf3+0x2cc>
    55a8:	e35c0102 	cmp	ip, #-2147483648	; 0x80000000
    55ac:	01b0c0a0 	lsrseq	ip, r0, #1
    55b0:	e2b00000 	adcs	r0, r0, #0
    55b4:	e0a11a04 	adc	r1, r1, r4, lsl #20
    55b8:	e1811005 	orr	r1, r1, r5
    55bc:	e8bd4030 	pop	{r4, r5, lr}
    55c0:	e12fff1e 	bx	lr
    55c4:	e1b0c08c 	lsls	ip, ip, #1
    55c8:	e0b00000 	adcs	r0, r0, r0
    55cc:	e0a11001 	adc	r1, r1, r1
    55d0:	e3110601 	tst	r1, #1048576	; 0x100000
    55d4:	e2444001 	sub	r4, r4, #1
    55d8:	1afffff2 	bne	55a8 <__adddf3+0x11c>
    55dc:	e3310000 	teq	r1, #0
    55e0:	13a03014 	movne	r3, #20
    55e4:	03a03034 	moveq	r3, #52	; 0x34
    55e8:	01a01000 	moveq	r1, r0
    55ec:	03a00000 	moveq	r0, #0
    55f0:	e1a02001 	mov	r2, r1
    55f4:	e3520801 	cmp	r2, #65536	; 0x10000
    55f8:	21a02822 	lsrcs	r2, r2, #16
    55fc:	22433010 	subcs	r3, r3, #16
    5600:	e3520c01 	cmp	r2, #256	; 0x100
    5604:	21a02422 	lsrcs	r2, r2, #8
    5608:	22433008 	subcs	r3, r3, #8
    560c:	e3520010 	cmp	r2, #16
    5610:	21a02222 	lsrcs	r2, r2, #4
    5614:	22433004 	subcs	r3, r3, #4
    5618:	e3520004 	cmp	r2, #4
    561c:	22433002 	subcs	r3, r3, #2
    5620:	304330a2 	subcc	r3, r3, r2, lsr #1
    5624:	e04331a2 	sub	r3, r3, r2, lsr #3
    5628:	e2532020 	subs	r2, r3, #32
    562c:	aa000007 	bge	5650 <__adddf3+0x1c4>
    5630:	e292200c 	adds	r2, r2, #12
    5634:	da000004 	ble	564c <__adddf3+0x1c0>
    5638:	e282c014 	add	ip, r2, #20
    563c:	e262200c 	rsb	r2, r2, #12
    5640:	e1a00c11 	lsl	r0, r1, ip
    5644:	e1a01231 	lsr	r1, r1, r2
    5648:	ea000004 	b	5660 <__adddf3+0x1d4>
    564c:	e2822014 	add	r2, r2, #20
    5650:	d262c020 	rsble	ip, r2, #32
    5654:	e1a01211 	lsl	r1, r1, r2
    5658:	d1811c30 	orrle	r1, r1, r0, lsr ip
    565c:	d1a00210 	lslle	r0, r0, r2
    5660:	e0544003 	subs	r4, r4, r3
    5664:	a0811a04 	addge	r1, r1, r4, lsl #20
    5668:	a1811005 	orrge	r1, r1, r5
    566c:	a8bd4030 	popge	{r4, r5, lr}
    5670:	a12fff1e 	bxge	lr
    5674:	e1e04004 	mvn	r4, r4
    5678:	e254401f 	subs	r4, r4, #31
    567c:	aa00000f 	bge	56c0 <__adddf3+0x234>
    5680:	e294400c 	adds	r4, r4, #12
    5684:	ca000006 	bgt	56a4 <__adddf3+0x218>
    5688:	e2844014 	add	r4, r4, #20
    568c:	e2642020 	rsb	r2, r4, #32
    5690:	e1a00430 	lsr	r0, r0, r4
    5694:	e1800211 	orr	r0, r0, r1, lsl r2
    5698:	e1851431 	orr	r1, r5, r1, lsr r4
    569c:	e8bd4030 	pop	{r4, r5, lr}
    56a0:	e12fff1e 	bx	lr
    56a4:	e264400c 	rsb	r4, r4, #12
    56a8:	e2642020 	rsb	r2, r4, #32
    56ac:	e1a00230 	lsr	r0, r0, r2
    56b0:	e1800411 	orr	r0, r0, r1, lsl r4
    56b4:	e1a01005 	mov	r1, r5
    56b8:	e8bd4030 	pop	{r4, r5, lr}
    56bc:	e12fff1e 	bx	lr
    56c0:	e1a00431 	lsr	r0, r1, r4
    56c4:	e1a01005 	mov	r1, r5
    56c8:	e8bd4030 	pop	{r4, r5, lr}
    56cc:	e12fff1e 	bx	lr
    56d0:	e3340000 	teq	r4, #0
    56d4:	e2233601 	eor	r3, r3, #1048576	; 0x100000
    56d8:	02211601 	eoreq	r1, r1, #1048576	; 0x100000
    56dc:	02844001 	addeq	r4, r4, #1
    56e0:	12455001 	subne	r5, r5, #1
    56e4:	eaffff8f 	b	5528 <__adddf3+0x9c>
    56e8:	e1f0cac4 	mvns	ip, r4, asr #21
    56ec:	11f0cac5 	mvnsne	ip, r5, asr #21
    56f0:	0a00001d 	beq	576c <__adddf3+0x2e0>
    56f4:	e1340005 	teq	r4, r5
    56f8:	01300002 	teqeq	r0, r2
    56fc:	0a000004 	beq	5714 <__adddf3+0x288>
    5700:	e194c000 	orrs	ip, r4, r0
    5704:	01a01003 	moveq	r1, r3
    5708:	01a00002 	moveq	r0, r2
    570c:	e8bd4030 	pop	{r4, r5, lr}
    5710:	e12fff1e 	bx	lr
    5714:	e1310003 	teq	r1, r3
    5718:	13a01000 	movne	r1, #0
    571c:	13a00000 	movne	r0, #0
    5720:	18bd4030 	popne	{r4, r5, lr}
    5724:	112fff1e 	bxne	lr
    5728:	e1b0caa4 	lsrs	ip, r4, #21
    572c:	1a000004 	bne	5744 <__adddf3+0x2b8>
    5730:	e1b00080 	lsls	r0, r0, #1
    5734:	e0b11001 	adcs	r1, r1, r1
    5738:	23811102 	orrcs	r1, r1, #-2147483648	; 0x80000000
    573c:	e8bd4030 	pop	{r4, r5, lr}
    5740:	e12fff1e 	bx	lr
    5744:	e2944501 	adds	r4, r4, #4194304	; 0x400000
    5748:	32811601 	addcc	r1, r1, #1048576	; 0x100000
    574c:	38bd4030 	popcc	{r4, r5, lr}
    5750:	312fff1e 	bxcc	lr
    5754:	e2015102 	and	r5, r1, #-2147483648	; 0x80000000
    5758:	e385147f 	orr	r1, r5, #2130706432	; 0x7f000000
    575c:	e381160f 	orr	r1, r1, #15728640	; 0xf00000
    5760:	e3a00000 	mov	r0, #0
    5764:	e8bd4030 	pop	{r4, r5, lr}
    5768:	e12fff1e 	bx	lr
    576c:	e1f0cac4 	mvns	ip, r4, asr #21
    5770:	11a01003 	movne	r1, r3
    5774:	11a00002 	movne	r0, r2
    5778:	01f0cac5 	mvnseq	ip, r5, asr #21
    577c:	11a03001 	movne	r3, r1
    5780:	11a02000 	movne	r2, r0
    5784:	e1904601 	orrs	r4, r0, r1, lsl #12
    5788:	01925603 	orrseq	r5, r2, r3, lsl #12
    578c:	01310003 	teqeq	r1, r3
    5790:	13811702 	orrne	r1, r1, #524288	; 0x80000
    5794:	e8bd4030 	pop	{r4, r5, lr}
    5798:	e12fff1e 	bx	lr

0000579c <__aeabi_ui2d>:
    579c:	e3300000 	teq	r0, #0
    57a0:	03a01000 	moveq	r1, #0
    57a4:	012fff1e 	bxeq	lr
    57a8:	e92d4030 	push	{r4, r5, lr}
    57ac:	e3a04b01 	mov	r4, #1024	; 0x400
    57b0:	e2844032 	add	r4, r4, #50	; 0x32
    57b4:	e3a05000 	mov	r5, #0
    57b8:	e3a01000 	mov	r1, #0
    57bc:	eaffff86 	b	55dc <__adddf3+0x150>

000057c0 <__aeabi_i2d>:
    57c0:	e3300000 	teq	r0, #0
    57c4:	03a01000 	moveq	r1, #0
    57c8:	012fff1e 	bxeq	lr
    57cc:	e92d4030 	push	{r4, r5, lr}
    57d0:	e3a04b01 	mov	r4, #1024	; 0x400
    57d4:	e2844032 	add	r4, r4, #50	; 0x32
    57d8:	e2105102 	ands	r5, r0, #-2147483648	; 0x80000000
    57dc:	42600000 	rsbmi	r0, r0, #0
    57e0:	e3a01000 	mov	r1, #0
    57e4:	eaffff7c 	b	55dc <__adddf3+0x150>

000057e8 <__aeabi_f2d>:
    57e8:	e1b02080 	lsls	r2, r0, #1
    57ec:	e1a011c2 	asr	r1, r2, #3
    57f0:	e1a01061 	rrx	r1, r1
    57f4:	e1a00e02 	lsl	r0, r2, #28
    57f8:	121234ff 	andsne	r3, r2, #-16777216	; 0xff000000
    57fc:	133304ff 	teqne	r3, #-16777216	; 0xff000000
    5800:	1221130e 	eorne	r1, r1, #939524096	; 0x38000000
    5804:	112fff1e 	bxne	lr
    5808:	e3d224ff 	bics	r2, r2, #-16777216	; 0xff000000
    580c:	012fff1e 	bxeq	lr
    5810:	e33304ff 	teq	r3, #-16777216	; 0xff000000
    5814:	03811702 	orreq	r1, r1, #524288	; 0x80000
    5818:	012fff1e 	bxeq	lr
    581c:	e92d4030 	push	{r4, r5, lr}
    5820:	e3a04d0e 	mov	r4, #896	; 0x380
    5824:	e2015102 	and	r5, r1, #-2147483648	; 0x80000000
    5828:	e3c11102 	bic	r1, r1, #-2147483648	; 0x80000000
    582c:	eaffff6a 	b	55dc <__adddf3+0x150>

00005830 <__aeabi_ul2d>:
    5830:	e1902001 	orrs	r2, r0, r1
    5834:	012fff1e 	bxeq	lr
    5838:	e92d4030 	push	{r4, r5, lr}
    583c:	e3a05000 	mov	r5, #0
    5840:	ea000006 	b	5860 <__aeabi_l2d+0x1c>

00005844 <__aeabi_l2d>:
    5844:	e1902001 	orrs	r2, r0, r1
    5848:	012fff1e 	bxeq	lr
    584c:	e92d4030 	push	{r4, r5, lr}
    5850:	e2115102 	ands	r5, r1, #-2147483648	; 0x80000000
    5854:	5a000001 	bpl	5860 <__aeabi_l2d+0x1c>
    5858:	e2700000 	rsbs	r0, r0, #0
    585c:	e2e11000 	rsc	r1, r1, #0
    5860:	e3a04b01 	mov	r4, #1024	; 0x400
    5864:	e2844032 	add	r4, r4, #50	; 0x32
    5868:	e1b0cb21 	lsrs	ip, r1, #22
    586c:	0affff42 	beq	557c <__adddf3+0xf0>
    5870:	e3a02003 	mov	r2, #3
    5874:	e1b0c1ac 	lsrs	ip, ip, #3
    5878:	12822003 	addne	r2, r2, #3
    587c:	e1b0c1ac 	lsrs	ip, ip, #3
    5880:	12822003 	addne	r2, r2, #3
    5884:	e08221ac 	add	r2, r2, ip, lsr #3
    5888:	e2623020 	rsb	r3, r2, #32
    588c:	e1a0c310 	lsl	ip, r0, r3
    5890:	e1a00230 	lsr	r0, r0, r2
    5894:	e1800311 	orr	r0, r0, r1, lsl r3
    5898:	e1a01231 	lsr	r1, r1, r2
    589c:	e0844002 	add	r4, r4, r2
    58a0:	eaffff35 	b	557c <__adddf3+0xf0>

000058a4 <__aeabi_dmul>:
    58a4:	e92d4070 	push	{r4, r5, r6, lr}
    58a8:	e3a0c0ff 	mov	ip, #255	; 0xff
    58ac:	e38ccc07 	orr	ip, ip, #1792	; 0x700
    58b0:	e01c4a21 	ands	r4, ip, r1, lsr #20
    58b4:	101c5a23 	andsne	r5, ip, r3, lsr #20
    58b8:	1134000c 	teqne	r4, ip
    58bc:	1135000c 	teqne	r5, ip
    58c0:	0b000075 	bleq	5a9c <__aeabi_dmul+0x1f8>
    58c4:	e0844005 	add	r4, r4, r5
    58c8:	e0216003 	eor	r6, r1, r3
    58cc:	e1c11a8c 	bic	r1, r1, ip, lsl #21
    58d0:	e1c33a8c 	bic	r3, r3, ip, lsl #21
    58d4:	e1905601 	orrs	r5, r0, r1, lsl #12
    58d8:	11925603 	orrsne	r5, r2, r3, lsl #12
    58dc:	e3811601 	orr	r1, r1, #1048576	; 0x100000
    58e0:	e3833601 	orr	r3, r3, #1048576	; 0x100000
    58e4:	0a00001d 	beq	5960 <__aeabi_dmul+0xbc>
    58e8:	e08ec290 	umull	ip, lr, r0, r2
    58ec:	e3a05000 	mov	r5, #0
    58f0:	e0a5e291 	umlal	lr, r5, r1, r2
    58f4:	e2062102 	and	r2, r6, #-2147483648	; 0x80000000
    58f8:	e0a5e390 	umlal	lr, r5, r0, r3
    58fc:	e3a06000 	mov	r6, #0
    5900:	e0a65391 	umlal	r5, r6, r1, r3
    5904:	e33c0000 	teq	ip, #0
    5908:	138ee001 	orrne	lr, lr, #1
    590c:	e24440ff 	sub	r4, r4, #255	; 0xff
    5910:	e3560c02 	cmp	r6, #512	; 0x200
    5914:	e2c44c03 	sbc	r4, r4, #768	; 0x300
    5918:	2a000002 	bcs	5928 <__aeabi_dmul+0x84>
    591c:	e1b0e08e 	lsls	lr, lr, #1
    5920:	e0b55005 	adcs	r5, r5, r5
    5924:	e0a66006 	adc	r6, r6, r6
    5928:	e1821586 	orr	r1, r2, r6, lsl #11
    592c:	e1811aa5 	orr	r1, r1, r5, lsr #21
    5930:	e1a00585 	lsl	r0, r5, #11
    5934:	e1800aae 	orr	r0, r0, lr, lsr #21
    5938:	e1a0e58e 	lsl	lr, lr, #11
    593c:	e254c0fd 	subs	ip, r4, #253	; 0xfd
    5940:	835c0c07 	cmphi	ip, #1792	; 0x700
    5944:	8a000011 	bhi	5990 <__aeabi_dmul+0xec>
    5948:	e35e0102 	cmp	lr, #-2147483648	; 0x80000000
    594c:	01b0e0a0 	lsrseq	lr, r0, #1
    5950:	e2b00000 	adcs	r0, r0, #0
    5954:	e0a11a04 	adc	r1, r1, r4, lsl #20
    5958:	e8bd4070 	pop	{r4, r5, r6, lr}
    595c:	e12fff1e 	bx	lr
    5960:	e2066102 	and	r6, r6, #-2147483648	; 0x80000000
    5964:	e1861001 	orr	r1, r6, r1
    5968:	e1800002 	orr	r0, r0, r2
    596c:	e0211003 	eor	r1, r1, r3
    5970:	e05440ac 	subs	r4, r4, ip, lsr #1
    5974:	c074500c 	rsbsgt	r5, r4, ip
    5978:	c1811a04 	orrgt	r1, r1, r4, lsl #20
    597c:	c8bd4070 	popgt	{r4, r5, r6, lr}
    5980:	c12fff1e 	bxgt	lr
    5984:	e3811601 	orr	r1, r1, #1048576	; 0x100000
    5988:	e3a0e000 	mov	lr, #0
    598c:	e2544001 	subs	r4, r4, #1
    5990:	ca00005d 	bgt	5b0c <__aeabi_dmul+0x268>
    5994:	e3740036 	cmn	r4, #54	; 0x36
    5998:	d3a00000 	movle	r0, #0
    599c:	d2011102 	andle	r1, r1, #-2147483648	; 0x80000000
    59a0:	d8bd4070 	pople	{r4, r5, r6, lr}
    59a4:	d12fff1e 	bxle	lr
    59a8:	e2644000 	rsb	r4, r4, #0
    59ac:	e2544020 	subs	r4, r4, #32
    59b0:	aa00001a 	bge	5a20 <__aeabi_dmul+0x17c>
    59b4:	e294400c 	adds	r4, r4, #12
    59b8:	ca00000c 	bgt	59f0 <__aeabi_dmul+0x14c>
    59bc:	e2844014 	add	r4, r4, #20
    59c0:	e2645020 	rsb	r5, r4, #32
    59c4:	e1a03510 	lsl	r3, r0, r5
    59c8:	e1a00430 	lsr	r0, r0, r4
    59cc:	e1800511 	orr	r0, r0, r1, lsl r5
    59d0:	e2012102 	and	r2, r1, #-2147483648	; 0x80000000
    59d4:	e3c11102 	bic	r1, r1, #-2147483648	; 0x80000000
    59d8:	e0900fa3 	adds	r0, r0, r3, lsr #31
    59dc:	e0a21431 	adc	r1, r2, r1, lsr r4
    59e0:	e19ee083 	orrs	lr, lr, r3, lsl #1
    59e4:	01c00fa3 	biceq	r0, r0, r3, lsr #31
    59e8:	e8bd4070 	pop	{r4, r5, r6, lr}
    59ec:	e12fff1e 	bx	lr
    59f0:	e264400c 	rsb	r4, r4, #12
    59f4:	e2645020 	rsb	r5, r4, #32
    59f8:	e1a03410 	lsl	r3, r0, r4
    59fc:	e1a00530 	lsr	r0, r0, r5
    5a00:	e1800411 	orr	r0, r0, r1, lsl r4
    5a04:	e2011102 	and	r1, r1, #-2147483648	; 0x80000000
    5a08:	e0900fa3 	adds	r0, r0, r3, lsr #31
    5a0c:	e2a11000 	adc	r1, r1, #0
    5a10:	e19ee083 	orrs	lr, lr, r3, lsl #1
    5a14:	01c00fa3 	biceq	r0, r0, r3, lsr #31
    5a18:	e8bd4070 	pop	{r4, r5, r6, lr}
    5a1c:	e12fff1e 	bx	lr
    5a20:	e2645020 	rsb	r5, r4, #32
    5a24:	e18ee510 	orr	lr, lr, r0, lsl r5
    5a28:	e1a03430 	lsr	r3, r0, r4
    5a2c:	e1833511 	orr	r3, r3, r1, lsl r5
    5a30:	e1a00431 	lsr	r0, r1, r4
    5a34:	e2011102 	and	r1, r1, #-2147483648	; 0x80000000
    5a38:	e1c00431 	bic	r0, r0, r1, lsr r4
    5a3c:	e0800fa3 	add	r0, r0, r3, lsr #31
    5a40:	e19ee083 	orrs	lr, lr, r3, lsl #1
    5a44:	01c00fa3 	biceq	r0, r0, r3, lsr #31
    5a48:	e8bd4070 	pop	{r4, r5, r6, lr}
    5a4c:	e12fff1e 	bx	lr
    5a50:	e3340000 	teq	r4, #0
    5a54:	1a000008 	bne	5a7c <__aeabi_dmul+0x1d8>
    5a58:	e2016102 	and	r6, r1, #-2147483648	; 0x80000000
    5a5c:	e1b00080 	lsls	r0, r0, #1
    5a60:	e0a11001 	adc	r1, r1, r1
    5a64:	e3110601 	tst	r1, #1048576	; 0x100000
    5a68:	02444001 	subeq	r4, r4, #1
    5a6c:	0afffffa 	beq	5a5c <__aeabi_dmul+0x1b8>
    5a70:	e1811006 	orr	r1, r1, r6
    5a74:	e3350000 	teq	r5, #0
    5a78:	112fff1e 	bxne	lr
    5a7c:	e2036102 	and	r6, r3, #-2147483648	; 0x80000000
    5a80:	e1b02082 	lsls	r2, r2, #1
    5a84:	e0a33003 	adc	r3, r3, r3
    5a88:	e3130601 	tst	r3, #1048576	; 0x100000
    5a8c:	02455001 	subeq	r5, r5, #1
    5a90:	0afffffa 	beq	5a80 <__aeabi_dmul+0x1dc>
    5a94:	e1833006 	orr	r3, r3, r6
    5a98:	e12fff1e 	bx	lr
    5a9c:	e134000c 	teq	r4, ip
    5aa0:	e00c5a23 	and	r5, ip, r3, lsr #20
    5aa4:	1135000c 	teqne	r5, ip
    5aa8:	0a000007 	beq	5acc <__aeabi_dmul+0x228>
    5aac:	e1906081 	orrs	r6, r0, r1, lsl #1
    5ab0:	11926083 	orrsne	r6, r2, r3, lsl #1
    5ab4:	1affffe5 	bne	5a50 <__aeabi_dmul+0x1ac>
    5ab8:	e0211003 	eor	r1, r1, r3
    5abc:	e2011102 	and	r1, r1, #-2147483648	; 0x80000000
    5ac0:	e3a00000 	mov	r0, #0
    5ac4:	e8bd4070 	pop	{r4, r5, r6, lr}
    5ac8:	e12fff1e 	bx	lr
    5acc:	e1906081 	orrs	r6, r0, r1, lsl #1
    5ad0:	01a00002 	moveq	r0, r2
    5ad4:	01a01003 	moveq	r1, r3
    5ad8:	11926083 	orrsne	r6, r2, r3, lsl #1
    5adc:	0a000010 	beq	5b24 <__aeabi_dmul+0x280>
    5ae0:	e134000c 	teq	r4, ip
    5ae4:	1a000001 	bne	5af0 <__aeabi_dmul+0x24c>
    5ae8:	e1906601 	orrs	r6, r0, r1, lsl #12
    5aec:	1a00000c 	bne	5b24 <__aeabi_dmul+0x280>
    5af0:	e135000c 	teq	r5, ip
    5af4:	1a000003 	bne	5b08 <__aeabi_dmul+0x264>
    5af8:	e1926603 	orrs	r6, r2, r3, lsl #12
    5afc:	11a00002 	movne	r0, r2
    5b00:	11a01003 	movne	r1, r3
    5b04:	1a000006 	bne	5b24 <__aeabi_dmul+0x280>
    5b08:	e0211003 	eor	r1, r1, r3
    5b0c:	e2011102 	and	r1, r1, #-2147483648	; 0x80000000
    5b10:	e381147f 	orr	r1, r1, #2130706432	; 0x7f000000
    5b14:	e381160f 	orr	r1, r1, #15728640	; 0xf00000
    5b18:	e3a00000 	mov	r0, #0
    5b1c:	e8bd4070 	pop	{r4, r5, r6, lr}
    5b20:	e12fff1e 	bx	lr
    5b24:	e381147f 	orr	r1, r1, #2130706432	; 0x7f000000
    5b28:	e381173e 	orr	r1, r1, #16252928	; 0xf80000
    5b2c:	e8bd4070 	pop	{r4, r5, r6, lr}
    5b30:	e12fff1e 	bx	lr

00005b34 <__aeabi_ddiv>:
    5b34:	e92d4070 	push	{r4, r5, r6, lr}
    5b38:	e3a0c0ff 	mov	ip, #255	; 0xff
    5b3c:	e38ccc07 	orr	ip, ip, #1792	; 0x700
    5b40:	e01c4a21 	ands	r4, ip, r1, lsr #20
    5b44:	101c5a23 	andsne	r5, ip, r3, lsr #20
    5b48:	1134000c 	teqne	r4, ip
    5b4c:	1135000c 	teqne	r5, ip
    5b50:	0b00005e 	bleq	5cd0 <__aeabi_ddiv+0x19c>
    5b54:	e0444005 	sub	r4, r4, r5
    5b58:	e021e003 	eor	lr, r1, r3
    5b5c:	e1925603 	orrs	r5, r2, r3, lsl #12
    5b60:	e1a01601 	lsl	r1, r1, #12
    5b64:	0a00004c 	beq	5c9c <__aeabi_ddiv+0x168>
    5b68:	e1a03603 	lsl	r3, r3, #12
    5b6c:	e3a05201 	mov	r5, #268435456	; 0x10000000
    5b70:	e1853223 	orr	r3, r5, r3, lsr #4
    5b74:	e1833c22 	orr	r3, r3, r2, lsr #24
    5b78:	e1a02402 	lsl	r2, r2, #8
    5b7c:	e1855221 	orr	r5, r5, r1, lsr #4
    5b80:	e1855c20 	orr	r5, r5, r0, lsr #24
    5b84:	e1a06400 	lsl	r6, r0, #8
    5b88:	e20e1102 	and	r1, lr, #-2147483648	; 0x80000000
    5b8c:	e1550003 	cmp	r5, r3
    5b90:	01560002 	cmpeq	r6, r2
    5b94:	e2a440fd 	adc	r4, r4, #253	; 0xfd
    5b98:	e2844c03 	add	r4, r4, #768	; 0x300
    5b9c:	2a000001 	bcs	5ba8 <__aeabi_ddiv+0x74>
    5ba0:	e1b030a3 	lsrs	r3, r3, #1
    5ba4:	e1a02062 	rrx	r2, r2
    5ba8:	e0566002 	subs	r6, r6, r2
    5bac:	e0c55003 	sbc	r5, r5, r3
    5bb0:	e1b030a3 	lsrs	r3, r3, #1
    5bb4:	e1a02062 	rrx	r2, r2
    5bb8:	e3a00601 	mov	r0, #1048576	; 0x100000
    5bbc:	e3a0c702 	mov	ip, #524288	; 0x80000
    5bc0:	e056e002 	subs	lr, r6, r2
    5bc4:	e0d5e003 	sbcs	lr, r5, r3
    5bc8:	20466002 	subcs	r6, r6, r2
    5bcc:	21a0500e 	movcs	r5, lr
    5bd0:	2180000c 	orrcs	r0, r0, ip
    5bd4:	e1b030a3 	lsrs	r3, r3, #1
    5bd8:	e1a02062 	rrx	r2, r2
    5bdc:	e056e002 	subs	lr, r6, r2
    5be0:	e0d5e003 	sbcs	lr, r5, r3
    5be4:	20466002 	subcs	r6, r6, r2
    5be8:	21a0500e 	movcs	r5, lr
    5bec:	218000ac 	orrcs	r0, r0, ip, lsr #1
    5bf0:	e1b030a3 	lsrs	r3, r3, #1
    5bf4:	e1a02062 	rrx	r2, r2
    5bf8:	e056e002 	subs	lr, r6, r2
    5bfc:	e0d5e003 	sbcs	lr, r5, r3
    5c00:	20466002 	subcs	r6, r6, r2
    5c04:	21a0500e 	movcs	r5, lr
    5c08:	2180012c 	orrcs	r0, r0, ip, lsr #2
    5c0c:	e1b030a3 	lsrs	r3, r3, #1
    5c10:	e1a02062 	rrx	r2, r2
    5c14:	e056e002 	subs	lr, r6, r2
    5c18:	e0d5e003 	sbcs	lr, r5, r3
    5c1c:	20466002 	subcs	r6, r6, r2
    5c20:	21a0500e 	movcs	r5, lr
    5c24:	218001ac 	orrcs	r0, r0, ip, lsr #3
    5c28:	e195e006 	orrs	lr, r5, r6
    5c2c:	0a00000d 	beq	5c68 <__aeabi_ddiv+0x134>
    5c30:	e1a05205 	lsl	r5, r5, #4
    5c34:	e1855e26 	orr	r5, r5, r6, lsr #28
    5c38:	e1a06206 	lsl	r6, r6, #4
    5c3c:	e1a03183 	lsl	r3, r3, #3
    5c40:	e1833ea2 	orr	r3, r3, r2, lsr #29
    5c44:	e1a02182 	lsl	r2, r2, #3
    5c48:	e1b0c22c 	lsrs	ip, ip, #4
    5c4c:	1affffdb 	bne	5bc0 <__aeabi_ddiv+0x8c>
    5c50:	e3110601 	tst	r1, #1048576	; 0x100000
    5c54:	1a000006 	bne	5c74 <__aeabi_ddiv+0x140>
    5c58:	e1811000 	orr	r1, r1, r0
    5c5c:	e3a00000 	mov	r0, #0
    5c60:	e3a0c102 	mov	ip, #-2147483648	; 0x80000000
    5c64:	eaffffd5 	b	5bc0 <__aeabi_ddiv+0x8c>
    5c68:	e3110601 	tst	r1, #1048576	; 0x100000
    5c6c:	01811000 	orreq	r1, r1, r0
    5c70:	03a00000 	moveq	r0, #0
    5c74:	e254c0fd 	subs	ip, r4, #253	; 0xfd
    5c78:	835c0c07 	cmphi	ip, #1792	; 0x700
    5c7c:	8affff43 	bhi	5990 <__aeabi_dmul+0xec>
    5c80:	e055c003 	subs	ip, r5, r3
    5c84:	0056c002 	subseq	ip, r6, r2
    5c88:	01b0c0a0 	lsrseq	ip, r0, #1
    5c8c:	e2b00000 	adcs	r0, r0, #0
    5c90:	e0a11a04 	adc	r1, r1, r4, lsl #20
    5c94:	e8bd4070 	pop	{r4, r5, r6, lr}
    5c98:	e12fff1e 	bx	lr
    5c9c:	e20ee102 	and	lr, lr, #-2147483648	; 0x80000000
    5ca0:	e18e1621 	orr	r1, lr, r1, lsr #12
    5ca4:	e09440ac 	adds	r4, r4, ip, lsr #1
    5ca8:	c074500c 	rsbsgt	r5, r4, ip
    5cac:	c1811a04 	orrgt	r1, r1, r4, lsl #20
    5cb0:	c8bd4070 	popgt	{r4, r5, r6, lr}
    5cb4:	c12fff1e 	bxgt	lr
    5cb8:	e3811601 	orr	r1, r1, #1048576	; 0x100000
    5cbc:	e3a0e000 	mov	lr, #0
    5cc0:	e2544001 	subs	r4, r4, #1
    5cc4:	eaffff31 	b	5990 <__aeabi_dmul+0xec>
    5cc8:	e185e006 	orr	lr, r5, r6
    5ccc:	eaffff2f 	b	5990 <__aeabi_dmul+0xec>
    5cd0:	e00c5a23 	and	r5, ip, r3, lsr #20
    5cd4:	e134000c 	teq	r4, ip
    5cd8:	0135000c 	teqeq	r5, ip
    5cdc:	0affff90 	beq	5b24 <__aeabi_dmul+0x280>
    5ce0:	e134000c 	teq	r4, ip
    5ce4:	1a000006 	bne	5d04 <__aeabi_ddiv+0x1d0>
    5ce8:	e1904601 	orrs	r4, r0, r1, lsl #12
    5cec:	1affff8c 	bne	5b24 <__aeabi_dmul+0x280>
    5cf0:	e135000c 	teq	r5, ip
    5cf4:	1affff83 	bne	5b08 <__aeabi_dmul+0x264>
    5cf8:	e1a00002 	mov	r0, r2
    5cfc:	e1a01003 	mov	r1, r3
    5d00:	eaffff87 	b	5b24 <__aeabi_dmul+0x280>
    5d04:	e135000c 	teq	r5, ip
    5d08:	1a000004 	bne	5d20 <__aeabi_ddiv+0x1ec>
    5d0c:	e1925603 	orrs	r5, r2, r3, lsl #12
    5d10:	0affff68 	beq	5ab8 <__aeabi_dmul+0x214>
    5d14:	e1a00002 	mov	r0, r2
    5d18:	e1a01003 	mov	r1, r3
    5d1c:	eaffff80 	b	5b24 <__aeabi_dmul+0x280>
    5d20:	e1906081 	orrs	r6, r0, r1, lsl #1
    5d24:	11926083 	orrsne	r6, r2, r3, lsl #1
    5d28:	1affff48 	bne	5a50 <__aeabi_dmul+0x1ac>
    5d2c:	e1904081 	orrs	r4, r0, r1, lsl #1
    5d30:	1affff74 	bne	5b08 <__aeabi_dmul+0x264>
    5d34:	e1925083 	orrs	r5, r2, r3, lsl #1
    5d38:	1affff5e 	bne	5ab8 <__aeabi_dmul+0x214>
    5d3c:	eaffff78 	b	5b24 <__aeabi_dmul+0x280>

00005d40 <__gedf2>:
    5d40:	e3e0c000 	mvn	ip, #0
    5d44:	ea000002 	b	5d54 <__cmpdf2+0x4>

00005d48 <__ledf2>:
    5d48:	e3a0c001 	mov	ip, #1
    5d4c:	ea000000 	b	5d54 <__cmpdf2+0x4>

00005d50 <__cmpdf2>:
    5d50:	e3a0c001 	mov	ip, #1
    5d54:	e52dc004 	push	{ip}		; (str ip, [sp, #-4]!)
    5d58:	e1a0c081 	lsl	ip, r1, #1
    5d5c:	e1f0cacc 	mvns	ip, ip, asr #21
    5d60:	e1a0c083 	lsl	ip, r3, #1
    5d64:	11f0cacc 	mvnsne	ip, ip, asr #21
    5d68:	0a00000e 	beq	5da8 <__cmpdf2+0x58>
    5d6c:	e28dd004 	add	sp, sp, #4
    5d70:	e190c081 	orrs	ip, r0, r1, lsl #1
    5d74:	0192c083 	orrseq	ip, r2, r3, lsl #1
    5d78:	11310003 	teqne	r1, r3
    5d7c:	01300002 	teqeq	r0, r2
    5d80:	03a00000 	moveq	r0, #0
    5d84:	012fff1e 	bxeq	lr
    5d88:	e3700000 	cmn	r0, #0
    5d8c:	e1310003 	teq	r1, r3
    5d90:	51510003 	cmppl	r1, r3
    5d94:	01500002 	cmpeq	r0, r2
    5d98:	21a00fc3 	asrcs	r0, r3, #31
    5d9c:	31e00fc3 	mvncc	r0, r3, asr #31
    5da0:	e3800001 	orr	r0, r0, #1
    5da4:	e12fff1e 	bx	lr
    5da8:	e1a0c081 	lsl	ip, r1, #1
    5dac:	e1f0cacc 	mvns	ip, ip, asr #21
    5db0:	1a000001 	bne	5dbc <__cmpdf2+0x6c>
    5db4:	e190c601 	orrs	ip, r0, r1, lsl #12
    5db8:	1a000004 	bne	5dd0 <__cmpdf2+0x80>
    5dbc:	e1a0c083 	lsl	ip, r3, #1
    5dc0:	e1f0cacc 	mvns	ip, ip, asr #21
    5dc4:	1affffe8 	bne	5d6c <__cmpdf2+0x1c>
    5dc8:	e192c603 	orrs	ip, r2, r3, lsl #12
    5dcc:	0affffe6 	beq	5d6c <__cmpdf2+0x1c>
    5dd0:	e49d0004 	pop	{r0}		; (ldr r0, [sp], #4)
    5dd4:	e12fff1e 	bx	lr

00005dd8 <__aeabi_cdrcmple>:
    5dd8:	e1a0c000 	mov	ip, r0
    5ddc:	e1a00002 	mov	r0, r2
    5de0:	e1a0200c 	mov	r2, ip
    5de4:	e1a0c001 	mov	ip, r1
    5de8:	e1a01003 	mov	r1, r3
    5dec:	e1a0300c 	mov	r3, ip
    5df0:	eaffffff 	b	5df4 <__aeabi_cdcmpeq>

00005df4 <__aeabi_cdcmpeq>:
    5df4:	e92d4001 	push	{r0, lr}
    5df8:	ebffffd4 	bl	5d50 <__cmpdf2>
    5dfc:	e3500000 	cmp	r0, #0
    5e00:	43700000 	cmnmi	r0, #0
    5e04:	e8bd4001 	pop	{r0, lr}
    5e08:	e12fff1e 	bx	lr

00005e0c <__aeabi_dcmpeq>:
    5e0c:	e52de008 	str	lr, [sp, #-8]!
    5e10:	ebfffff7 	bl	5df4 <__aeabi_cdcmpeq>
    5e14:	03a00001 	moveq	r0, #1
    5e18:	13a00000 	movne	r0, #0
    5e1c:	e49de008 	ldr	lr, [sp], #8
    5e20:	e12fff1e 	bx	lr

00005e24 <__aeabi_dcmplt>:
    5e24:	e52de008 	str	lr, [sp, #-8]!
    5e28:	ebfffff1 	bl	5df4 <__aeabi_cdcmpeq>
    5e2c:	33a00001 	movcc	r0, #1
    5e30:	23a00000 	movcs	r0, #0
    5e34:	e49de008 	ldr	lr, [sp], #8
    5e38:	e12fff1e 	bx	lr

00005e3c <__aeabi_dcmple>:
    5e3c:	e52de008 	str	lr, [sp, #-8]!
    5e40:	ebffffeb 	bl	5df4 <__aeabi_cdcmpeq>
    5e44:	93a00001 	movls	r0, #1
    5e48:	83a00000 	movhi	r0, #0
    5e4c:	e49de008 	ldr	lr, [sp], #8
    5e50:	e12fff1e 	bx	lr

00005e54 <__aeabi_dcmpge>:
    5e54:	e52de008 	str	lr, [sp, #-8]!
    5e58:	ebffffde 	bl	5dd8 <__aeabi_cdrcmple>
    5e5c:	93a00001 	movls	r0, #1
    5e60:	83a00000 	movhi	r0, #0
    5e64:	e49de008 	ldr	lr, [sp], #8
    5e68:	e12fff1e 	bx	lr

00005e6c <__aeabi_dcmpgt>:
    5e6c:	e52de008 	str	lr, [sp, #-8]!
    5e70:	ebffffd8 	bl	5dd8 <__aeabi_cdrcmple>
    5e74:	33a00001 	movcc	r0, #1
    5e78:	23a00000 	movcs	r0, #0
    5e7c:	e49de008 	ldr	lr, [sp], #8
    5e80:	e12fff1e 	bx	lr

00005e84 <__aeabi_d2uiz>:
    5e84:	e1b02081 	lsls	r2, r1, #1
    5e88:	2a00000a 	bcs	5eb8 <__aeabi_d2uiz+0x34>
    5e8c:	e2922602 	adds	r2, r2, #2097152	; 0x200000
    5e90:	2a00000a 	bcs	5ec0 <__aeabi_d2uiz+0x3c>
    5e94:	5a000007 	bpl	5eb8 <__aeabi_d2uiz+0x34>
    5e98:	e3e03e3e 	mvn	r3, #992	; 0x3e0
    5e9c:	e0532ac2 	subs	r2, r3, r2, asr #21
    5ea0:	4a000008 	bmi	5ec8 <__aeabi_d2uiz+0x44>
    5ea4:	e1a03581 	lsl	r3, r1, #11
    5ea8:	e3833102 	orr	r3, r3, #-2147483648	; 0x80000000
    5eac:	e1833aa0 	orr	r3, r3, r0, lsr #21
    5eb0:	e1a00233 	lsr	r0, r3, r2
    5eb4:	e12fff1e 	bx	lr
    5eb8:	e3a00000 	mov	r0, #0
    5ebc:	e12fff1e 	bx	lr
    5ec0:	e1900601 	orrs	r0, r0, r1, lsl #12
    5ec4:	1a000001 	bne	5ed0 <__aeabi_d2uiz+0x4c>
    5ec8:	e3e00000 	mvn	r0, #0
    5ecc:	e12fff1e 	bx	lr
    5ed0:	e3a00000 	mov	r0, #0
    5ed4:	e12fff1e 	bx	lr

00005ed8 <__aeabi_d2f>:
    5ed8:	e1a02081 	lsl	r2, r1, #1
    5edc:	e2523207 	subs	r3, r2, #1879048192	; 0x70000000
    5ee0:	2253c602 	subscs	ip, r3, #2097152	; 0x200000
    5ee4:	227cc57f 	rsbscs	ip, ip, #532676608	; 0x1fc00000
    5ee8:	9a000006 	bls	5f08 <__aeabi_d2f+0x30>
    5eec:	e201c102 	and	ip, r1, #-2147483648	; 0x80000000
    5ef0:	e1a02180 	lsl	r2, r0, #3
    5ef4:	e18c0ea0 	orr	r0, ip, r0, lsr #29
    5ef8:	e3520102 	cmp	r2, #-2147483648	; 0x80000000
    5efc:	e0a00103 	adc	r0, r0, r3, lsl #2
    5f00:	03c00001 	biceq	r0, r0, #1
    5f04:	e12fff1e 	bx	lr
    5f08:	e3110101 	tst	r1, #1073741824	; 0x40000000
    5f0c:	1a00000f 	bne	5f50 <__aeabi_d2f+0x78>
    5f10:	e293262e 	adds	r2, r3, #48234496	; 0x2e00000
    5f14:	b2010102 	andlt	r0, r1, #-2147483648	; 0x80000000
    5f18:	b12fff1e 	bxlt	lr
    5f1c:	e3811601 	orr	r1, r1, #1048576	; 0x100000
    5f20:	e1a02aa2 	lsr	r2, r2, #21
    5f24:	e2622018 	rsb	r2, r2, #24
    5f28:	e262c020 	rsb	ip, r2, #32
    5f2c:	e1b03c10 	lsls	r3, r0, ip
    5f30:	e1a00230 	lsr	r0, r0, r2
    5f34:	13800001 	orrne	r0, r0, #1
    5f38:	e1a03581 	lsl	r3, r1, #11
    5f3c:	e1a035a3 	lsr	r3, r3, #11
    5f40:	e1800c13 	orr	r0, r0, r3, lsl ip
    5f44:	e1a03233 	lsr	r3, r3, r2
    5f48:	e1a03083 	lsl	r3, r3, #1
    5f4c:	eaffffe6 	b	5eec <__aeabi_d2f+0x14>
    5f50:	e1f03ac2 	mvns	r3, r2, asr #21
    5f54:	1a000003 	bne	5f68 <__aeabi_d2f+0x90>
    5f58:	e1903601 	orrs	r3, r0, r1, lsl #12
    5f5c:	13a0047f 	movne	r0, #2130706432	; 0x7f000000
    5f60:	13800503 	orrne	r0, r0, #12582912	; 0xc00000
    5f64:	112fff1e 	bxne	lr
    5f68:	e2010102 	and	r0, r1, #-2147483648	; 0x80000000
    5f6c:	e380047f 	orr	r0, r0, #2130706432	; 0x7f000000
    5f70:	e3800502 	orr	r0, r0, #8388608	; 0x800000
    5f74:	e12fff1e 	bx	lr

00005f78 <__aeabi_frsub>:
    5f78:	e2200102 	eor	r0, r0, #-2147483648	; 0x80000000
    5f7c:	ea000000 	b	5f84 <__addsf3>

00005f80 <__aeabi_fsub>:
    5f80:	e2211102 	eor	r1, r1, #-2147483648	; 0x80000000

00005f84 <__addsf3>:
    5f84:	e1b02080 	lsls	r2, r0, #1
    5f88:	11b03081 	lslsne	r3, r1, #1
    5f8c:	11320003 	teqne	r2, r3
    5f90:	11f0cc42 	mvnsne	ip, r2, asr #24
    5f94:	11f0cc43 	mvnsne	ip, r3, asr #24
    5f98:	0a000047 	beq	60bc <__addsf3+0x138>
    5f9c:	e1a02c22 	lsr	r2, r2, #24
    5fa0:	e0723c23 	rsbs	r3, r2, r3, lsr #24
    5fa4:	c0822003 	addgt	r2, r2, r3
    5fa8:	c0201001 	eorgt	r1, r0, r1
    5fac:	c0210000 	eorgt	r0, r1, r0
    5fb0:	c0201001 	eorgt	r1, r0, r1
    5fb4:	b2633000 	rsblt	r3, r3, #0
    5fb8:	e3530019 	cmp	r3, #25
    5fbc:	812fff1e 	bxhi	lr
    5fc0:	e3100102 	tst	r0, #-2147483648	; 0x80000000
    5fc4:	e3800502 	orr	r0, r0, #8388608	; 0x800000
    5fc8:	e3c004ff 	bic	r0, r0, #-16777216	; 0xff000000
    5fcc:	12600000 	rsbne	r0, r0, #0
    5fd0:	e3110102 	tst	r1, #-2147483648	; 0x80000000
